
build/main.elf:     file format elf32-littleriscv


Disassembly of section .text:

00000000 <_isr_handler>:
       0:	0080006f          	j	8 <_isr_routine>
       4:	1440006f          	j	148 <_start>

00000008 <_isr_routine>:
       8:	f8010113          	addi	sp,sp,-128
       c:	00112023          	sw	ra,0(sp)
      10:	00312423          	sw	gp,8(sp)
      14:	00412623          	sw	tp,12(sp)
      18:	00512823          	sw	t0,16(sp)
      1c:	00612a23          	sw	t1,20(sp)
      20:	00712c23          	sw	t2,24(sp)
      24:	00812e23          	sw	s0,28(sp)
      28:	02912023          	sw	s1,32(sp)
      2c:	02a12223          	sw	a0,36(sp)
      30:	02b12423          	sw	a1,40(sp)
      34:	02c12623          	sw	a2,44(sp)
      38:	02d12823          	sw	a3,48(sp)
      3c:	02e12a23          	sw	a4,52(sp)
      40:	02f12c23          	sw	a5,56(sp)
      44:	03012e23          	sw	a6,60(sp)
      48:	05112023          	sw	a7,64(sp)
      4c:	05212223          	sw	s2,68(sp)
      50:	05312423          	sw	s3,72(sp)
      54:	05412623          	sw	s4,76(sp)
      58:	05512823          	sw	s5,80(sp)
      5c:	05612a23          	sw	s6,84(sp)
      60:	05712c23          	sw	s7,88(sp)
      64:	05812e23          	sw	s8,92(sp)
      68:	07912023          	sw	s9,96(sp)
      6c:	07a12223          	sw	s10,100(sp)
      70:	07b12423          	sw	s11,104(sp)
      74:	07c12623          	sw	t3,108(sp)
      78:	07d12823          	sw	t4,112(sp)
      7c:	07e12a23          	sw	t5,116(sp)
      80:	07f12c23          	sw	t6,120(sp)
      84:	342022f3          	csrr	t0,mcause
      88:	80000337          	lui	t1,0x80000
      8c:	0262f263          	bgeu	t0,t1,b0 <external_irq>
      90:	00028833          	add	a6,t0,zero
      94:	00b00313          	li	t1,11
      98:	00628463          	beq	t0,t1,a0 <skip_init_args>
      9c:	34102573          	csrr	a0,mepc

000000a0 <skip_init_args>:
      a0:	341022f3          	csrr	t0,mepc
      a4:	00428293          	addi	t0,t0,4
      a8:	34129073          	csrw	mepc,t0
      ac:	01c0006f          	j	c8 <restore>

000000b0 <external_irq>:
      b0:	34102573          	csrr	a0,mepc
      b4:	800002b7          	lui	t0,0x80000
      b8:	fff28293          	addi	t0,t0,-1 # 7fffffff <_stack_end+0x7fefcbef>
      bc:	34202373          	csrr	t1,mcause
      c0:	0062f5b3          	and	a1,t0,t1
      c4:	749010ef          	jal	200c <interrupt_handler>

000000c8 <restore>:
      c8:	00012083          	lw	ra,0(sp)
      cc:	00812183          	lw	gp,8(sp)
      d0:	00c12203          	lw	tp,12(sp)
      d4:	01012283          	lw	t0,16(sp)
      d8:	01412303          	lw	t1,20(sp)
      dc:	01812383          	lw	t2,24(sp)
      e0:	01c12403          	lw	s0,28(sp)
      e4:	02012483          	lw	s1,32(sp)
      e8:	02412503          	lw	a0,36(sp)
      ec:	02812583          	lw	a1,40(sp)
      f0:	02c12603          	lw	a2,44(sp)
      f4:	03012683          	lw	a3,48(sp)
      f8:	03412703          	lw	a4,52(sp)
      fc:	03812783          	lw	a5,56(sp)
     100:	03c12803          	lw	a6,60(sp)
     104:	04012883          	lw	a7,64(sp)
     108:	04412903          	lw	s2,68(sp)
     10c:	04812983          	lw	s3,72(sp)
     110:	04c12a03          	lw	s4,76(sp)
     114:	05012a83          	lw	s5,80(sp)
     118:	05412b03          	lw	s6,84(sp)
     11c:	05812b83          	lw	s7,88(sp)
     120:	05c12c03          	lw	s8,92(sp)
     124:	06012c83          	lw	s9,96(sp)
     128:	06412d03          	lw	s10,100(sp)
     12c:	06812d83          	lw	s11,104(sp)
     130:	06c12e03          	lw	t3,108(sp)
     134:	07012e83          	lw	t4,112(sp)
     138:	07412f03          	lw	t5,116(sp)
     13c:	07812f83          	lw	t6,120(sp)
     140:	08010113          	addi	sp,sp,128
     144:	30200073          	mret

00000148 <_start>:
     148:	30401073          	csrw	mie,zero
     14c:	00103117          	auipc	sp,0x103
     150:	2c410113          	addi	sp,sp,708 # 103410 <_stack_end>
     154:	00004197          	auipc	gp,0x4
     158:	a3418193          	addi	gp,gp,-1484 # 3b88 <__global_pointer>
     15c:	00000297          	auipc	t0,0x0
     160:	ea428293          	addi	t0,t0,-348 # 0 <_isr_handler>
     164:	30529073          	csrw	mtvec,t0
     168:	00002517          	auipc	a0,0x2
     16c:	ecc50513          	addi	a0,a0,-308 # 2034 <welcome_msg>
     170:	00400893          	li	a7,4
     174:	00000073          	ecall
     178:	545010ef          	jal	1ebc <main>

0000017c <loop>:
     17c:	0000006f          	j	17c <loop>

00000180 <enable_interrupt>:
     180:	000112b7          	lui	t0,0x11
     184:	89028293          	addi	t0,t0,-1904 # 10890 <__global_pointer+0xcd08>
     188:	3042a073          	csrs	mie,t0
     18c:	00800293          	li	t0,8
     190:	3002a073          	csrs	mstatus,t0
     194:	00008067          	ret

00000198 <get_random>:
     198:	ff010113          	addi	sp,sp,-16
     19c:	00003737          	lui	a4,0x3
     1a0:	00812423          	sw	s0,8(sp)
     1a4:	38872403          	lw	s0,904(a4) # 3388 <next_random>
     1a8:	41c657b7          	lui	a5,0x41c65
     1ac:	e6d78793          	addi	a5,a5,-403 # 41c64e6d <_stack_end+0x41b61a5d>
     1b0:	02f40433          	mul	s0,s0,a5
     1b4:	000037b7          	lui	a5,0x3
     1b8:	03978793          	addi	a5,a5,57 # 3039 <map+0xf71>
     1bc:	00912223          	sw	s1,4(sp)
     1c0:	00112623          	sw	ra,12(sp)
     1c4:	00050493          	mv	s1,a0
     1c8:	00f40433          	add	s0,s0,a5
     1cc:	38872423          	sw	s0,904(a4)
     1d0:	00141413          	slli	s0,s0,0x1
     1d4:	495010ef          	jal	1e68 <get_sw>
     1d8:	01145413          	srli	s0,s0,0x11
     1dc:	00c12083          	lw	ra,12(sp)
     1e0:	00a40533          	add	a0,s0,a0
     1e4:	00812403          	lw	s0,8(sp)
     1e8:	02957533          	remu	a0,a0,s1
     1ec:	00412483          	lw	s1,4(sp)
     1f0:	01010113          	addi	sp,sp,16
     1f4:	00008067          	ret

000001f8 <dir_to_movement>:
     1f8:	00200793          	li	a5,2
     1fc:	04f50063          	beq	a0,a5,23c <dir_to_movement+0x44>
     200:	02a7c263          	blt	a5,a0,224 <dir_to_movement+0x2c>
     204:	fff00793          	li	a5,-1
     208:	00050863          	beqz	a0,218 <dir_to_movement+0x20>
     20c:	fff50513          	addi	a0,a0,-1
     210:	00153793          	seqz	a5,a0
     214:	00000513          	li	a0,0
     218:	00a5a023          	sw	a0,0(a1)
     21c:	00f62023          	sw	a5,0(a2)
     220:	00008067          	ret
     224:	ffd50513          	addi	a0,a0,-3
     228:	00153513          	seqz	a0,a0
     22c:	00000793          	li	a5,0
     230:	00a5a023          	sw	a0,0(a1)
     234:	00f62023          	sw	a5,0(a2)
     238:	00008067          	ret
     23c:	fff00513          	li	a0,-1
     240:	00000793          	li	a5,0
     244:	00a5a023          	sw	a0,0(a1)
     248:	00f62023          	sw	a5,0(a2)
     24c:	00008067          	ret

00000250 <can_move_to>:
     250:	01d00793          	li	a5,29
     254:	00050713          	mv	a4,a0
     258:	04b7e263          	bltu	a5,a1,29c <can_move_to+0x4c>
     25c:	02700793          	li	a5,39
     260:	00a7f863          	bgeu	a5,a0,270 <can_move_to+0x20>
     264:	00e00793          	li	a5,14
     268:	00100513          	li	a0,1
     26c:	02f58a63          	beq	a1,a5,2a0 <can_move_to+0x50>
     270:	00259793          	slli	a5,a1,0x2
     274:	00b787b3          	add	a5,a5,a1
     278:	00379793          	slli	a5,a5,0x3
     27c:	00e78533          	add	a0,a5,a4
     280:	000027b7          	lui	a5,0x2
     284:	00251513          	slli	a0,a0,0x2
     288:	0c878793          	addi	a5,a5,200 # 20c8 <map>
     28c:	00a787b3          	add	a5,a5,a0
     290:	0007a503          	lw	a0,0(a5)
     294:	00153513          	seqz	a0,a0
     298:	00008067          	ret
     29c:	00000513          	li	a0,0
     2a0:	00008067          	ret

000002a4 <is_centered>:
     2a4:	00757513          	andi	a0,a0,7
     2a8:	00153513          	seqz	a0,a0
     2ac:	00008067          	ret

000002b0 <update_entity_position>:
     2b0:	fff00793          	li	a5,-1
     2b4:	00062803          	lw	a6,0(a2)
     2b8:	0af68c63          	beq	a3,a5,370 <update_entity_position+0xc0>
     2bc:	00052e03          	lw	t3,0(a0)
     2c0:	1b068a63          	beq	a3,a6,474 <update_entity_position+0x1c4>
     2c4:	007e7793          	andi	a5,t3,7
     2c8:	0a079463          	bnez	a5,370 <update_entity_position+0xc0>
     2cc:	0005a303          	lw	t1,0(a1)
     2d0:	00737e93          	andi	t4,t1,7
     2d4:	080e9e63          	bnez	t4,370 <update_entity_position+0xc0>
     2d8:	00300893          	li	a7,3
     2dc:	00068793          	mv	a5,a3
     2e0:	20d8e063          	bltu	a7,a3,4e0 <update_entity_position+0x230>
     2e4:	000038b7          	lui	a7,0x3
     2e8:	00269e93          	slli	t4,a3,0x2
     2ec:	3d488893          	addi	a7,a7,980 # 33d4 <CSWTCH.17>
     2f0:	01d888b3          	add	a7,a7,t4
     2f4:	0008ae83          	lw	t4,0(a7)
     2f8:	0108af03          	lw	t5,16(a7)
     2fc:	41f35893          	srai	a7,t1,0x1f
     300:	0078f893          	andi	a7,a7,7
     304:	006888b3          	add	a7,a7,t1
     308:	4038d893          	srai	a7,a7,0x3
     30c:	01e888b3          	add	a7,a7,t5
     310:	01d00313          	li	t1,29
     314:	05136e63          	bltu	t1,a7,370 <update_entity_position+0xc0>
     318:	41fe5313          	srai	t1,t3,0x1f
     31c:	00737313          	andi	t1,t1,7
     320:	01c30333          	add	t1,t1,t3
     324:	40335313          	srai	t1,t1,0x3
     328:	01d30333          	add	t1,t1,t4
     32c:	02700e13          	li	t3,39
     330:	006e7c63          	bgeu	t3,t1,348 <update_entity_position+0x98>
     334:	00e00e13          	li	t3,14
     338:	01c89863          	bne	a7,t3,348 <update_entity_position+0x98>
     33c:	00d62023          	sw	a3,0(a2)
     340:	00052e03          	lw	t3,0(a0)
     344:	1340006f          	j	478 <update_entity_position+0x1c8>
     348:	00289e13          	slli	t3,a7,0x2
     34c:	011e08b3          	add	a7,t3,a7
     350:	00389893          	slli	a7,a7,0x3
     354:	006888b3          	add	a7,a7,t1
     358:	00002337          	lui	t1,0x2
     35c:	00289893          	slli	a7,a7,0x2
     360:	0c830313          	addi	t1,t1,200 # 20c8 <map>
     364:	011308b3          	add	a7,t1,a7
     368:	0008a883          	lw	a7,0(a7)
     36c:	fc0888e3          	beqz	a7,33c <update_entity_position+0x8c>
     370:	00300693          	li	a3,3
     374:	00080793          	mv	a5,a6
     378:	1506ee63          	bltu	a3,a6,4d4 <update_entity_position+0x224>
     37c:	00052e03          	lw	t3,0(a0)
     380:	000036b7          	lui	a3,0x3
     384:	00279793          	slli	a5,a5,0x2
     388:	3d468693          	addi	a3,a3,980 # 33d4 <CSWTCH.17>
     38c:	00f686b3          	add	a3,a3,a5
     390:	0006a683          	lw	a3,0(a3)
     394:	00100813          	li	a6,1
     398:	02d70333          	mul	t1,a4,a3
     39c:	01c30333          	add	t1,t1,t3
     3a0:	00730e93          	addi	t4,t1,7
     3a4:	01068463          	beq	a3,a6,3ac <update_entity_position+0xfc>
     3a8:	00030e93          	mv	t4,t1
     3ac:	000036b7          	lui	a3,0x3
     3b0:	3e468693          	addi	a3,a3,996 # 33e4 <CSWTCH.18>
     3b4:	00f687b3          	add	a5,a3,a5
     3b8:	0007a783          	lw	a5,0(a5)
     3bc:	0005af03          	lw	t5,0(a1)
     3c0:	00100693          	li	a3,1
     3c4:	02e78733          	mul	a4,a5,a4
     3c8:	01e70733          	add	a4,a4,t5
     3cc:	00070f93          	mv	t6,a4
     3d0:	0ed78663          	beq	a5,a3,4bc <update_entity_position+0x20c>
     3d4:	41fed893          	srai	a7,t4,0x1f
     3d8:	41fe5793          	srai	a5,t3,0x1f
     3dc:	0078f893          	andi	a7,a7,7
     3e0:	41ffd693          	srai	a3,t6,0x1f
     3e4:	0077f793          	andi	a5,a5,7
     3e8:	41ff5813          	srai	a6,t5,0x1f
     3ec:	01d888b3          	add	a7,a7,t4
     3f0:	0076f693          	andi	a3,a3,7
     3f4:	01c787b3          	add	a5,a5,t3
     3f8:	00787813          	andi	a6,a6,7
     3fc:	01f686b3          	add	a3,a3,t6
     400:	01e80833          	add	a6,a6,t5
     404:	4038d893          	srai	a7,a7,0x3
     408:	4037d793          	srai	a5,a5,0x3
     40c:	4036d693          	srai	a3,a3,0x3
     410:	40385813          	srai	a6,a6,0x3
     414:	08f88263          	beq	a7,a5,498 <update_entity_position+0x1e8>
     418:	01d00e13          	li	t3,29
     41c:	02de6e63          	bltu	t3,a3,458 <update_entity_position+0x1a8>
     420:	02700e13          	li	t3,39
     424:	011e7663          	bgeu	t3,a7,430 <update_entity_position+0x180>
     428:	00e00e13          	li	t3,14
     42c:	07c68863          	beq	a3,t3,49c <update_entity_position+0x1ec>
     430:	00269e13          	slli	t3,a3,0x2
     434:	00de06b3          	add	a3,t3,a3
     438:	00369693          	slli	a3,a3,0x3
     43c:	011686b3          	add	a3,a3,a7
     440:	000028b7          	lui	a7,0x2
     444:	00269693          	slli	a3,a3,0x2
     448:	0c888893          	addi	a7,a7,200 # 20c8 <map>
     44c:	00d886b3          	add	a3,a7,a3
     450:	0006a683          	lw	a3,0(a3)
     454:	04068463          	beqz	a3,49c <update_entity_position+0x1ec>
     458:	00379793          	slli	a5,a5,0x3
     45c:	00f52023          	sw	a5,0(a0)
     460:	00381813          	slli	a6,a6,0x3
     464:	0105a023          	sw	a6,0(a1)
     468:	fff00793          	li	a5,-1
     46c:	00f62023          	sw	a5,0(a2)
     470:	00008067          	ret
     474:	00068793          	mv	a5,a3
     478:	00300813          	li	a6,3
     47c:	f0d872e3          	bgeu	a6,a3,380 <update_entity_position+0xd0>
     480:	0005af83          	lw	t6,0(a1)
     484:	000e0e93          	mv	t4,t3
     488:	000e0313          	mv	t1,t3
     48c:	000f8f13          	mv	t5,t6
     490:	000f8713          	mv	a4,t6
     494:	f41ff06f          	j	3d4 <update_entity_position+0x124>
     498:	f90690e3          	bne	a3,a6,418 <update_entity_position+0x168>
     49c:	ff800793          	li	a5,-8
     4a0:	02f34263          	blt	t1,a5,4c4 <update_entity_position+0x214>
     4a4:	14000793          	li	a5,320
     4a8:	0067d463          	bge	a5,t1,4b0 <update_entity_position+0x200>
     4ac:	ff900313          	li	t1,-7
     4b0:	00652023          	sw	t1,0(a0)
     4b4:	00e5a023          	sw	a4,0(a1)
     4b8:	00008067          	ret
     4bc:	00770f93          	addi	t6,a4,7
     4c0:	f15ff06f          	j	3d4 <update_entity_position+0x124>
     4c4:	13800313          	li	t1,312
     4c8:	00652023          	sw	t1,0(a0)
     4cc:	00e5a023          	sw	a4,0(a1)
     4d0:	00008067          	ret
     4d4:	fff00793          	li	a5,-1
     4d8:	00f81863          	bne	a6,a5,4e8 <update_entity_position+0x238>
     4dc:	00008067          	ret
     4e0:	00000f13          	li	t5,0
     4e4:	e19ff06f          	j	2fc <update_entity_position+0x4c>
     4e8:	00052e03          	lw	t3,0(a0)
     4ec:	f95ff06f          	j	480 <update_entity_position+0x1d0>

000004f0 <enemy_init>:
     4f0:	01b00793          	li	a5,27
     4f4:	00f52423          	sw	a5,8(a0)
     4f8:	00e00793          	li	a5,14
     4fc:	00f52623          	sw	a5,12(a0)
     500:	0d800793          	li	a5,216
     504:	00f52023          	sw	a5,0(a0)
     508:	07000793          	li	a5,112
     50c:	00f52223          	sw	a5,4(a0)
     510:	fff00793          	li	a5,-1
     514:	00052823          	sw	zero,16(a0)
     518:	00f52a23          	sw	a5,20(a0)
     51c:	00008067          	ret

00000520 <state_mode_enemy>:
     520:	01452683          	lw	a3,20(a0)
     524:	ff010113          	addi	sp,sp,-16
     528:	00100713          	li	a4,1
     52c:	01050613          	addi	a2,a0,16
     530:	00450593          	addi	a1,a0,4
     534:	00812423          	sw	s0,8(sp)
     538:	00112623          	sw	ra,12(sp)
     53c:	00050413          	mv	s0,a0
     540:	d71ff0ef          	jal	2b0 <update_entity_position>
     544:	01042703          	lw	a4,16(s0)
     548:	fff00793          	li	a5,-1
     54c:	00f70a63          	beq	a4,a5,560 <state_mode_enemy+0x40>
     550:	00c12083          	lw	ra,12(sp)
     554:	00812403          	lw	s0,8(sp)
     558:	01010113          	addi	sp,sp,16
     55c:	00008067          	ret
     560:	00400513          	li	a0,4
     564:	c35ff0ef          	jal	198 <get_random>
     568:	00c12083          	lw	ra,12(sp)
     56c:	00a42823          	sw	a0,16(s0)
     570:	00812403          	lw	s0,8(sp)
     574:	01010113          	addi	sp,sp,16
     578:	00008067          	ret

0000057c <enemy_render>:
     57c:	ff010113          	addi	sp,sp,-16
     580:	00812423          	sw	s0,8(sp)
     584:	01052603          	lw	a2,16(a0)
     588:	00050413          	mv	s0,a0
     58c:	00452583          	lw	a1,4(a0)
     590:	00052503          	lw	a0,0(a0)
     594:	00112623          	sw	ra,12(sp)
     598:	6dc010ef          	jal	1c74 <redraw_tile>
     59c:	00442583          	lw	a1,4(s0)
     5a0:	00042503          	lw	a0,0(s0)
     5a4:	00812403          	lw	s0,8(sp)
     5a8:	00c12083          	lw	ra,12(sp)
     5ac:	0e000613          	li	a2,224
     5b0:	01010113          	addi	sp,sp,16
     5b4:	64c0106f          	j	1c00 <draw_character>

000005b8 <game_init>:
     5b8:	000037b7          	lui	a5,0x3
     5bc:	ff010113          	addi	sp,sp,-16
     5c0:	39878513          	addi	a0,a5,920 # 3398 <player>
     5c4:	00003737          	lui	a4,0x3
     5c8:	00112623          	sw	ra,12(sp)
     5cc:	00812423          	sw	s0,8(sp)
     5d0:	3c072823          	sw	zero,976(a4) # 33d0 <game_state>
     5d4:	39878413          	addi	s0,a5,920
     5d8:	0f9010ef          	jal	1ed0 <player_init>
     5dc:	02040513          	addi	a0,s0,32
     5e0:	f11ff0ef          	jal	4f0 <enemy_init>
     5e4:	0e4000ef          	jal	6c8 <set_gamemap>
     5e8:	00812403          	lw	s0,8(sp)
     5ec:	00c12083          	lw	ra,12(sp)
     5f0:	03c00513          	li	a0,60
     5f4:	01010113          	addi	sp,sp,16
     5f8:	1e10106f          	j	1fd8 <timer_init>

000005fc <game_update>:
     5fc:	ff010113          	addi	sp,sp,-16
     600:	00812423          	sw	s0,8(sp)
     604:	00003437          	lui	s0,0x3
     608:	3d042783          	lw	a5,976(s0) # 33d0 <game_state>
     60c:	00112623          	sw	ra,12(sp)
     610:	06078a63          	beqz	a5,684 <game_update+0x88>
     614:	00200713          	li	a4,2
     618:	00e78a63          	beq	a5,a4,62c <game_update+0x30>
     61c:	00c12083          	lw	ra,12(sp)
     620:	00812403          	lw	s0,8(sp)
     624:	01010113          	addi	sp,sp,16
     628:	00008067          	ret
     62c:	01212023          	sw	s2,0(sp)
     630:	00003937          	lui	s2,0x3
     634:	00912223          	sw	s1,4(sp)
     638:	39890493          	addi	s1,s2,920 # 3398 <player>
     63c:	01c4a783          	lw	a5,28(s1)
     640:	06f05e63          	blez	a5,6bc <game_update+0xc0>
     644:	39890513          	addi	a0,s2,920
     648:	031010ef          	jal	1e78 <handle_input>
     64c:	02048493          	addi	s1,s1,32
     650:	00048513          	mv	a0,s1
     654:	ecdff0ef          	jal	520 <state_mode_enemy>
     658:	00048513          	mv	a0,s1
     65c:	f21ff0ef          	jal	57c <enemy_render>
     660:	39890513          	addi	a0,s2,920
     664:	0b9010ef          	jal	1f1c <player_update>
     668:	00812403          	lw	s0,8(sp)
     66c:	00412483          	lw	s1,4(sp)
     670:	00c12083          	lw	ra,12(sp)
     674:	39890513          	addi	a0,s2,920
     678:	00012903          	lw	s2,0(sp)
     67c:	01010113          	addi	sp,sp,16
     680:	0b10106f          	j	1f30 <player_render>
     684:	0e9010ef          	jal	1f6c <draw_start_screen>
     688:	7e0010ef          	jal	1e68 <get_sw>
     68c:	f80508e3          	beqz	a0,61c <game_update+0x20>
     690:	00000513          	li	a0,0
     694:	00200793          	li	a5,2
     698:	3cf42823          	sw	a5,976(s0)
     69c:	78c010ef          	jal	1e28 <fill_display>
     6a0:	028000ef          	jal	6c8 <set_gamemap>
     6a4:	00812403          	lw	s0,8(sp)
     6a8:	00c12083          	lw	ra,12(sp)
     6ac:	00003537          	lui	a0,0x3
     6b0:	39850513          	addi	a0,a0,920 # 3398 <player>
     6b4:	01010113          	addi	sp,sp,16
     6b8:	0790106f          	j	1f30 <player_render>
     6bc:	00300793          	li	a5,3
     6c0:	3cf42823          	sw	a5,976(s0)
     6c4:	f81ff06f          	j	644 <game_update+0x48>

000006c8 <set_gamemap>:
     6c8:	fe010113          	addi	sp,sp,-32
     6cc:	01412423          	sw	s4,8(sp)
     6d0:	01512223          	sw	s5,4(sp)
     6d4:	00002a37          	lui	s4,0x2
     6d8:	00001ab7          	lui	s5,0x1
     6dc:	0c8a0a13          	addi	s4,s4,200 # 20c8 <map>
     6e0:	2c0a8a93          	addi	s5,s5,704 # 12c0 <__heap_size+0xac0>
     6e4:	01212823          	sw	s2,16(sp)
     6e8:	01312623          	sw	s3,12(sp)
     6ec:	00112e23          	sw	ra,28(sp)
     6f0:	00812c23          	sw	s0,24(sp)
     6f4:	00912a23          	sw	s1,20(sp)
     6f8:	015a0ab3          	add	s5,s4,s5
     6fc:	00000913          	li	s2,0
     700:	02800993          	li	s3,40
     704:	000a0493          	mv	s1,s4
     708:	00000413          	li	s0,0
     70c:	0004a603          	lw	a2,0(s1)
     710:	00040513          	mv	a0,s0
     714:	00090593          	mv	a1,s2
     718:	00140413          	addi	s0,s0,1
     71c:	09c000ef          	jal	7b8 <draw_tile>
     720:	00448493          	addi	s1,s1,4
     724:	ff3414e3          	bne	s0,s3,70c <set_gamemap+0x44>
     728:	0a0a0a13          	addi	s4,s4,160
     72c:	00190913          	addi	s2,s2,1
     730:	fd5a1ae3          	bne	s4,s5,704 <set_gamemap+0x3c>
     734:	01c12083          	lw	ra,28(sp)
     738:	01812403          	lw	s0,24(sp)
     73c:	01412483          	lw	s1,20(sp)
     740:	01012903          	lw	s2,16(sp)
     744:	00c12983          	lw	s3,12(sp)
     748:	00812a03          	lw	s4,8(sp)
     74c:	00412a83          	lw	s5,4(sp)
     750:	02010113          	addi	sp,sp,32
     754:	00008067          	ret

00000758 <vga_init>:
     758:	00013537          	lui	a0,0x13
     75c:	14000693          	li	a3,320
     760:	00000593          	li	a1,0
     764:	00003637          	lui	a2,0x3
     768:	d4050513          	addi	a0,a0,-704 # 12d40 <__global_pointer+0xf1b8>
     76c:	00058793          	mv	a5,a1
     770:	38c62703          	lw	a4,908(a2) # 338c <vga_buffer>
     774:	00f70733          	add	a4,a4,a5
     778:	00070023          	sb	zero,0(a4)
     77c:	00178793          	addi	a5,a5,1
     780:	fed798e3          	bne	a5,a3,770 <vga_init+0x18>
     784:	14078693          	addi	a3,a5,320
     788:	14058593          	addi	a1,a1,320
     78c:	fea690e3          	bne	a3,a0,76c <vga_init+0x14>
     790:	00008067          	ret

00000794 <set_pixel>:
     794:	00259793          	slli	a5,a1,0x2
     798:	00003737          	lui	a4,0x3
     79c:	38c72703          	lw	a4,908(a4) # 338c <vga_buffer>
     7a0:	00b785b3          	add	a1,a5,a1
     7a4:	00659593          	slli	a1,a1,0x6
     7a8:	00a585b3          	add	a1,a1,a0
     7ac:	00b70733          	add	a4,a4,a1
     7b0:	00c70023          	sb	a2,0(a4)
     7b4:	00008067          	ret

000007b8 <draw_tile>:
     7b8:	00600793          	li	a5,6
     7bc:	00c7f463          	bgeu	a5,a2,7c4 <draw_tile+0xc>
     7c0:	43c0106f          	j	1bfc <__heap_size+0x13fc>
     7c4:	000037b7          	lui	a5,0x3
     7c8:	3f478793          	addi	a5,a5,1012 # 33f4 <CSWTCH.18+0x10>
     7cc:	00261613          	slli	a2,a2,0x2
     7d0:	00f60633          	add	a2,a2,a5
     7d4:	00062783          	lw	a5,0(a2)
     7d8:	fb010113          	addi	sp,sp,-80
     7dc:	00351513          	slli	a0,a0,0x3
     7e0:	00359713          	slli	a4,a1,0x3
     7e4:	00078067          	jr	a5
     7e8:	00170793          	addi	a5,a4,1
     7ec:	00279693          	slli	a3,a5,0x2
     7f0:	00003737          	lui	a4,0x3
     7f4:	00f686b3          	add	a3,a3,a5
     7f8:	38c72603          	lw	a2,908(a4) # 338c <vga_buffer>
     7fc:	00669693          	slli	a3,a3,0x6
     800:	00350813          	addi	a6,a0,3
     804:	28068893          	addi	a7,a3,640
     808:	05212223          	sw	s2,68(sp)
     80c:	01180933          	add	s2,a6,a7
     810:	01f00793          	li	a5,31
     814:	04812623          	sw	s0,76(sp)
     818:	04912423          	sw	s1,72(sp)
     81c:	05312023          	sw	s3,64(sp)
     820:	03412e23          	sw	s4,60(sp)
     824:	03512c23          	sw	s5,56(sp)
     828:	03612a23          	sw	s6,52(sp)
     82c:	03712823          	sw	s7,48(sp)
     830:	03812623          	sw	s8,44(sp)
     834:	03912423          	sw	s9,40(sp)
     838:	03a12223          	sw	s10,36(sp)
     83c:	03b12023          	sw	s11,32(sp)
     840:	01260633          	add	a2,a2,s2
     844:	00f60023          	sb	a5,0(a2)
     848:	38c72603          	lw	a2,908(a4)
     84c:	00450d13          	addi	s10,a0,4
     850:	011d04b3          	add	s1,s10,a7
     854:	00960633          	add	a2,a2,s1
     858:	00f60023          	sb	a5,0(a2)
     85c:	38c72303          	lw	t1,908(a4)
     860:	00550613          	addi	a2,a0,5
     864:	01160433          	add	s0,a2,a7
     868:	00830333          	add	t1,t1,s0
     86c:	00f30023          	sb	a5,0(t1)
     870:	38c72303          	lw	t1,908(a4)
     874:	00650f13          	addi	t5,a0,6
     878:	01e88e33          	add	t3,a7,t5
     87c:	01c30333          	add	t1,t1,t3
     880:	00f30023          	sb	a5,0(t1)
     884:	38c72303          	lw	t1,908(a4)
     888:	00750e93          	addi	t4,a0,7
     88c:	01d88e33          	add	t3,a7,t4
     890:	01c30333          	add	t1,t1,t3
     894:	00f30023          	sb	a5,0(t1)
     898:	38c72303          	lw	t1,908(a4)
     89c:	00850513          	addi	a0,a0,8
     8a0:	00a888b3          	add	a7,a7,a0
     8a4:	011308b3          	add	a7,t1,a7
     8a8:	00f88023          	sb	a5,0(a7)
     8ac:	00259893          	slli	a7,a1,0x2
     8b0:	38c72303          	lw	t1,908(a4)
     8b4:	00b888b3          	add	a7,a7,a1
     8b8:	00989893          	slli	a7,a7,0x9
     8bc:	01180cb3          	add	s9,a6,a7
     8c0:	019305b3          	add	a1,t1,s9
     8c4:	00f58023          	sb	a5,0(a1)
     8c8:	38c72583          	lw	a1,908(a4)
     8cc:	011d0c33          	add	s8,s10,a7
     8d0:	011608b3          	add	a7,a2,a7
     8d4:	018585b3          	add	a1,a1,s8
     8d8:	00f58023          	sb	a5,0(a1)
     8dc:	38c72583          	lw	a1,908(a4)
     8e0:	00d80bb3          	add	s7,a6,a3
     8e4:	00dd0b33          	add	s6,s10,a3
     8e8:	011585b3          	add	a1,a1,a7
     8ec:	00f58023          	sb	a5,0(a1)
     8f0:	38c72583          	lw	a1,908(a4)
     8f4:	00d60ab3          	add	s5,a2,a3
     8f8:	14068e13          	addi	t3,a3,320
     8fc:	017585b3          	add	a1,a1,s7
     900:	00f58023          	sb	a5,0(a1)
     904:	38c72583          	lw	a1,908(a4)
     908:	01c80a33          	add	s4,a6,t3
     90c:	01cd09b3          	add	s3,s10,t3
     910:	016585b3          	add	a1,a1,s6
     914:	00f58023          	sb	a5,0(a1)
     918:	38c72583          	lw	a1,908(a4)
     91c:	01c60e33          	add	t3,a2,t3
     920:	3c068313          	addi	t1,a3,960
     924:	015585b3          	add	a1,a1,s5
     928:	00f58023          	sb	a5,0(a1)
     92c:	38c72583          	lw	a1,908(a4)
     930:	006803b3          	add	t2,a6,t1
     934:	50068693          	addi	a3,a3,1280
     938:	014585b3          	add	a1,a1,s4
     93c:	00f58023          	sb	a5,0(a1)
     940:	38c72583          	lw	a1,908(a4)
     944:	006d02b3          	add	t0,s10,t1
     948:	00660fb3          	add	t6,a2,t1
     94c:	013585b3          	add	a1,a1,s3
     950:	00f58023          	sb	a5,0(a1)
     954:	38c72d83          	lw	s11,908(a4)
     958:	00dd05b3          	add	a1,s10,a3
     95c:	00d80833          	add	a6,a6,a3
     960:	01cd8db3          	add	s11,s11,t3
     964:	00fd8023          	sb	a5,0(s11)
     968:	38c72d83          	lw	s11,908(a4)
     96c:	00d60633          	add	a2,a2,a3
     970:	01e30d33          	add	s10,t1,t5
     974:	012d8db3          	add	s11,s11,s2
     978:	00fd8023          	sb	a5,0(s11)
     97c:	38c72d83          	lw	s11,908(a4)
     980:	00df0f33          	add	t5,t5,a3
     984:	01b12223          	sw	s11,4(sp)
     988:	01d30db3          	add	s11,t1,t4
     98c:	01b12423          	sw	s11,8(sp)
     990:	00412d83          	lw	s11,4(sp)
     994:	00a30333          	add	t1,t1,a0
     998:	00de8eb3          	add	t4,t4,a3
     99c:	009d8db3          	add	s11,s11,s1
     9a0:	00fd8023          	sb	a5,0(s11)
     9a4:	38c72d83          	lw	s11,908(a4)
     9a8:	00a686b3          	add	a3,a3,a0
     9ac:	008d8db3          	add	s11,s11,s0
     9b0:	00fd8023          	sb	a5,0(s11)
     9b4:	38c72d83          	lw	s11,908(a4)
     9b8:	007d8db3          	add	s11,s11,t2
     9bc:	00fd8023          	sb	a5,0(s11)
     9c0:	38c72503          	lw	a0,908(a4)
     9c4:	00550533          	add	a0,a0,t0
     9c8:	00f50023          	sb	a5,0(a0)
     9cc:	38c72503          	lw	a0,908(a4)
     9d0:	01f50533          	add	a0,a0,t6
     9d4:	00f50023          	sb	a5,0(a0)
     9d8:	38c72503          	lw	a0,908(a4)
     9dc:	01050533          	add	a0,a0,a6
     9e0:	00f50023          	sb	a5,0(a0)
     9e4:	38c72503          	lw	a0,908(a4)
     9e8:	00b50533          	add	a0,a0,a1
     9ec:	00f50023          	sb	a5,0(a0)
     9f0:	38c72503          	lw	a0,908(a4)
     9f4:	00c50533          	add	a0,a0,a2
     9f8:	00f50023          	sb	a5,0(a0)
     9fc:	38c72503          	lw	a0,908(a4)
     a00:	00750533          	add	a0,a0,t2
     a04:	00f50023          	sb	a5,0(a0)
     a08:	38c72503          	lw	a0,908(a4)
     a0c:	00812d83          	lw	s11,8(sp)
     a10:	00550533          	add	a0,a0,t0
     a14:	00f50023          	sb	a5,0(a0)
     a18:	38c72503          	lw	a0,908(a4)
     a1c:	01f50533          	add	a0,a0,t6
     a20:	00f50023          	sb	a5,0(a0)
     a24:	38c72503          	lw	a0,908(a4)
     a28:	01a50533          	add	a0,a0,s10
     a2c:	00f50023          	sb	a5,0(a0)
     a30:	38c72503          	lw	a0,908(a4)
     a34:	01b50533          	add	a0,a0,s11
     a38:	00f50023          	sb	a5,0(a0)
     a3c:	38c72503          	lw	a0,908(a4)
     a40:	00650533          	add	a0,a0,t1
     a44:	00f50023          	sb	a5,0(a0)
     a48:	38c72503          	lw	a0,908(a4)
     a4c:	01950533          	add	a0,a0,s9
     a50:	00f50023          	sb	a5,0(a0)
     a54:	38c72503          	lw	a0,908(a4)
     a58:	01850533          	add	a0,a0,s8
     a5c:	00f50023          	sb	a5,0(a0)
     a60:	38c72503          	lw	a0,908(a4)
     a64:	01150533          	add	a0,a0,a7
     a68:	00f50023          	sb	a5,0(a0)
     a6c:	38c72503          	lw	a0,908(a4)
     a70:	01750533          	add	a0,a0,s7
     a74:	00f50023          	sb	a5,0(a0)
     a78:	38c72503          	lw	a0,908(a4)
     a7c:	01650533          	add	a0,a0,s6
     a80:	00f50023          	sb	a5,0(a0)
     a84:	38c72503          	lw	a0,908(a4)
     a88:	01550533          	add	a0,a0,s5
     a8c:	00f50023          	sb	a5,0(a0)
     a90:	38c72503          	lw	a0,908(a4)
     a94:	01450533          	add	a0,a0,s4
     a98:	00f50023          	sb	a5,0(a0)
     a9c:	38c72503          	lw	a0,908(a4)
     aa0:	01350533          	add	a0,a0,s3
     aa4:	00f50023          	sb	a5,0(a0)
     aa8:	38c72503          	lw	a0,908(a4)
     aac:	01c50533          	add	a0,a0,t3
     ab0:	00f50023          	sb	a5,0(a0)
     ab4:	38c72503          	lw	a0,908(a4)
     ab8:	01250533          	add	a0,a0,s2
     abc:	00f50023          	sb	a5,0(a0)
     ac0:	38c72503          	lw	a0,908(a4)
     ac4:	00950533          	add	a0,a0,s1
     ac8:	00f50023          	sb	a5,0(a0)
     acc:	38c72503          	lw	a0,908(a4)
     ad0:	00850533          	add	a0,a0,s0
     ad4:	00f50023          	sb	a5,0(a0)
     ad8:	38c72503          	lw	a0,908(a4)
     adc:	00750533          	add	a0,a0,t2
     ae0:	00f50023          	sb	a5,0(a0)
     ae4:	38c72503          	lw	a0,908(a4)
     ae8:	00550533          	add	a0,a0,t0
     aec:	00f50023          	sb	a5,0(a0)
     af0:	38c72503          	lw	a0,908(a4)
     af4:	01f50533          	add	a0,a0,t6
     af8:	00f50023          	sb	a5,0(a0)
     afc:	38c72503          	lw	a0,908(a4)
     b00:	01050533          	add	a0,a0,a6
     b04:	00f50023          	sb	a5,0(a0)
     b08:	38c72503          	lw	a0,908(a4)
     b0c:	00b50533          	add	a0,a0,a1
     b10:	00f50023          	sb	a5,0(a0)
     b14:	38c72503          	lw	a0,908(a4)
     b18:	00c50533          	add	a0,a0,a2
     b1c:	00f50023          	sb	a5,0(a0)
     b20:	38c72503          	lw	a0,908(a4)
     b24:	01050533          	add	a0,a0,a6
     b28:	00f50023          	sb	a5,0(a0)
     b2c:	38c72503          	lw	a0,908(a4)
     b30:	00b50533          	add	a0,a0,a1
     b34:	00f50023          	sb	a5,0(a0)
     b38:	38c72503          	lw	a0,908(a4)
     b3c:	00c50533          	add	a0,a0,a2
     b40:	00f50023          	sb	a5,0(a0)
     b44:	38c72503          	lw	a0,908(a4)
     b48:	01e50533          	add	a0,a0,t5
     b4c:	00f50023          	sb	a5,0(a0)
     b50:	38c72503          	lw	a0,908(a4)
     b54:	01d50533          	add	a0,a0,t4
     b58:	00f50023          	sb	a5,0(a0)
     b5c:	38c72503          	lw	a0,908(a4)
     b60:	00d506b3          	add	a3,a0,a3
     b64:	00f68023          	sb	a5,0(a3)
     b68:	38c72683          	lw	a3,908(a4)
     b6c:	019686b3          	add	a3,a3,s9
     b70:	00f68023          	sb	a5,0(a3)
     b74:	38c72683          	lw	a3,908(a4)
     b78:	018686b3          	add	a3,a3,s8
     b7c:	00f68023          	sb	a5,0(a3)
     b80:	38c72683          	lw	a3,908(a4)
     b84:	011686b3          	add	a3,a3,a7
     b88:	00f68023          	sb	a5,0(a3)
     b8c:	38c72683          	lw	a3,908(a4)
     b90:	017686b3          	add	a3,a3,s7
     b94:	00f68023          	sb	a5,0(a3)
     b98:	38c72683          	lw	a3,908(a4)
     b9c:	016686b3          	add	a3,a3,s6
     ba0:	00f68023          	sb	a5,0(a3)
     ba4:	38c72683          	lw	a3,908(a4)
     ba8:	015686b3          	add	a3,a3,s5
     bac:	00f68023          	sb	a5,0(a3)
     bb0:	38c72683          	lw	a3,908(a4)
     bb4:	014686b3          	add	a3,a3,s4
     bb8:	00f68023          	sb	a5,0(a3)
     bbc:	38c72683          	lw	a3,908(a4)
     bc0:	013686b3          	add	a3,a3,s3
     bc4:	00f68023          	sb	a5,0(a3)
     bc8:	38c72683          	lw	a3,908(a4)
     bcc:	01c686b3          	add	a3,a3,t3
     bd0:	00f68023          	sb	a5,0(a3)
     bd4:	38c72683          	lw	a3,908(a4)
     bd8:	012686b3          	add	a3,a3,s2
     bdc:	00f68023          	sb	a5,0(a3)
     be0:	38c72683          	lw	a3,908(a4)
     be4:	009686b3          	add	a3,a3,s1
     be8:	00f68023          	sb	a5,0(a3)
     bec:	38c72683          	lw	a3,908(a4)
     bf0:	008686b3          	add	a3,a3,s0
     bf4:	00f68023          	sb	a5,0(a3)
     bf8:	38c72683          	lw	a3,908(a4)
     bfc:	007686b3          	add	a3,a3,t2
     c00:	00f68023          	sb	a5,0(a3)
     c04:	38c72683          	lw	a3,908(a4)
     c08:	005686b3          	add	a3,a3,t0
     c0c:	00f68023          	sb	a5,0(a3)
     c10:	38c72683          	lw	a3,908(a4)
     c14:	01f686b3          	add	a3,a3,t6
     c18:	00f68023          	sb	a5,0(a3)
     c1c:	38c72683          	lw	a3,908(a4)
     c20:	010686b3          	add	a3,a3,a6
     c24:	00f68023          	sb	a5,0(a3)
     c28:	38c72683          	lw	a3,908(a4)
     c2c:	00b686b3          	add	a3,a3,a1
     c30:	00f68023          	sb	a5,0(a3)
     c34:	38c72703          	lw	a4,908(a4)
     c38:	00c70733          	add	a4,a4,a2
     c3c:	00f70023          	sb	a5,0(a4)
     c40:	04c12403          	lw	s0,76(sp)
     c44:	04812483          	lw	s1,72(sp)
     c48:	04412903          	lw	s2,68(sp)
     c4c:	04012983          	lw	s3,64(sp)
     c50:	03c12a03          	lw	s4,60(sp)
     c54:	03812a83          	lw	s5,56(sp)
     c58:	03412b03          	lw	s6,52(sp)
     c5c:	03012b83          	lw	s7,48(sp)
     c60:	02c12c03          	lw	s8,44(sp)
     c64:	02812c83          	lw	s9,40(sp)
     c68:	02412d03          	lw	s10,36(sp)
     c6c:	02012d83          	lw	s11,32(sp)
     c70:	05010113          	addi	sp,sp,80
     c74:	00008067          	ret
     c78:	00370713          	addi	a4,a4,3
     c7c:	000036b7          	lui	a3,0x3
     c80:	00271793          	slli	a5,a4,0x2
     c84:	38c6a603          	lw	a2,908(a3) # 338c <vga_buffer>
     c88:	00e78733          	add	a4,a5,a4
     c8c:	00671713          	slli	a4,a4,0x6
     c90:	00e50833          	add	a6,a0,a4
     c94:	01f00793          	li	a5,31
     c98:	04812623          	sw	s0,76(sp)
     c9c:	04912423          	sw	s1,72(sp)
     ca0:	05212223          	sw	s2,68(sp)
     ca4:	05312023          	sw	s3,64(sp)
     ca8:	03412e23          	sw	s4,60(sp)
     cac:	03512c23          	sw	s5,56(sp)
     cb0:	03612a23          	sw	s6,52(sp)
     cb4:	01060633          	add	a2,a2,a6
     cb8:	00f60023          	sb	a5,0(a2)
     cbc:	38c6a603          	lw	a2,908(a3)
     cc0:	00150f93          	addi	t6,a0,1
     cc4:	00ef8833          	add	a6,t6,a4
     cc8:	01060633          	add	a2,a2,a6
     ccc:	00f60023          	sb	a5,0(a2)
     cd0:	38c6a603          	lw	a2,908(a3)
     cd4:	00250f13          	addi	t5,a0,2
     cd8:	00ef0833          	add	a6,t5,a4
     cdc:	01060633          	add	a2,a2,a6
     ce0:	00f60023          	sb	a5,0(a2)
     ce4:	38c6a603          	lw	a2,908(a3)
     ce8:	00350313          	addi	t1,a0,3
     cec:	00e30933          	add	s2,t1,a4
     cf0:	01260633          	add	a2,a2,s2
     cf4:	00f60023          	sb	a5,0(a2)
     cf8:	38c6a603          	lw	a2,908(a3)
     cfc:	00450893          	addi	a7,a0,4
     d00:	00e884b3          	add	s1,a7,a4
     d04:	00960633          	add	a2,a2,s1
     d08:	00f60023          	sb	a5,0(a2)
     d0c:	38c6a603          	lw	a2,908(a3)
     d10:	00550e13          	addi	t3,a0,5
     d14:	00ee0433          	add	s0,t3,a4
     d18:	00860633          	add	a2,a2,s0
     d1c:	00f60023          	sb	a5,0(a2)
     d20:	38c6a803          	lw	a6,908(a3)
     d24:	14070613          	addi	a2,a4,320
     d28:	00c50eb3          	add	t4,a0,a2
     d2c:	01d80833          	add	a6,a6,t4
     d30:	00f80023          	sb	a5,0(a6)
     d34:	38c6a803          	lw	a6,908(a3)
     d38:	00cf82b3          	add	t0,t6,a2
     d3c:	00cf0eb3          	add	t4,t5,a2
     d40:	00580833          	add	a6,a6,t0
     d44:	00f80023          	sb	a5,0(a6)
     d48:	38c6a803          	lw	a6,908(a3)
     d4c:	00c303b3          	add	t2,t1,a2
     d50:	00c882b3          	add	t0,a7,a2
     d54:	01d80833          	add	a6,a6,t4
     d58:	00f80023          	sb	a5,0(a6)
     d5c:	38c6ae83          	lw	t4,908(a3)
     d60:	00ce0833          	add	a6,t3,a2
     d64:	28070613          	addi	a2,a4,640
     d68:	007e8eb3          	add	t4,t4,t2
     d6c:	00fe8023          	sb	a5,0(t4)
     d70:	38c6ae83          	lw	t4,908(a3)
     d74:	00c50533          	add	a0,a0,a2
     d78:	00660a33          	add	s4,a2,t1
     d7c:	005e8eb3          	add	t4,t4,t0
     d80:	00fe8023          	sb	a5,0(t4)
     d84:	38c6ae83          	lw	t4,908(a3)
     d88:	011609b3          	add	s3,a2,a7
     d8c:	01f60fb3          	add	t6,a2,t6
     d90:	010e8eb3          	add	t4,t4,a6
     d94:	00fe8023          	sb	a5,0(t4)
     d98:	38c6aa83          	lw	s5,908(a3)
     d9c:	01e60f33          	add	t5,a2,t5
     da0:	01c60eb3          	add	t4,a2,t3
     da4:	00aa8633          	add	a2,s5,a0
     da8:	00f60023          	sb	a5,0(a2)
     dac:	38c6a503          	lw	a0,908(a3)
     db0:	00259613          	slli	a2,a1,0x2
     db4:	00b60633          	add	a2,a2,a1
     db8:	01f505b3          	add	a1,a0,t6
     dbc:	00f58023          	sb	a5,0(a1)
     dc0:	38c6a583          	lw	a1,908(a3)
     dc4:	00961613          	slli	a2,a2,0x9
     dc8:	00c30b33          	add	s6,t1,a2
     dcc:	01e585b3          	add	a1,a1,t5
     dd0:	00f58023          	sb	a5,0(a1)
     dd4:	38c6a583          	lw	a1,908(a3)
     dd8:	00c88ab3          	add	s5,a7,a2
     ddc:	00ce0633          	add	a2,t3,a2
     de0:	014585b3          	add	a1,a1,s4
     de4:	00f58023          	sb	a5,0(a1)
     de8:	38c6a503          	lw	a0,908(a3)
     dec:	d8070593          	addi	a1,a4,-640
     df0:	00b30fb3          	add	t6,t1,a1
     df4:	01350533          	add	a0,a0,s3
     df8:	00f50023          	sb	a5,0(a0)
     dfc:	38c6a503          	lw	a0,908(a3)
     e00:	00b88f33          	add	t5,a7,a1
     e04:	00be05b3          	add	a1,t3,a1
     e08:	01d50533          	add	a0,a0,t4
     e0c:	00f50023          	sb	a5,0(a0)
     e10:	38c6a503          	lw	a0,908(a3)
     e14:	ec070713          	addi	a4,a4,-320
     e18:	00e30333          	add	t1,t1,a4
     e1c:	01650533          	add	a0,a0,s6
     e20:	00f50023          	sb	a5,0(a0)
     e24:	38c6a503          	lw	a0,908(a3)
     e28:	00e888b3          	add	a7,a7,a4
     e2c:	00ee0733          	add	a4,t3,a4
     e30:	01550533          	add	a0,a0,s5
     e34:	00f50023          	sb	a5,0(a0)
     e38:	38c6a503          	lw	a0,908(a3)
     e3c:	00c50633          	add	a2,a0,a2
     e40:	00f60023          	sb	a5,0(a2)
     e44:	38c6a603          	lw	a2,908(a3)
     e48:	01f60633          	add	a2,a2,t6
     e4c:	00f60023          	sb	a5,0(a2)
     e50:	38c6a603          	lw	a2,908(a3)
     e54:	01e60633          	add	a2,a2,t5
     e58:	00f60023          	sb	a5,0(a2)
     e5c:	38c6a603          	lw	a2,908(a3)
     e60:	00b60633          	add	a2,a2,a1
     e64:	00f60023          	sb	a5,0(a2)
     e68:	38c6a603          	lw	a2,908(a3)
     e6c:	00660633          	add	a2,a2,t1
     e70:	00f60023          	sb	a5,0(a2)
     e74:	38c6a603          	lw	a2,908(a3)
     e78:	01160633          	add	a2,a2,a7
     e7c:	00f60023          	sb	a5,0(a2)
     e80:	38c6a603          	lw	a2,908(a3)
     e84:	00e60733          	add	a4,a2,a4
     e88:	00f70023          	sb	a5,0(a4)
     e8c:	38c6a703          	lw	a4,908(a3)
     e90:	01270733          	add	a4,a4,s2
     e94:	00f70023          	sb	a5,0(a4)
     e98:	38c6a703          	lw	a4,908(a3)
     e9c:	00970733          	add	a4,a4,s1
     ea0:	00f70023          	sb	a5,0(a4)
     ea4:	38c6a703          	lw	a4,908(a3)
     ea8:	00870733          	add	a4,a4,s0
     eac:	00f70023          	sb	a5,0(a4)
     eb0:	38c6a703          	lw	a4,908(a3)
     eb4:	00770733          	add	a4,a4,t2
     eb8:	00f70023          	sb	a5,0(a4)
     ebc:	38c6a703          	lw	a4,908(a3)
     ec0:	00570733          	add	a4,a4,t0
     ec4:	00f70023          	sb	a5,0(a4)
     ec8:	38c6a703          	lw	a4,908(a3)
     ecc:	01070733          	add	a4,a4,a6
     ed0:	00f70023          	sb	a5,0(a4)
     ed4:	38c6a703          	lw	a4,908(a3)
     ed8:	01470733          	add	a4,a4,s4
     edc:	00f70023          	sb	a5,0(a4)
     ee0:	38c6a703          	lw	a4,908(a3)
     ee4:	01370733          	add	a4,a4,s3
     ee8:	00f70023          	sb	a5,0(a4)
     eec:	38c6a703          	lw	a4,908(a3)
     ef0:	01d70733          	add	a4,a4,t4
     ef4:	00f70023          	sb	a5,0(a4)
     ef8:	04c12403          	lw	s0,76(sp)
     efc:	04812483          	lw	s1,72(sp)
     f00:	04412903          	lw	s2,68(sp)
     f04:	04012983          	lw	s3,64(sp)
     f08:	03c12a03          	lw	s4,60(sp)
     f0c:	03812a83          	lw	s5,56(sp)
     f10:	03412b03          	lw	s6,52(sp)
     f14:	05010113          	addi	sp,sp,80
     f18:	00008067          	ret
     f1c:	000037b7          	lui	a5,0x3
     f20:	00259613          	slli	a2,a1,0x2
     f24:	38c7a683          	lw	a3,908(a5) # 338c <vga_buffer>
     f28:	00b605b3          	add	a1,a2,a1
     f2c:	00959593          	slli	a1,a1,0x9
     f30:	00b50633          	add	a2,a0,a1
     f34:	04812623          	sw	s0,76(sp)
     f38:	04912423          	sw	s1,72(sp)
     f3c:	05212223          	sw	s2,68(sp)
     f40:	05312023          	sw	s3,64(sp)
     f44:	03412e23          	sw	s4,60(sp)
     f48:	03512c23          	sw	s5,56(sp)
     f4c:	03612a23          	sw	s6,52(sp)
     f50:	03712823          	sw	s7,48(sp)
     f54:	03812623          	sw	s8,44(sp)
     f58:	03912423          	sw	s9,40(sp)
     f5c:	03a12223          	sw	s10,36(sp)
     f60:	03b12023          	sw	s11,32(sp)
     f64:	00c686b3          	add	a3,a3,a2
     f68:	00068023          	sb	zero,0(a3)
     f6c:	38c7a683          	lw	a3,908(a5)
     f70:	00150e13          	addi	t3,a0,1
     f74:	00be0633          	add	a2,t3,a1
     f78:	00c686b3          	add	a3,a3,a2
     f7c:	00068023          	sb	zero,0(a3)
     f80:	38c7a683          	lw	a3,908(a5)
     f84:	00250313          	addi	t1,a0,2
     f88:	00b30633          	add	a2,t1,a1
     f8c:	00c686b3          	add	a3,a3,a2
     f90:	00068023          	sb	zero,0(a3)
     f94:	38c7a683          	lw	a3,908(a5)
     f98:	00350893          	addi	a7,a0,3
     f9c:	00b88633          	add	a2,a7,a1
     fa0:	00c686b3          	add	a3,a3,a2
     fa4:	00068023          	sb	zero,0(a3)
     fa8:	38c7a683          	lw	a3,908(a5)
     fac:	00450813          	addi	a6,a0,4
     fb0:	00b80633          	add	a2,a6,a1
     fb4:	00c686b3          	add	a3,a3,a2
     fb8:	00068023          	sb	zero,0(a3)
     fbc:	38c7a683          	lw	a3,908(a5)
     fc0:	00550613          	addi	a2,a0,5
     fc4:	00b60eb3          	add	t4,a2,a1
     fc8:	01d686b3          	add	a3,a3,t4
     fcc:	00068023          	sb	zero,0(a3)
     fd0:	38c7ae83          	lw	t4,908(a5)
     fd4:	00650693          	addi	a3,a0,6
     fd8:	00b68f33          	add	t5,a3,a1
     fdc:	01ee8eb3          	add	t4,t4,t5
     fe0:	000e8023          	sb	zero,0(t4)
     fe4:	38c7ae83          	lw	t4,908(a5)
     fe8:	00750f13          	addi	t5,a0,7
     fec:	00bf05b3          	add	a1,t5,a1
     ff0:	00170f93          	addi	t6,a4,1
     ff4:	00be85b3          	add	a1,t4,a1
     ff8:	00058023          	sb	zero,0(a1)
     ffc:	002f9713          	slli	a4,t6,0x2
    1000:	38c7a583          	lw	a1,908(a5)
    1004:	01f70733          	add	a4,a4,t6
    1008:	00671713          	slli	a4,a4,0x6
    100c:	00e50eb3          	add	t4,a0,a4
    1010:	01d585b3          	add	a1,a1,t4
    1014:	00058023          	sb	zero,0(a1)
    1018:	38c7a583          	lw	a1,908(a5)
    101c:	00ee0eb3          	add	t4,t3,a4
    1020:	00e302b3          	add	t0,t1,a4
    1024:	01d585b3          	add	a1,a1,t4
    1028:	00058023          	sb	zero,0(a1)
    102c:	38c7a583          	lw	a1,908(a5)
    1030:	00e88fb3          	add	t6,a7,a4
    1034:	00e80eb3          	add	t4,a6,a4
    1038:	005585b3          	add	a1,a1,t0
    103c:	00058023          	sb	zero,0(a1)
    1040:	38c7a583          	lw	a1,908(a5)
    1044:	00e604b3          	add	s1,a2,a4
    1048:	00e68433          	add	s0,a3,a4
    104c:	01f585b3          	add	a1,a1,t6
    1050:	00058023          	sb	zero,0(a1)
    1054:	38c7a583          	lw	a1,908(a5)
    1058:	00ef03b3          	add	t2,t5,a4
    105c:	14070f93          	addi	t6,a4,320
    1060:	01d585b3          	add	a1,a1,t4
    1064:	00058023          	sb	zero,0(a1)
    1068:	38c7a583          	lw	a1,908(a5)
    106c:	01f50eb3          	add	t4,a0,t6
    1070:	01fe02b3          	add	t0,t3,t6
    1074:	009585b3          	add	a1,a1,s1
    1078:	00058023          	sb	zero,0(a1)
    107c:	38c7a583          	lw	a1,908(a5)
    1080:	01f30ab3          	add	s5,t1,t6
    1084:	01f88a33          	add	s4,a7,t6
    1088:	008585b3          	add	a1,a1,s0
    108c:	00058023          	sb	zero,0(a1)
    1090:	38c7a583          	lw	a1,908(a5)
    1094:	01f804b3          	add	s1,a6,t6
    1098:	01f609b3          	add	s3,a2,t6
    109c:	007585b3          	add	a1,a1,t2
    10a0:	00058023          	sb	zero,0(a1)
    10a4:	38c7a583          	lw	a1,908(a5)
    10a8:	01f68933          	add	s2,a3,t6
    10ac:	01ff0fb3          	add	t6,t5,t6
    10b0:	01d585b3          	add	a1,a1,t4
    10b4:	00058023          	sb	zero,0(a1)
    10b8:	38c7a583          	lw	a1,908(a5)
    10bc:	28070e93          	addi	t4,a4,640
    10c0:	00ae8433          	add	s0,t4,a0
    10c4:	005585b3          	add	a1,a1,t0
    10c8:	00058023          	sb	zero,0(a1)
    10cc:	38c7a583          	lw	a1,908(a5)
    10d0:	01ce83b3          	add	t2,t4,t3
    10d4:	006e82b3          	add	t0,t4,t1
    10d8:	015585b3          	add	a1,a1,s5
    10dc:	00058023          	sb	zero,0(a1)
    10e0:	38c7a583          	lw	a1,908(a5)
    10e4:	011e8db3          	add	s11,t4,a7
    10e8:	010e8d33          	add	s10,t4,a6
    10ec:	014585b3          	add	a1,a1,s4
    10f0:	00058023          	sb	zero,0(a1)
    10f4:	38c7a583          	lw	a1,908(a5)
    10f8:	00ce8cb3          	add	s9,t4,a2
    10fc:	00de8c33          	add	s8,t4,a3
    1100:	009585b3          	add	a1,a1,s1
    1104:	00058023          	sb	zero,0(a1)
    1108:	38c7a483          	lw	s1,908(a5)
    110c:	3c070593          	addi	a1,a4,960
    1110:	00b50bb3          	add	s7,a0,a1
    1114:	013484b3          	add	s1,s1,s3
    1118:	00048023          	sb	zero,0(s1)
    111c:	38c7a483          	lw	s1,908(a5)
    1120:	01c58b33          	add	s6,a1,t3
    1124:	00658ab3          	add	s5,a1,t1
    1128:	012484b3          	add	s1,s1,s2
    112c:	00048023          	sb	zero,0(s1)
    1130:	38c7a483          	lw	s1,908(a5)
    1134:	01158a33          	add	s4,a1,a7
    1138:	010589b3          	add	s3,a1,a6
    113c:	01f48fb3          	add	t6,s1,t6
    1140:	000f8023          	sb	zero,0(t6)
    1144:	38c7af83          	lw	t6,908(a5)
    1148:	00c58933          	add	s2,a1,a2
    114c:	00b684b3          	add	s1,a3,a1
    1150:	008f8fb3          	add	t6,t6,s0
    1154:	000f8023          	sb	zero,0(t6)
    1158:	38c7af83          	lw	t6,908(a5)
    115c:	01e585b3          	add	a1,a1,t5
    1160:	00b12223          	sw	a1,4(sp)
    1164:	007f8fb3          	add	t6,t6,t2
    1168:	000f8023          	sb	zero,0(t6)
    116c:	38c7a383          	lw	t2,908(a5)
    1170:	01ee8eb3          	add	t4,t4,t5
    1174:	50070f93          	addi	t6,a4,1280
    1178:	005382b3          	add	t0,t2,t0
    117c:	00028023          	sb	zero,0(t0)
    1180:	38c7a283          	lw	t0,908(a5)
    1184:	006f85b3          	add	a1,t6,t1
    1188:	00b12423          	sw	a1,8(sp)
    118c:	01b282b3          	add	t0,t0,s11
    1190:	00028023          	sb	zero,0(t0)
    1194:	38c7a283          	lw	t0,908(a5)
    1198:	010f85b3          	add	a1,t6,a6
    119c:	01f50433          	add	s0,a0,t6
    11a0:	01a282b3          	add	t0,t0,s10
    11a4:	00028023          	sb	zero,0(t0)
    11a8:	38c7a283          	lw	t0,908(a5)
    11ac:	01cf83b3          	add	t2,t6,t3
    11b0:	011f8db3          	add	s11,t6,a7
    11b4:	019282b3          	add	t0,t0,s9
    11b8:	00028023          	sb	zero,0(t0)
    11bc:	38c7a283          	lw	t0,908(a5)
    11c0:	00cf8d33          	add	s10,t6,a2
    11c4:	01ef8cb3          	add	s9,t6,t5
    11c8:	018282b3          	add	t0,t0,s8
    11cc:	00028023          	sb	zero,0(t0)
    11d0:	38c7a283          	lw	t0,908(a5)
    11d4:	00b12623          	sw	a1,12(sp)
    11d8:	01f685b3          	add	a1,a3,t6
    11dc:	01d282b3          	add	t0,t0,t4
    11e0:	00028023          	sb	zero,0(t0)
    11e4:	38c7ae83          	lw	t4,908(a5)
    11e8:	64070f93          	addi	t6,a4,1600
    11ec:	01f302b3          	add	t0,t1,t6
    11f0:	017e8eb3          	add	t4,t4,s7
    11f4:	000e8023          	sb	zero,0(t4)
    11f8:	38c7ae83          	lw	t4,908(a5)
    11fc:	00b12823          	sw	a1,16(sp)
    1200:	00512c23          	sw	t0,24(sp)
    1204:	016e8eb3          	add	t4,t4,s6
    1208:	000e8023          	sb	zero,0(t4)
    120c:	38c7ab03          	lw	s6,908(a5)
    1210:	01fe05b3          	add	a1,t3,t6
    1214:	01f882b3          	add	t0,a7,t6
    1218:	015b0ab3          	add	s5,s6,s5
    121c:	000a8023          	sb	zero,0(s5)
    1220:	38c7aa83          	lw	s5,908(a5)
    1224:	00b12a23          	sw	a1,20(sp)
    1228:	00512e23          	sw	t0,28(sp)
    122c:	014a8a33          	add	s4,s5,s4
    1230:	000a0023          	sb	zero,0(s4)
    1234:	38c7aa03          	lw	s4,908(a5)
    1238:	78070713          	addi	a4,a4,1920
    123c:	01f50c33          	add	s8,a0,t6
    1240:	013a09b3          	add	s3,s4,s3
    1244:	00098023          	sb	zero,0(s3)
    1248:	38c7a983          	lw	s3,908(a5)
    124c:	01f80bb3          	add	s7,a6,t6
    1250:	01f602b3          	add	t0,a2,t6
    1254:	01298933          	add	s2,s3,s2
    1258:	00090023          	sb	zero,0(s2)
    125c:	38c7a903          	lw	s2,908(a5)
    1260:	01f68eb3          	add	t4,a3,t6
    1264:	00e50533          	add	a0,a0,a4
    1268:	009904b3          	add	s1,s2,s1
    126c:	00048023          	sb	zero,0(s1)
    1270:	38c7a483          	lw	s1,908(a5)
    1274:	00412583          	lw	a1,4(sp)
    1278:	01ff0fb3          	add	t6,t5,t6
    127c:	00ee0e33          	add	t3,t3,a4
    1280:	00b484b3          	add	s1,s1,a1
    1284:	00048023          	sb	zero,0(s1)
    1288:	38c7a583          	lw	a1,908(a5)
    128c:	00e30333          	add	t1,t1,a4
    1290:	00e888b3          	add	a7,a7,a4
    1294:	008585b3          	add	a1,a1,s0
    1298:	00058023          	sb	zero,0(a1)
    129c:	38c7a583          	lw	a1,908(a5)
    12a0:	00e80833          	add	a6,a6,a4
    12a4:	00e60633          	add	a2,a2,a4
    12a8:	007585b3          	add	a1,a1,t2
    12ac:	00058023          	sb	zero,0(a1)
    12b0:	38c7a583          	lw	a1,908(a5)
    12b4:	00e686b3          	add	a3,a3,a4
    12b8:	00ef0733          	add	a4,t5,a4
    12bc:	00812f03          	lw	t5,8(sp)
    12c0:	01e585b3          	add	a1,a1,t5
    12c4:	00058023          	sb	zero,0(a1)
    12c8:	38c7a583          	lw	a1,908(a5)
    12cc:	00c12f03          	lw	t5,12(sp)
    12d0:	01b585b3          	add	a1,a1,s11
    12d4:	00058023          	sb	zero,0(a1)
    12d8:	38c7a583          	lw	a1,908(a5)
    12dc:	01e585b3          	add	a1,a1,t5
    12e0:	00058023          	sb	zero,0(a1)
    12e4:	38c7a583          	lw	a1,908(a5)
    12e8:	01012f03          	lw	t5,16(sp)
    12ec:	01a585b3          	add	a1,a1,s10
    12f0:	00058023          	sb	zero,0(a1)
    12f4:	38c7a583          	lw	a1,908(a5)
    12f8:	01e585b3          	add	a1,a1,t5
    12fc:	00058023          	sb	zero,0(a1)
    1300:	38c7a583          	lw	a1,908(a5)
    1304:	01412f03          	lw	t5,20(sp)
    1308:	019585b3          	add	a1,a1,s9
    130c:	00058023          	sb	zero,0(a1)
    1310:	38c7a583          	lw	a1,908(a5)
    1314:	018585b3          	add	a1,a1,s8
    1318:	00058023          	sb	zero,0(a1)
    131c:	38c7a583          	lw	a1,908(a5)
    1320:	01e585b3          	add	a1,a1,t5
    1324:	00058023          	sb	zero,0(a1)
    1328:	38c7a583          	lw	a1,908(a5)
    132c:	01812f03          	lw	t5,24(sp)
    1330:	01e585b3          	add	a1,a1,t5
    1334:	00058023          	sb	zero,0(a1)
    1338:	38c7a583          	lw	a1,908(a5)
    133c:	01c12f03          	lw	t5,28(sp)
    1340:	01e585b3          	add	a1,a1,t5
    1344:	00058023          	sb	zero,0(a1)
    1348:	38c7a583          	lw	a1,908(a5)
    134c:	017585b3          	add	a1,a1,s7
    1350:	00058023          	sb	zero,0(a1)
    1354:	38c7a583          	lw	a1,908(a5)
    1358:	005585b3          	add	a1,a1,t0
    135c:	00058023          	sb	zero,0(a1)
    1360:	38c7a583          	lw	a1,908(a5)
    1364:	01d585b3          	add	a1,a1,t4
    1368:	00058023          	sb	zero,0(a1)
    136c:	38c7a583          	lw	a1,908(a5)
    1370:	01f585b3          	add	a1,a1,t6
    1374:	00058023          	sb	zero,0(a1)
    1378:	38c7a583          	lw	a1,908(a5)
    137c:	00a585b3          	add	a1,a1,a0
    1380:	00058023          	sb	zero,0(a1)
    1384:	38c7a583          	lw	a1,908(a5)
    1388:	01c585b3          	add	a1,a1,t3
    138c:	00058023          	sb	zero,0(a1)
    1390:	38c7a583          	lw	a1,908(a5)
    1394:	006585b3          	add	a1,a1,t1
    1398:	00058023          	sb	zero,0(a1)
    139c:	38c7a583          	lw	a1,908(a5)
    13a0:	011585b3          	add	a1,a1,a7
    13a4:	00058023          	sb	zero,0(a1)
    13a8:	38c7a583          	lw	a1,908(a5)
    13ac:	010585b3          	add	a1,a1,a6
    13b0:	00058023          	sb	zero,0(a1)
    13b4:	38c7a583          	lw	a1,908(a5)
    13b8:	00c58633          	add	a2,a1,a2
    13bc:	00060023          	sb	zero,0(a2)
    13c0:	38c7a603          	lw	a2,908(a5)
    13c4:	00d606b3          	add	a3,a2,a3
    13c8:	00068023          	sb	zero,0(a3)
    13cc:	38c7a783          	lw	a5,908(a5)
    13d0:	00e787b3          	add	a5,a5,a4
    13d4:	00078023          	sb	zero,0(a5)
    13d8:	869ff06f          	j	c40 <__heap_size+0x440>
    13dc:	000036b7          	lui	a3,0x3
    13e0:	00259813          	slli	a6,a1,0x2
    13e4:	38c6a603          	lw	a2,908(a3) # 338c <vga_buffer>
    13e8:	00b80833          	add	a6,a6,a1
    13ec:	00981813          	slli	a6,a6,0x9
    13f0:	00350593          	addi	a1,a0,3
    13f4:	010588b3          	add	a7,a1,a6
    13f8:	01f00793          	li	a5,31
    13fc:	01160633          	add	a2,a2,a7
    1400:	00f60023          	sb	a5,0(a2)
    1404:	38c6a883          	lw	a7,908(a3)
    1408:	00450613          	addi	a2,a0,4
    140c:	00c80333          	add	t1,a6,a2
    1410:	006888b3          	add	a7,a7,t1
    1414:	00f88023          	sb	a5,0(a7)
    1418:	38c6a883          	lw	a7,908(a3)
    141c:	00550513          	addi	a0,a0,5
    1420:	00a80833          	add	a6,a6,a0
    1424:	00170313          	addi	t1,a4,1
    1428:	01088833          	add	a6,a7,a6
    142c:	00f80023          	sb	a5,0(a6)
    1430:	00231713          	slli	a4,t1,0x2
    1434:	38c6a803          	lw	a6,908(a3)
    1438:	00670733          	add	a4,a4,t1
    143c:	00671713          	slli	a4,a4,0x6
    1440:	00e588b3          	add	a7,a1,a4
    1444:	01180833          	add	a6,a6,a7
    1448:	00f80023          	sb	a5,0(a6)
    144c:	38c6a803          	lw	a6,908(a3)
    1450:	00e608b3          	add	a7,a2,a4
    1454:	00e50333          	add	t1,a0,a4
    1458:	01180833          	add	a6,a6,a7
    145c:	00f80023          	sb	a5,0(a6)
    1460:	38c6a883          	lw	a7,908(a3)
    1464:	14070813          	addi	a6,a4,320
    1468:	01058eb3          	add	t4,a1,a6
    146c:	006888b3          	add	a7,a7,t1
    1470:	00f88023          	sb	a5,0(a7)
    1474:	38c6a303          	lw	t1,908(a3)
    1478:	01060e33          	add	t3,a2,a6
    147c:	010508b3          	add	a7,a0,a6
    1480:	01d30833          	add	a6,t1,t4
    1484:	00f80023          	sb	a5,0(a6)
    1488:	38c6a303          	lw	t1,908(a3)
    148c:	28070813          	addi	a6,a4,640
    1490:	01058eb3          	add	t4,a1,a6
    1494:	01c30333          	add	t1,t1,t3
    1498:	00f30023          	sb	a5,0(t1)
    149c:	38c6a303          	lw	t1,908(a3)
    14a0:	01060e33          	add	t3,a2,a6
    14a4:	01050833          	add	a6,a0,a6
    14a8:	011308b3          	add	a7,t1,a7
    14ac:	00f88023          	sb	a5,0(a7)
    14b0:	38c6a883          	lw	a7,908(a3)
    14b4:	3c070313          	addi	t1,a4,960
    14b8:	00658f33          	add	t5,a1,t1
    14bc:	01d888b3          	add	a7,a7,t4
    14c0:	00f88023          	sb	a5,0(a7)
    14c4:	38c6a883          	lw	a7,908(a3)
    14c8:	006603b3          	add	t2,a2,t1
    14cc:	00650eb3          	add	t4,a0,t1
    14d0:	01c888b3          	add	a7,a7,t3
    14d4:	00f88023          	sb	a5,0(a7)
    14d8:	38c6a303          	lw	t1,908(a3)
    14dc:	50070893          	addi	a7,a4,1280
    14e0:	011582b3          	add	t0,a1,a7
    14e4:	01030833          	add	a6,t1,a6
    14e8:	00f80023          	sb	a5,0(a6)
    14ec:	38c6a803          	lw	a6,908(a3)
    14f0:	01160fb3          	add	t6,a2,a7
    14f4:	01150e33          	add	t3,a0,a7
    14f8:	01e80833          	add	a6,a6,t5
    14fc:	00f80023          	sb	a5,0(a6)
    1500:	38c6a803          	lw	a6,908(a3)
    1504:	64070893          	addi	a7,a4,1600
    1508:	78070713          	addi	a4,a4,1920
    150c:	00780833          	add	a6,a6,t2
    1510:	00f80023          	sb	a5,0(a6)
    1514:	38c6a803          	lw	a6,908(a3)
    1518:	01158f33          	add	t5,a1,a7
    151c:	01160333          	add	t1,a2,a7
    1520:	01d80833          	add	a6,a6,t4
    1524:	00f80023          	sb	a5,0(a6)
    1528:	38c6a803          	lw	a6,908(a3)
    152c:	011508b3          	add	a7,a0,a7
    1530:	00b705b3          	add	a1,a4,a1
    1534:	00580833          	add	a6,a6,t0
    1538:	00f80023          	sb	a5,0(a6)
    153c:	38c6a803          	lw	a6,908(a3)
    1540:	00c70633          	add	a2,a4,a2
    1544:	00a70733          	add	a4,a4,a0
    1548:	01f80533          	add	a0,a6,t6
    154c:	00f50023          	sb	a5,0(a0)
    1550:	38c6a503          	lw	a0,908(a3)
    1554:	01c50533          	add	a0,a0,t3
    1558:	00f50023          	sb	a5,0(a0)
    155c:	38c6a503          	lw	a0,908(a3)
    1560:	01e50533          	add	a0,a0,t5
    1564:	00f50023          	sb	a5,0(a0)
    1568:	38c6a503          	lw	a0,908(a3)
    156c:	00650533          	add	a0,a0,t1
    1570:	00f50023          	sb	a5,0(a0)
    1574:	38c6a503          	lw	a0,908(a3)
    1578:	01150533          	add	a0,a0,a7
    157c:	00f50023          	sb	a5,0(a0)
    1580:	38c6a503          	lw	a0,908(a3)
    1584:	00b505b3          	add	a1,a0,a1
    1588:	00f58023          	sb	a5,0(a1)
    158c:	38c6a583          	lw	a1,908(a3)
    1590:	00c58633          	add	a2,a1,a2
    1594:	00f60023          	sb	a5,0(a2)
    1598:	38c6a683          	lw	a3,908(a3)
    159c:	00e68733          	add	a4,a3,a4
    15a0:	00f70023          	sb	a5,0(a4)
    15a4:	05010113          	addi	sp,sp,80
    15a8:	00008067          	ret
    15ac:	00370713          	addi	a4,a4,3
    15b0:	000036b7          	lui	a3,0x3
    15b4:	00271793          	slli	a5,a4,0x2
    15b8:	38c6a603          	lw	a2,908(a3) # 338c <vga_buffer>
    15bc:	00e787b3          	add	a5,a5,a4
    15c0:	00679793          	slli	a5,a5,0x6
    15c4:	00f505b3          	add	a1,a0,a5
    15c8:	01f00713          	li	a4,31
    15cc:	04812623          	sw	s0,76(sp)
    15d0:	04912423          	sw	s1,72(sp)
    15d4:	00b60633          	add	a2,a2,a1
    15d8:	00e60023          	sb	a4,0(a2)
    15dc:	38c6a603          	lw	a2,908(a3)
    15e0:	00150e13          	addi	t3,a0,1
    15e4:	00fe05b3          	add	a1,t3,a5
    15e8:	00b60633          	add	a2,a2,a1
    15ec:	00e60023          	sb	a4,0(a2)
    15f0:	38c6a603          	lw	a2,908(a3)
    15f4:	00250313          	addi	t1,a0,2
    15f8:	00f305b3          	add	a1,t1,a5
    15fc:	00b60633          	add	a2,a2,a1
    1600:	00e60023          	sb	a4,0(a2)
    1604:	38c6a603          	lw	a2,908(a3)
    1608:	00350893          	addi	a7,a0,3
    160c:	00f885b3          	add	a1,a7,a5
    1610:	00b60633          	add	a2,a2,a1
    1614:	00e60023          	sb	a4,0(a2)
    1618:	38c6a603          	lw	a2,908(a3)
    161c:	00450813          	addi	a6,a0,4
    1620:	00f805b3          	add	a1,a6,a5
    1624:	00b60633          	add	a2,a2,a1
    1628:	00e60023          	sb	a4,0(a2)
    162c:	38c6a603          	lw	a2,908(a3)
    1630:	00550593          	addi	a1,a0,5
    1634:	00f58eb3          	add	t4,a1,a5
    1638:	01d60633          	add	a2,a2,t4
    163c:	00e60023          	sb	a4,0(a2)
    1640:	38c6ae83          	lw	t4,908(a3)
    1644:	00650613          	addi	a2,a0,6
    1648:	00f60f33          	add	t5,a2,a5
    164c:	01ee8eb3          	add	t4,t4,t5
    1650:	00ee8023          	sb	a4,0(t4)
    1654:	38c6ae83          	lw	t4,908(a3)
    1658:	00750f13          	addi	t5,a0,7
    165c:	00ff0fb3          	add	t6,t5,a5
    1660:	01fe8eb3          	add	t4,t4,t6
    1664:	00ee8023          	sb	a4,0(t4)
    1668:	38c6ae83          	lw	t4,908(a3)
    166c:	14078f93          	addi	t6,a5,320
    1670:	01f502b3          	add	t0,a0,t6
    1674:	005e8eb3          	add	t4,t4,t0
    1678:	00ee8023          	sb	a4,0(t4)
    167c:	38c6ae83          	lw	t4,908(a3)
    1680:	01fe03b3          	add	t2,t3,t6
    1684:	01f302b3          	add	t0,t1,t6
    1688:	007e8eb3          	add	t4,t4,t2
    168c:	00ee8023          	sb	a4,0(t4)
    1690:	38c6ae83          	lw	t4,908(a3)
    1694:	01f884b3          	add	s1,a7,t6
    1698:	01f80433          	add	s0,a6,t6
    169c:	005e8eb3          	add	t4,t4,t0
    16a0:	00ee8023          	sb	a4,0(t4)
    16a4:	38c6ae83          	lw	t4,908(a3)
    16a8:	01f583b3          	add	t2,a1,t6
    16ac:	01f602b3          	add	t0,a2,t6
    16b0:	009e8eb3          	add	t4,t4,s1
    16b4:	00ee8023          	sb	a4,0(t4)
    16b8:	38c6ae83          	lw	t4,908(a3)
    16bc:	01ff0fb3          	add	t6,t5,t6
    16c0:	28078793          	addi	a5,a5,640
    16c4:	008e8eb3          	add	t4,t4,s0
    16c8:	00ee8023          	sb	a4,0(t4)
    16cc:	38c6ae83          	lw	t4,908(a3)
    16d0:	00f50533          	add	a0,a0,a5
    16d4:	01c78e33          	add	t3,a5,t3
    16d8:	007e8eb3          	add	t4,t4,t2
    16dc:	00ee8023          	sb	a4,0(t4)
    16e0:	38c6ae83          	lw	t4,908(a3)
    16e4:	00678333          	add	t1,a5,t1
    16e8:	00f888b3          	add	a7,a7,a5
    16ec:	005e8eb3          	add	t4,t4,t0
    16f0:	00ee8023          	sb	a4,0(t4)
    16f4:	38c6ae83          	lw	t4,908(a3)
    16f8:	01078833          	add	a6,a5,a6
    16fc:	00b785b3          	add	a1,a5,a1
    1700:	01fe8eb3          	add	t4,t4,t6
    1704:	00ee8023          	sb	a4,0(t4)
    1708:	38c6ae83          	lw	t4,908(a3)
    170c:	00f60633          	add	a2,a2,a5
    1710:	01e787b3          	add	a5,a5,t5
    1714:	00ae8533          	add	a0,t4,a0
    1718:	00e50023          	sb	a4,0(a0)
    171c:	38c6a503          	lw	a0,908(a3)
    1720:	01c50533          	add	a0,a0,t3
    1724:	00e50023          	sb	a4,0(a0)
    1728:	38c6a503          	lw	a0,908(a3)
    172c:	00650533          	add	a0,a0,t1
    1730:	00e50023          	sb	a4,0(a0)
    1734:	38c6a503          	lw	a0,908(a3)
    1738:	01150533          	add	a0,a0,a7
    173c:	00e50023          	sb	a4,0(a0)
    1740:	38c6a503          	lw	a0,908(a3)
    1744:	01050533          	add	a0,a0,a6
    1748:	00e50023          	sb	a4,0(a0)
    174c:	38c6a503          	lw	a0,908(a3)
    1750:	00b505b3          	add	a1,a0,a1
    1754:	00e58023          	sb	a4,0(a1)
    1758:	38c6a583          	lw	a1,908(a3)
    175c:	00c58633          	add	a2,a1,a2
    1760:	00e60023          	sb	a4,0(a2)
    1764:	38c6a683          	lw	a3,908(a3)
    1768:	00f687b3          	add	a5,a3,a5
    176c:	00e78023          	sb	a4,0(a5)
    1770:	04c12403          	lw	s0,76(sp)
    1774:	04812483          	lw	s1,72(sp)
    1778:	05010113          	addi	sp,sp,80
    177c:	00008067          	ret
    1780:	00370793          	addi	a5,a4,3
    1784:	000036b7          	lui	a3,0x3
    1788:	00279613          	slli	a2,a5,0x2
    178c:	38c6a583          	lw	a1,908(a3) # 338c <vga_buffer>
    1790:	00f60633          	add	a2,a2,a5
    1794:	00661613          	slli	a2,a2,0x6
    1798:	00350313          	addi	t1,a0,3
    179c:	00c30833          	add	a6,t1,a2
    17a0:	01f00793          	li	a5,31
    17a4:	04812623          	sw	s0,76(sp)
    17a8:	04912423          	sw	s1,72(sp)
    17ac:	05212223          	sw	s2,68(sp)
    17b0:	010585b3          	add	a1,a1,a6
    17b4:	00f58023          	sb	a5,0(a1)
    17b8:	38c6a583          	lw	a1,908(a3)
    17bc:	00450893          	addi	a7,a0,4
    17c0:	00c88833          	add	a6,a7,a2
    17c4:	010585b3          	add	a1,a1,a6
    17c8:	00f58023          	sb	a5,0(a1)
    17cc:	38c6a583          	lw	a1,908(a3)
    17d0:	00550813          	addi	a6,a0,5
    17d4:	00c80e33          	add	t3,a6,a2
    17d8:	01c585b3          	add	a1,a1,t3
    17dc:	00f58023          	sb	a5,0(a1)
    17e0:	38c6a583          	lw	a1,908(a3)
    17e4:	00650f13          	addi	t5,a0,6
    17e8:	00cf0e33          	add	t3,t5,a2
    17ec:	01c585b3          	add	a1,a1,t3
    17f0:	00f58023          	sb	a5,0(a1)
    17f4:	38c6a583          	lw	a1,908(a3)
    17f8:	00750e93          	addi	t4,a0,7
    17fc:	00ce8e33          	add	t3,t4,a2
    1800:	01c585b3          	add	a1,a1,t3
    1804:	00f58023          	sb	a5,0(a1)
    1808:	38c6a583          	lw	a1,908(a3)
    180c:	00850513          	addi	a0,a0,8
    1810:	00c50e33          	add	t3,a0,a2
    1814:	01c585b3          	add	a1,a1,t3
    1818:	00f58023          	sb	a5,0(a1)
    181c:	38c6ae03          	lw	t3,908(a3)
    1820:	14060593          	addi	a1,a2,320
    1824:	00b30fb3          	add	t6,t1,a1
    1828:	01fe0e33          	add	t3,t3,t6
    182c:	00fe0023          	sb	a5,0(t3)
    1830:	38c6ae03          	lw	t3,908(a3)
    1834:	00b882b3          	add	t0,a7,a1
    1838:	00b80fb3          	add	t6,a6,a1
    183c:	005e0e33          	add	t3,t3,t0
    1840:	00fe0023          	sb	a5,0(t3)
    1844:	38c6ae03          	lw	t3,908(a3)
    1848:	00bf03b3          	add	t2,t5,a1
    184c:	00be82b3          	add	t0,t4,a1
    1850:	01fe0e33          	add	t3,t3,t6
    1854:	00fe0023          	sb	a5,0(t3)
    1858:	38c6af83          	lw	t6,908(a3)
    185c:	00b505b3          	add	a1,a0,a1
    1860:	28060e13          	addi	t3,a2,640
    1864:	007f8fb3          	add	t6,t6,t2
    1868:	00ff8023          	sb	a5,0(t6)
    186c:	38c6af83          	lw	t6,908(a3)
    1870:	01c30933          	add	s2,t1,t3
    1874:	01c884b3          	add	s1,a7,t3
    1878:	005f8fb3          	add	t6,t6,t0
    187c:	00ff8023          	sb	a5,0(t6)
    1880:	38c6af83          	lw	t6,908(a3)
    1884:	01c803b3          	add	t2,a6,t3
    1888:	01cf0f33          	add	t5,t5,t3
    188c:	00bf85b3          	add	a1,t6,a1
    1890:	00f58023          	sb	a5,0(a1)
    1894:	38c6a583          	lw	a1,908(a3)
    1898:	01ce8eb3          	add	t4,t4,t3
    189c:	01c50533          	add	a0,a0,t3
    18a0:	012585b3          	add	a1,a1,s2
    18a4:	00f58023          	sb	a5,0(a1)
    18a8:	38c6ae03          	lw	t3,908(a3)
    18ac:	3c060593          	addi	a1,a2,960
    18b0:	50060613          	addi	a2,a2,1280
    18b4:	009e0e33          	add	t3,t3,s1
    18b8:	00fe0023          	sb	a5,0(t3)
    18bc:	38c6ae03          	lw	t3,908(a3)
    18c0:	00b30433          	add	s0,t1,a1
    18c4:	00b882b3          	add	t0,a7,a1
    18c8:	007e0e33          	add	t3,t3,t2
    18cc:	00fe0023          	sb	a5,0(t3)
    18d0:	38c6ae03          	lw	t3,908(a3)
    18d4:	00c30fb3          	add	t6,t1,a2
    18d8:	00b805b3          	add	a1,a6,a1
    18dc:	01ee0e33          	add	t3,t3,t5
    18e0:	00fe0023          	sb	a5,0(t3)
    18e4:	38c6af03          	lw	t5,908(a3)
    18e8:	00c88e33          	add	t3,a7,a2
    18ec:	00c80633          	add	a2,a6,a2
    18f0:	01df0eb3          	add	t4,t5,t4
    18f4:	00fe8023          	sb	a5,0(t4)
    18f8:	38c6ae83          	lw	t4,908(a3)
    18fc:	00870f13          	addi	t5,a4,8
    1900:	002f1713          	slli	a4,t5,0x2
    1904:	00ae8533          	add	a0,t4,a0
    1908:	00f50023          	sb	a5,0(a0)
    190c:	38c6a503          	lw	a0,908(a3)
    1910:	01e70733          	add	a4,a4,t5
    1914:	00671713          	slli	a4,a4,0x6
    1918:	01250533          	add	a0,a0,s2
    191c:	00f50023          	sb	a5,0(a0)
    1920:	38c6a503          	lw	a0,908(a3)
    1924:	00e30333          	add	t1,t1,a4
    1928:	00e888b3          	add	a7,a7,a4
    192c:	00950533          	add	a0,a0,s1
    1930:	00f50023          	sb	a5,0(a0)
    1934:	38c6a503          	lw	a0,908(a3)
    1938:	00e80833          	add	a6,a6,a4
    193c:	00750733          	add	a4,a0,t2
    1940:	00f70023          	sb	a5,0(a4)
    1944:	38c6a703          	lw	a4,908(a3)
    1948:	00870733          	add	a4,a4,s0
    194c:	00f70023          	sb	a5,0(a4)
    1950:	38c6a703          	lw	a4,908(a3)
    1954:	00570733          	add	a4,a4,t0
    1958:	00f70023          	sb	a5,0(a4)
    195c:	38c6a703          	lw	a4,908(a3)
    1960:	00b70733          	add	a4,a4,a1
    1964:	00f70023          	sb	a5,0(a4)
    1968:	38c6a703          	lw	a4,908(a3)
    196c:	01f70733          	add	a4,a4,t6
    1970:	00f70023          	sb	a5,0(a4)
    1974:	38c6a703          	lw	a4,908(a3)
    1978:	01c70733          	add	a4,a4,t3
    197c:	00f70023          	sb	a5,0(a4)
    1980:	38c6a703          	lw	a4,908(a3)
    1984:	00c70733          	add	a4,a4,a2
    1988:	00f70023          	sb	a5,0(a4)
    198c:	38c6a703          	lw	a4,908(a3)
    1990:	00670733          	add	a4,a4,t1
    1994:	00f70023          	sb	a5,0(a4)
    1998:	38c6a703          	lw	a4,908(a3)
    199c:	01170733          	add	a4,a4,a7
    19a0:	00f70023          	sb	a5,0(a4)
    19a4:	38c6a703          	lw	a4,908(a3)
    19a8:	01070733          	add	a4,a4,a6
    19ac:	00f70023          	sb	a5,0(a4)
    19b0:	04c12403          	lw	s0,76(sp)
    19b4:	04812483          	lw	s1,72(sp)
    19b8:	04412903          	lw	s2,68(sp)
    19bc:	05010113          	addi	sp,sp,80
    19c0:	00008067          	ret
    19c4:	00370793          	addi	a5,a4,3
    19c8:	000036b7          	lui	a3,0x3
    19cc:	00279613          	slli	a2,a5,0x2
    19d0:	38c6a583          	lw	a1,908(a3) # 338c <vga_buffer>
    19d4:	00f60633          	add	a2,a2,a5
    19d8:	00661613          	slli	a2,a2,0x6
    19dc:	00c50833          	add	a6,a0,a2
    19e0:	01f00793          	li	a5,31
    19e4:	04812623          	sw	s0,76(sp)
    19e8:	04912423          	sw	s1,72(sp)
    19ec:	010585b3          	add	a1,a1,a6
    19f0:	00f58023          	sb	a5,0(a1)
    19f4:	38c6a583          	lw	a1,908(a3)
    19f8:	00150f13          	addi	t5,a0,1
    19fc:	00cf0833          	add	a6,t5,a2
    1a00:	010585b3          	add	a1,a1,a6
    1a04:	00f58023          	sb	a5,0(a1)
    1a08:	38c6a583          	lw	a1,908(a3)
    1a0c:	00250e93          	addi	t4,a0,2
    1a10:	00ce8833          	add	a6,t4,a2
    1a14:	010585b3          	add	a1,a1,a6
    1a18:	00f58023          	sb	a5,0(a1)
    1a1c:	38c6a583          	lw	a1,908(a3)
    1a20:	00350e13          	addi	t3,a0,3
    1a24:	00ce0833          	add	a6,t3,a2
    1a28:	010585b3          	add	a1,a1,a6
    1a2c:	00f58023          	sb	a5,0(a1)
    1a30:	38c6a583          	lw	a1,908(a3)
    1a34:	00450313          	addi	t1,a0,4
    1a38:	00c30833          	add	a6,t1,a2
    1a3c:	010585b3          	add	a1,a1,a6
    1a40:	00f58023          	sb	a5,0(a1)
    1a44:	38c6a583          	lw	a1,908(a3)
    1a48:	00550893          	addi	a7,a0,5
    1a4c:	00c88833          	add	a6,a7,a2
    1a50:	010585b3          	add	a1,a1,a6
    1a54:	00f58023          	sb	a5,0(a1)
    1a58:	38c6a803          	lw	a6,908(a3)
    1a5c:	14060593          	addi	a1,a2,320
    1a60:	00b50fb3          	add	t6,a0,a1
    1a64:	01f80833          	add	a6,a6,t6
    1a68:	00f80023          	sb	a5,0(a6)
    1a6c:	38c6a803          	lw	a6,908(a3)
    1a70:	00bf02b3          	add	t0,t5,a1
    1a74:	00be8fb3          	add	t6,t4,a1
    1a78:	00580833          	add	a6,a6,t0
    1a7c:	00f80023          	sb	a5,0(a6)
    1a80:	38c6a803          	lw	a6,908(a3)
    1a84:	00be03b3          	add	t2,t3,a1
    1a88:	00b302b3          	add	t0,t1,a1
    1a8c:	01f80833          	add	a6,a6,t6
    1a90:	00f80023          	sb	a5,0(a6)
    1a94:	38c6af83          	lw	t6,908(a3)
    1a98:	00b885b3          	add	a1,a7,a1
    1a9c:	28060813          	addi	a6,a2,640
    1aa0:	007f8fb3          	add	t6,t6,t2
    1aa4:	00ff8023          	sb	a5,0(t6)
    1aa8:	38c6af83          	lw	t6,908(a3)
    1aac:	01050533          	add	a0,a0,a6
    1ab0:	01e80f33          	add	t5,a6,t5
    1ab4:	005f8fb3          	add	t6,t6,t0
    1ab8:	00ff8023          	sb	a5,0(t6)
    1abc:	38c6af83          	lw	t6,908(a3)
    1ac0:	01d80eb3          	add	t4,a6,t4
    1ac4:	01c80433          	add	s0,a6,t3
    1ac8:	00bf85b3          	add	a1,t6,a1
    1acc:	00f58023          	sb	a5,0(a1)
    1ad0:	38c6a583          	lw	a1,908(a3)
    1ad4:	006803b3          	add	t2,a6,t1
    1ad8:	01088833          	add	a6,a7,a6
    1adc:	00a585b3          	add	a1,a1,a0
    1ae0:	00f58023          	sb	a5,0(a1)
    1ae4:	38c6a503          	lw	a0,908(a3)
    1ae8:	00870493          	addi	s1,a4,8
    1aec:	00249713          	slli	a4,s1,0x2
    1af0:	01e50533          	add	a0,a0,t5
    1af4:	00f50023          	sb	a5,0(a0)
    1af8:	38c6a503          	lw	a0,908(a3)
    1afc:	00970733          	add	a4,a4,s1
    1b00:	3c060593          	addi	a1,a2,960
    1b04:	01d50533          	add	a0,a0,t4
    1b08:	00f50023          	sb	a5,0(a0)
    1b0c:	38c6a503          	lw	a0,908(a3)
    1b10:	00671713          	slli	a4,a4,0x6
    1b14:	50060613          	addi	a2,a2,1280
    1b18:	00850533          	add	a0,a0,s0
    1b1c:	00f50023          	sb	a5,0(a0)
    1b20:	38c6ae83          	lw	t4,908(a3)
    1b24:	00be02b3          	add	t0,t3,a1
    1b28:	00b30fb3          	add	t6,t1,a1
    1b2c:	007e8eb3          	add	t4,t4,t2
    1b30:	00fe8023          	sb	a5,0(t4)
    1b34:	38c6ae83          	lw	t4,908(a3)
    1b38:	00ce0f33          	add	t5,t3,a2
    1b3c:	00c30533          	add	a0,t1,a2
    1b40:	010e8eb3          	add	t4,t4,a6
    1b44:	00fe8023          	sb	a5,0(t4)
    1b48:	38c6ae83          	lw	t4,908(a3)
    1b4c:	00b885b3          	add	a1,a7,a1
    1b50:	00c88633          	add	a2,a7,a2
    1b54:	008e8eb3          	add	t4,t4,s0
    1b58:	00fe8023          	sb	a5,0(t4)
    1b5c:	38c6ae83          	lw	t4,908(a3)
    1b60:	01c70e33          	add	t3,a4,t3
    1b64:	00670333          	add	t1,a4,t1
    1b68:	007e8eb3          	add	t4,t4,t2
    1b6c:	00fe8023          	sb	a5,0(t4)
    1b70:	38c6ae83          	lw	t4,908(a3)
    1b74:	00e888b3          	add	a7,a7,a4
    1b78:	010e8733          	add	a4,t4,a6
    1b7c:	00f70023          	sb	a5,0(a4)
    1b80:	38c6a703          	lw	a4,908(a3)
    1b84:	00570733          	add	a4,a4,t0
    1b88:	00f70023          	sb	a5,0(a4)
    1b8c:	38c6a703          	lw	a4,908(a3)
    1b90:	01f70733          	add	a4,a4,t6
    1b94:	00f70023          	sb	a5,0(a4)
    1b98:	38c6a703          	lw	a4,908(a3)
    1b9c:	00b70733          	add	a4,a4,a1
    1ba0:	00f70023          	sb	a5,0(a4)
    1ba4:	38c6a703          	lw	a4,908(a3)
    1ba8:	01e70733          	add	a4,a4,t5
    1bac:	00f70023          	sb	a5,0(a4)
    1bb0:	38c6a703          	lw	a4,908(a3)
    1bb4:	00a70733          	add	a4,a4,a0
    1bb8:	00f70023          	sb	a5,0(a4)
    1bbc:	38c6a703          	lw	a4,908(a3)
    1bc0:	00c70733          	add	a4,a4,a2
    1bc4:	00f70023          	sb	a5,0(a4)
    1bc8:	38c6a703          	lw	a4,908(a3)
    1bcc:	01c70733          	add	a4,a4,t3
    1bd0:	00f70023          	sb	a5,0(a4)
    1bd4:	38c6a703          	lw	a4,908(a3)
    1bd8:	00670733          	add	a4,a4,t1
    1bdc:	00f70023          	sb	a5,0(a4)
    1be0:	38c6a703          	lw	a4,908(a3)
    1be4:	01170733          	add	a4,a4,a7
    1be8:	00f70023          	sb	a5,0(a4)
    1bec:	04c12403          	lw	s0,76(sp)
    1bf0:	04812483          	lw	s1,72(sp)
    1bf4:	05010113          	addi	sp,sp,80
    1bf8:	00008067          	ret
    1bfc:	00008067          	ret

00001c00 <draw_character>:
    1c00:	00850713          	addi	a4,a0,8
    1c04:	14000793          	li	a5,320
    1c08:	00e7d463          	bge	a5,a4,1c10 <draw_character+0x10>
    1c0c:	14000713          	li	a4,320
    1c10:	00858793          	addi	a5,a1,8
    1c14:	0f000693          	li	a3,240
    1c18:	00f6d463          	bge	a3,a5,1c20 <draw_character+0x20>
    1c1c:	0f000793          	li	a5,240
    1c20:	04f5d863          	bge	a1,a5,1c70 <draw_character+0x70>
    1c24:	04e55663          	bge	a0,a4,1c70 <draw_character+0x70>
    1c28:	00259813          	slli	a6,a1,0x2
    1c2c:	00279893          	slli	a7,a5,0x2
    1c30:	00b80833          	add	a6,a6,a1
    1c34:	00f888b3          	add	a7,a7,a5
    1c38:	00681813          	slli	a6,a6,0x6
    1c3c:	00689893          	slli	a7,a7,0x6
    1c40:	00e806b3          	add	a3,a6,a4
    1c44:	00e888b3          	add	a7,a7,a4
    1c48:	000035b7          	lui	a1,0x3
    1c4c:	010507b3          	add	a5,a0,a6
    1c50:	38c5a703          	lw	a4,908(a1) # 338c <vga_buffer>
    1c54:	00f70733          	add	a4,a4,a5
    1c58:	00c70023          	sb	a2,0(a4)
    1c5c:	00178793          	addi	a5,a5,1
    1c60:	fef698e3          	bne	a3,a5,1c50 <draw_character+0x50>
    1c64:	14068693          	addi	a3,a3,320
    1c68:	14080813          	addi	a6,a6,320
    1c6c:	ff1690e3          	bne	a3,a7,1c4c <draw_character+0x4c>
    1c70:	00008067          	ret

00001c74 <redraw_tile>:
    1c74:	00200793          	li	a5,2
    1c78:	18f60a63          	beq	a2,a5,1e0c <redraw_tile+0x198>
    1c7c:	0cc7c263          	blt	a5,a2,1d40 <redraw_tile+0xcc>
    1c80:	18060263          	beqz	a2,1e04 <redraw_tile+0x190>
    1c84:	00100793          	li	a5,1
    1c88:	fff58593          	addi	a1,a1,-1
    1c8c:	18f61c63          	bne	a2,a5,1e24 <redraw_tile+0x1b0>
    1c90:	00003737          	lui	a4,0x3
    1c94:	00259793          	slli	a5,a1,0x2
    1c98:	38c72683          	lw	a3,908(a4) # 338c <vga_buffer>
    1c9c:	00b787b3          	add	a5,a5,a1
    1ca0:	00679793          	slli	a5,a5,0x6
    1ca4:	00f50633          	add	a2,a0,a5
    1ca8:	00c686b3          	add	a3,a3,a2
    1cac:	00068023          	sb	zero,0(a3)
    1cb0:	38c72683          	lw	a3,908(a4)
    1cb4:	00150613          	addi	a2,a0,1
    1cb8:	00f60633          	add	a2,a2,a5
    1cbc:	00c686b3          	add	a3,a3,a2
    1cc0:	00068023          	sb	zero,0(a3)
    1cc4:	38c72683          	lw	a3,908(a4)
    1cc8:	00250613          	addi	a2,a0,2
    1ccc:	00f60633          	add	a2,a2,a5
    1cd0:	00c686b3          	add	a3,a3,a2
    1cd4:	00068023          	sb	zero,0(a3)
    1cd8:	38c72683          	lw	a3,908(a4)
    1cdc:	00350613          	addi	a2,a0,3
    1ce0:	00f60633          	add	a2,a2,a5
    1ce4:	00c686b3          	add	a3,a3,a2
    1ce8:	00068023          	sb	zero,0(a3)
    1cec:	38c72683          	lw	a3,908(a4)
    1cf0:	00450613          	addi	a2,a0,4
    1cf4:	00f60633          	add	a2,a2,a5
    1cf8:	00c686b3          	add	a3,a3,a2
    1cfc:	00068023          	sb	zero,0(a3)
    1d00:	38c72683          	lw	a3,908(a4)
    1d04:	00550613          	addi	a2,a0,5
    1d08:	00f60633          	add	a2,a2,a5
    1d0c:	00c686b3          	add	a3,a3,a2
    1d10:	00068023          	sb	zero,0(a3)
    1d14:	38c72683          	lw	a3,908(a4)
    1d18:	00650613          	addi	a2,a0,6
    1d1c:	00f60633          	add	a2,a2,a5
    1d20:	00c686b3          	add	a3,a3,a2
    1d24:	00068023          	sb	zero,0(a3)
    1d28:	38c72703          	lw	a4,908(a4)
    1d2c:	00750513          	addi	a0,a0,7
    1d30:	00f50533          	add	a0,a0,a5
    1d34:	00a707b3          	add	a5,a4,a0
    1d38:	00078023          	sb	zero,0(a5)
    1d3c:	00008067          	ret
    1d40:	00300793          	li	a5,3
    1d44:	fef61ce3          	bne	a2,a5,1d3c <redraw_tile+0xc8>
    1d48:	00003737          	lui	a4,0x3
    1d4c:	38c72683          	lw	a3,908(a4) # 338c <vga_buffer>
    1d50:	00259793          	slli	a5,a1,0x2
    1d54:	00b787b3          	add	a5,a5,a1
    1d58:	fff50513          	addi	a0,a0,-1
    1d5c:	00679793          	slli	a5,a5,0x6
    1d60:	00f50633          	add	a2,a0,a5
    1d64:	00c686b3          	add	a3,a3,a2
    1d68:	00068023          	sb	zero,0(a3)
    1d6c:	38c72683          	lw	a3,908(a4)
    1d70:	14078613          	addi	a2,a5,320
    1d74:	00a60633          	add	a2,a2,a0
    1d78:	00c686b3          	add	a3,a3,a2
    1d7c:	00068023          	sb	zero,0(a3)
    1d80:	38c72683          	lw	a3,908(a4)
    1d84:	28078613          	addi	a2,a5,640
    1d88:	00a60633          	add	a2,a2,a0
    1d8c:	00c686b3          	add	a3,a3,a2
    1d90:	00068023          	sb	zero,0(a3)
    1d94:	38c72683          	lw	a3,908(a4)
    1d98:	3c078613          	addi	a2,a5,960
    1d9c:	00a60633          	add	a2,a2,a0
    1da0:	00c686b3          	add	a3,a3,a2
    1da4:	00068023          	sb	zero,0(a3)
    1da8:	38c72683          	lw	a3,908(a4)
    1dac:	50078613          	addi	a2,a5,1280
    1db0:	00a60633          	add	a2,a2,a0
    1db4:	00c686b3          	add	a3,a3,a2
    1db8:	00068023          	sb	zero,0(a3)
    1dbc:	38c72683          	lw	a3,908(a4)
    1dc0:	64078613          	addi	a2,a5,1600
    1dc4:	00a60633          	add	a2,a2,a0
    1dc8:	00c686b3          	add	a3,a3,a2
    1dcc:	00068023          	sb	zero,0(a3)
    1dd0:	38c72683          	lw	a3,908(a4)
    1dd4:	78078613          	addi	a2,a5,1920
    1dd8:	00a60633          	add	a2,a2,a0
    1ddc:	00c686b3          	add	a3,a3,a2
    1de0:	00068023          	sb	zero,0(a3)
    1de4:	000016b7          	lui	a3,0x1
    1de8:	38c72703          	lw	a4,908(a4)
    1dec:	8c068693          	addi	a3,a3,-1856 # 8c0 <__heap_size+0xc0>
    1df0:	00d787b3          	add	a5,a5,a3
    1df4:	00a787b3          	add	a5,a5,a0
    1df8:	00f707b3          	add	a5,a4,a5
    1dfc:	00078023          	sb	zero,0(a5)
    1e00:	00008067          	ret
    1e04:	00858593          	addi	a1,a1,8
    1e08:	e89ff06f          	j	1c90 <redraw_tile+0x1c>
    1e0c:	00003737          	lui	a4,0x3
    1e10:	00259793          	slli	a5,a1,0x2
    1e14:	38c72683          	lw	a3,908(a4) # 338c <vga_buffer>
    1e18:	00b787b3          	add	a5,a5,a1
    1e1c:	00850513          	addi	a0,a0,8
    1e20:	f3dff06f          	j	1d5c <redraw_tile+0xe8>
    1e24:	00008067          	ret

00001e28 <fill_display>:
    1e28:	00013837          	lui	a6,0x13
    1e2c:	00050613          	mv	a2,a0
    1e30:	14000693          	li	a3,320
    1e34:	00000513          	li	a0,0
    1e38:	000035b7          	lui	a1,0x3
    1e3c:	d4080813          	addi	a6,a6,-704 # 12d40 <__global_pointer+0xf1b8>
    1e40:	00050793          	mv	a5,a0
    1e44:	38c5a703          	lw	a4,908(a1) # 338c <vga_buffer>
    1e48:	00f70733          	add	a4,a4,a5
    1e4c:	00c70023          	sb	a2,0(a4)
    1e50:	00178793          	addi	a5,a5,1
    1e54:	fed798e3          	bne	a5,a3,1e44 <fill_display+0x1c>
    1e58:	14078693          	addi	a3,a5,320
    1e5c:	14050513          	addi	a0,a0,320
    1e60:	ff0690e3          	bne	a3,a6,1e40 <fill_display+0x18>
    1e64:	00008067          	ret

00001e68 <get_sw>:
    1e68:	040007b7          	lui	a5,0x4000
    1e6c:	0107a503          	lw	a0,16(a5) # 4000010 <_stack_end+0x3efcc00>
    1e70:	00757513          	andi	a0,a0,7
    1e74:	00008067          	ret

00001e78 <handle_input>:
    1e78:	04000737          	lui	a4,0x4000
    1e7c:	01072783          	lw	a5,16(a4) # 4000010 <_stack_end+0x3efcc00>
    1e80:	00200693          	li	a3,2
    1e84:	0077f793          	andi	a5,a5,7
    1e88:	02d78063          	beq	a5,a3,1ea8 <handle_input+0x30>
    1e8c:	00f6ca63          	blt	a3,a5,1ea0 <handle_input+0x28>
    1e90:	02078063          	beqz	a5,1eb0 <handle_input+0x38>
    1e94:	00100793          	li	a5,1
    1e98:	00f52a23          	sw	a5,20(a0)
    1e9c:	00008067          	ret
    1ea0:	00300713          	li	a4,3
    1ea4:	00e79a63          	bne	a5,a4,1eb8 <handle_input+0x40>
    1ea8:	00f52a23          	sw	a5,20(a0)
    1eac:	00008067          	ret
    1eb0:	00052a23          	sw	zero,20(a0)
    1eb4:	00008067          	ret
    1eb8:	00008067          	ret

00001ebc <main>:
    1ebc:	ff010113          	addi	sp,sp,-16
    1ec0:	00112623          	sw	ra,12(sp)
    1ec4:	895fe0ef          	jal	758 <vga_init>
    1ec8:	ef0fe0ef          	jal	5b8 <game_init>
    1ecc:	0000006f          	j	1ecc <main+0x10>

00001ed0 <player_init>:
    1ed0:	00c00713          	li	a4,12
    1ed4:	00e52423          	sw	a4,8(a0)
    1ed8:	00e00713          	li	a4,14
    1edc:	fff00793          	li	a5,-1
    1ee0:	00e52623          	sw	a4,12(a0)
    1ee4:	06000713          	li	a4,96
    1ee8:	00e52023          	sw	a4,0(a0)
    1eec:	00f52823          	sw	a5,16(a0)
    1ef0:	07000713          	li	a4,112
    1ef4:	00f52a23          	sw	a5,20(a0)
    1ef8:	00300793          	li	a5,3
    1efc:	00e52223          	sw	a4,4(a0)
    1f00:	00052c23          	sw	zero,24(a0)
    1f04:	00f52e23          	sw	a5,28(a0)
    1f08:	00008067          	ret

00001f0c <player_handle_input>:
    1f0c:	fff00793          	li	a5,-1
    1f10:	00f58463          	beq	a1,a5,1f18 <player_handle_input+0xc>
    1f14:	00b52a23          	sw	a1,20(a0)
    1f18:	00008067          	ret

00001f1c <player_update>:
    1f1c:	01452683          	lw	a3,20(a0)
    1f20:	00100713          	li	a4,1
    1f24:	01050613          	addi	a2,a0,16
    1f28:	00450593          	addi	a1,a0,4
    1f2c:	b84fe06f          	j	2b0 <update_entity_position>

00001f30 <player_render>:
    1f30:	ff010113          	addi	sp,sp,-16
    1f34:	00812423          	sw	s0,8(sp)
    1f38:	01052603          	lw	a2,16(a0)
    1f3c:	00050413          	mv	s0,a0
    1f40:	00452583          	lw	a1,4(a0)
    1f44:	00052503          	lw	a0,0(a0)
    1f48:	00112623          	sw	ra,12(sp)
    1f4c:	d29ff0ef          	jal	1c74 <redraw_tile>
    1f50:	00442583          	lw	a1,4(s0)
    1f54:	00042503          	lw	a0,0(s0)
    1f58:	00812403          	lw	s0,8(sp)
    1f5c:	00c12083          	lw	ra,12(sp)
    1f60:	0fc00613          	li	a2,252
    1f64:	01010113          	addi	sp,sp,16
    1f68:	c99ff06f          	j	1c00 <draw_character>

00001f6c <draw_start_screen>:
    1f6c:	fe010113          	addi	sp,sp,-32
    1f70:	00300513          	li	a0,3
    1f74:	00912a23          	sw	s1,20(sp)
    1f78:	01212823          	sw	s2,16(sp)
    1f7c:	01312623          	sw	s3,12(sp)
    1f80:	00112e23          	sw	ra,28(sp)
    1f84:	00812c23          	sw	s0,24(sp)
    1f88:	06400493          	li	s1,100
    1f8c:	e9dff0ef          	jal	1e28 <fill_display>
    1f90:	0c800913          	li	s2,200
    1f94:	08c00993          	li	s3,140
    1f98:	07800413          	li	s0,120
    1f9c:	00040513          	mv	a0,s0
    1fa0:	0ff00613          	li	a2,255
    1fa4:	00048593          	mv	a1,s1
    1fa8:	00140413          	addi	s0,s0,1
    1fac:	fe8fe0ef          	jal	794 <set_pixel>
    1fb0:	ff2416e3          	bne	s0,s2,1f9c <draw_start_screen+0x30>
    1fb4:	00148493          	addi	s1,s1,1
    1fb8:	ff3490e3          	bne	s1,s3,1f98 <draw_start_screen+0x2c>
    1fbc:	01c12083          	lw	ra,28(sp)
    1fc0:	01812403          	lw	s0,24(sp)
    1fc4:	01412483          	lw	s1,20(sp)
    1fc8:	01012903          	lw	s2,16(sp)
    1fcc:	00c12983          	lw	s3,12(sp)
    1fd0:	02010113          	addi	sp,sp,32
    1fd4:	00008067          	ret

00001fd8 <timer_init>:
    1fd8:	000037b7          	lui	a5,0x3
    1fdc:	3947a783          	lw	a5,916(a5) # 3394 <CLOCK_SPEED>
    1fe0:	02a7c533          	div	a0,a5,a0
    1fe4:	000037b7          	lui	a5,0x3
    1fe8:	3907a783          	lw	a5,912(a5) # 3390 <timer>
    1fec:	01051713          	slli	a4,a0,0x10
    1ff0:	01075713          	srli	a4,a4,0x10
    1ff4:	00e7a423          	sw	a4,8(a5)
    1ff8:	41055513          	srai	a0,a0,0x10
    1ffc:	00a7a623          	sw	a0,12(a5)
    2000:	00700713          	li	a4,7
    2004:	00e7a223          	sw	a4,4(a5)
    2008:	978fe06f          	j	180 <enable_interrupt>

0000200c <interrupt_handler>:
    200c:	000037b7          	lui	a5,0x3
    2010:	3907a703          	lw	a4,912(a5) # 3390 <timer>
    2014:	00072783          	lw	a5,0(a4)
    2018:	0017f793          	andi	a5,a5,1
    201c:	00079463          	bnez	a5,2024 <interrupt_handler+0x18>
    2020:	00008067          	ret
    2024:	00072783          	lw	a5,0(a4)
    2028:	ffe7f793          	andi	a5,a5,-2
    202c:	00f72023          	sw	a5,0(a4)
    2030:	dccfe06f          	j	5fc <game_update>

Disassembly of section .data:

00002034 <welcome_msg>:
    2034:	3d3d                	.insn	2, 0x3d3d
    2036:	3d3d                	.insn	2, 0x3d3d
    2038:	3d3d                	.insn	2, 0x3d3d
    203a:	3d3d                	.insn	2, 0x3d3d
    203c:	3d3d                	.insn	2, 0x3d3d
    203e:	3d3d                	.insn	2, 0x3d3d
    2040:	3d3d                	.insn	2, 0x3d3d
    2042:	3d3d                	.insn	2, 0x3d3d
    2044:	3d3d                	.insn	2, 0x3d3d
    2046:	3d3d                	.insn	2, 0x3d3d
    2048:	3d3d                	.insn	2, 0x3d3d
    204a:	3d3d                	.insn	2, 0x3d3d
    204c:	3d3d                	.insn	2, 0x3d3d
    204e:	3d3d                	.insn	2, 0x3d3d
    2050:	3d3d                	.insn	2, 0x3d3d
    2052:	3d3d                	.insn	2, 0x3d3d
    2054:	3d3d                	.insn	2, 0x3d3d
    2056:	3d3d                	.insn	2, 0x3d3d
    2058:	3d3d                	.insn	2, 0x3d3d
    205a:	3d3d                	.insn	2, 0x3d3d
    205c:	3d3d                	.insn	2, 0x3d3d
    205e:	3d3d                	.insn	2, 0x3d3d
    2060:	3d3d                	.insn	2, 0x3d3d
    2062:	3d3d                	.insn	2, 0x3d3d
    2064:	3d0a                	.insn	2, 0x3d0a
    2066:	3d3d                	.insn	2, 0x3d3d
    2068:	3d3d                	.insn	2, 0x3d3d
    206a:	5220                	.insn	2, 0x5220
    206c:	5349                	.insn	2, 0x5349
    206e:	20562d43          	.insn	4, 0x20562d43
    2072:	6f42                	.insn	2, 0x6f42
    2074:	552d746f          	jal	s0,d95c6 <__global_pointer+0xd5a3e>
    2078:	2070                	.insn	2, 0x2070
    207a:	7250                	.insn	2, 0x7250
    207c:	7365636f          	jal	t1,587b2 <__global_pointer+0x54c2a>
    2080:	6f4e2073          	csrs	0x6f4,t3
    2084:	6f432077          	.insn	4, 0x6f432077
    2088:	706d                	.insn	2, 0x706d
    208a:	656c                	.insn	2, 0x656c
    208c:	6574                	.insn	2, 0x6574
    208e:	3d20                	.insn	2, 0x3d20
    2090:	3d3d                	.insn	2, 0x3d3d
    2092:	3d3d                	.insn	2, 0x3d3d
    2094:	0a3d                	.insn	2, 0x0a3d
    2096:	3d3d                	.insn	2, 0x3d3d
    2098:	3d3d                	.insn	2, 0x3d3d
    209a:	3d3d                	.insn	2, 0x3d3d
    209c:	3d3d                	.insn	2, 0x3d3d
    209e:	3d3d                	.insn	2, 0x3d3d
    20a0:	3d3d                	.insn	2, 0x3d3d
    20a2:	3d3d                	.insn	2, 0x3d3d
    20a4:	3d3d                	.insn	2, 0x3d3d
    20a6:	3d3d                	.insn	2, 0x3d3d
    20a8:	3d3d                	.insn	2, 0x3d3d
    20aa:	3d3d                	.insn	2, 0x3d3d
    20ac:	3d3d                	.insn	2, 0x3d3d
    20ae:	3d3d                	.insn	2, 0x3d3d
    20b0:	3d3d                	.insn	2, 0x3d3d
    20b2:	3d3d                	.insn	2, 0x3d3d
    20b4:	3d3d                	.insn	2, 0x3d3d
    20b6:	3d3d                	.insn	2, 0x3d3d
    20b8:	3d3d                	.insn	2, 0x3d3d
    20ba:	3d3d                	.insn	2, 0x3d3d
    20bc:	3d3d                	.insn	2, 0x3d3d
    20be:	3d3d                	.insn	2, 0x3d3d
    20c0:	3d3d                	.insn	2, 0x3d3d
    20c2:	3d3d                	.insn	2, 0x3d3d
    20c4:	3d3d                	.insn	2, 0x3d3d
    20c6:	000a                	.insn	2, 0x000a

000020c8 <map>:
	...
    2180:	00000003          	lb	zero,0(zero) # 0 <_isr_handler>
    2184:	0002                	.insn	2, 0x0002
    2186:	0000                	.insn	2, 0x
    2188:	0002                	.insn	2, 0x0002
    218a:	0000                	.insn	2, 0x
    218c:	0002                	.insn	2, 0x0002
    218e:	0000                	.insn	2, 0x
    2190:	0002                	.insn	2, 0x0002
    2192:	0000                	.insn	2, 0x
    2194:	0002                	.insn	2, 0x0002
    2196:	0000                	.insn	2, 0x
    2198:	0002                	.insn	2, 0x0002
    219a:	0000                	.insn	2, 0x
    219c:	0002                	.insn	2, 0x0002
    219e:	0000                	.insn	2, 0x
    21a0:	0002                	.insn	2, 0x0002
    21a2:	0000                	.insn	2, 0x
    21a4:	0002                	.insn	2, 0x0002
    21a6:	0000                	.insn	2, 0x
    21a8:	0002                	.insn	2, 0x0002
    21aa:	0000                	.insn	2, 0x
    21ac:	0002                	.insn	2, 0x0002
    21ae:	0000                	.insn	2, 0x
    21b0:	0002                	.insn	2, 0x0002
    21b2:	0000                	.insn	2, 0x
    21b4:	0004                	.insn	2, 0x0004
    21b6:	0000                	.insn	2, 0x
    21b8:	00000003          	lb	zero,0(zero) # 0 <_isr_handler>
    21bc:	0002                	.insn	2, 0x0002
    21be:	0000                	.insn	2, 0x
    21c0:	0002                	.insn	2, 0x0002
    21c2:	0000                	.insn	2, 0x
    21c4:	0002                	.insn	2, 0x0002
    21c6:	0000                	.insn	2, 0x
    21c8:	0002                	.insn	2, 0x0002
    21ca:	0000                	.insn	2, 0x
    21cc:	0002                	.insn	2, 0x0002
    21ce:	0000                	.insn	2, 0x
    21d0:	0002                	.insn	2, 0x0002
    21d2:	0000                	.insn	2, 0x
    21d4:	0002                	.insn	2, 0x0002
    21d6:	0000                	.insn	2, 0x
    21d8:	0002                	.insn	2, 0x0002
    21da:	0000                	.insn	2, 0x
    21dc:	0002                	.insn	2, 0x0002
    21de:	0000                	.insn	2, 0x
    21e0:	0002                	.insn	2, 0x0002
    21e2:	0000                	.insn	2, 0x
    21e4:	0002                	.insn	2, 0x0002
    21e6:	0000                	.insn	2, 0x
    21e8:	0002                	.insn	2, 0x0002
    21ea:	0000                	.insn	2, 0x
    21ec:	0004                	.insn	2, 0x0004
	...
    221e:	0000                	.insn	2, 0x
    2220:	0001                	.insn	2, 0x0001
	...
    2252:	0000                	.insn	2, 0x
    2254:	0001                	.insn	2, 0x0001
    2256:	0000                	.insn	2, 0x
    2258:	0001                	.insn	2, 0x0001
	...
    228a:	0000                	.insn	2, 0x
    228c:	0001                	.insn	2, 0x0001
	...
    22be:	0000                	.insn	2, 0x
    22c0:	0001                	.insn	2, 0x0001
    22c2:	0000                	.insn	2, 0x
    22c4:	0000                	.insn	2, 0x
    22c6:	0000                	.insn	2, 0x
    22c8:	00000003          	lb	zero,0(zero) # 0 <_isr_handler>
    22cc:	0002                	.insn	2, 0x0002
    22ce:	0000                	.insn	2, 0x
    22d0:	0002                	.insn	2, 0x0002
    22d2:	0000                	.insn	2, 0x
    22d4:	0004                	.insn	2, 0x0004
    22d6:	0000                	.insn	2, 0x
    22d8:	0000                	.insn	2, 0x
    22da:	0000                	.insn	2, 0x
    22dc:	00000003          	lb	zero,0(zero) # 0 <_isr_handler>
    22e0:	0002                	.insn	2, 0x0002
    22e2:	0000                	.insn	2, 0x
    22e4:	0002                	.insn	2, 0x0002
    22e6:	0000                	.insn	2, 0x
    22e8:	0002                	.insn	2, 0x0002
    22ea:	0000                	.insn	2, 0x
    22ec:	0004                	.insn	2, 0x0004
    22ee:	0000                	.insn	2, 0x
    22f0:	0000                	.insn	2, 0x
    22f2:	0000                	.insn	2, 0x
    22f4:	0001                	.insn	2, 0x0001
    22f6:	0000                	.insn	2, 0x
    22f8:	0001                	.insn	2, 0x0001
    22fa:	0000                	.insn	2, 0x
    22fc:	0000                	.insn	2, 0x
    22fe:	0000                	.insn	2, 0x
    2300:	00000003          	lb	zero,0(zero) # 0 <_isr_handler>
    2304:	0002                	.insn	2, 0x0002
    2306:	0000                	.insn	2, 0x
    2308:	0002                	.insn	2, 0x0002
    230a:	0000                	.insn	2, 0x
    230c:	0002                	.insn	2, 0x0002
    230e:	0000                	.insn	2, 0x
    2310:	0004                	.insn	2, 0x0004
    2312:	0000                	.insn	2, 0x
    2314:	0000                	.insn	2, 0x
    2316:	0000                	.insn	2, 0x
    2318:	00000003          	lb	zero,0(zero) # 0 <_isr_handler>
    231c:	0002                	.insn	2, 0x0002
    231e:	0000                	.insn	2, 0x
    2320:	0002                	.insn	2, 0x0002
    2322:	0000                	.insn	2, 0x
    2324:	0004                	.insn	2, 0x0004
    2326:	0000                	.insn	2, 0x
    2328:	0000                	.insn	2, 0x
    232a:	0000                	.insn	2, 0x
    232c:	0001                	.insn	2, 0x0001
	...
    235e:	0000                	.insn	2, 0x
    2360:	0001                	.insn	2, 0x0001
    2362:	0000                	.insn	2, 0x
    2364:	0000                	.insn	2, 0x
    2366:	0000                	.insn	2, 0x
    2368:	0005                	.insn	2, 0x0005
    236a:	0000                	.insn	2, 0x
    236c:	0002                	.insn	2, 0x0002
    236e:	0000                	.insn	2, 0x
    2370:	0002                	.insn	2, 0x0002
    2372:	0000                	.insn	2, 0x
    2374:	0006                	.insn	2, 0x0006
    2376:	0000                	.insn	2, 0x
    2378:	0000                	.insn	2, 0x
    237a:	0000                	.insn	2, 0x
    237c:	0005                	.insn	2, 0x0005
    237e:	0000                	.insn	2, 0x
    2380:	0002                	.insn	2, 0x0002
    2382:	0000                	.insn	2, 0x
    2384:	0002                	.insn	2, 0x0002
    2386:	0000                	.insn	2, 0x
    2388:	0002                	.insn	2, 0x0002
    238a:	0000                	.insn	2, 0x
    238c:	0006                	.insn	2, 0x0006
    238e:	0000                	.insn	2, 0x
    2390:	0000                	.insn	2, 0x
    2392:	0000                	.insn	2, 0x
    2394:	0005                	.insn	2, 0x0005
    2396:	0000                	.insn	2, 0x
    2398:	0006                	.insn	2, 0x0006
    239a:	0000                	.insn	2, 0x
    239c:	0000                	.insn	2, 0x
    239e:	0000                	.insn	2, 0x
    23a0:	0005                	.insn	2, 0x0005
    23a2:	0000                	.insn	2, 0x
    23a4:	0002                	.insn	2, 0x0002
    23a6:	0000                	.insn	2, 0x
    23a8:	0002                	.insn	2, 0x0002
    23aa:	0000                	.insn	2, 0x
    23ac:	0002                	.insn	2, 0x0002
    23ae:	0000                	.insn	2, 0x
    23b0:	0006                	.insn	2, 0x0006
    23b2:	0000                	.insn	2, 0x
    23b4:	0000                	.insn	2, 0x
    23b6:	0000                	.insn	2, 0x
    23b8:	0005                	.insn	2, 0x0005
    23ba:	0000                	.insn	2, 0x
    23bc:	0002                	.insn	2, 0x0002
    23be:	0000                	.insn	2, 0x
    23c0:	0002                	.insn	2, 0x0002
    23c2:	0000                	.insn	2, 0x
    23c4:	0006                	.insn	2, 0x0006
    23c6:	0000                	.insn	2, 0x
    23c8:	0000                	.insn	2, 0x
    23ca:	0000                	.insn	2, 0x
    23cc:	0001                	.insn	2, 0x0001
	...
    23fe:	0000                	.insn	2, 0x
    2400:	0001                	.insn	2, 0x0001
	...
    246a:	0000                	.insn	2, 0x
    246c:	0001                	.insn	2, 0x0001
	...
    249e:	0000                	.insn	2, 0x
    24a0:	0001                	.insn	2, 0x0001
    24a2:	0000                	.insn	2, 0x
    24a4:	0000                	.insn	2, 0x
    24a6:	0000                	.insn	2, 0x
    24a8:	00000003          	lb	zero,0(zero) # 0 <_isr_handler>
    24ac:	0002                	.insn	2, 0x0002
    24ae:	0000                	.insn	2, 0x
    24b0:	0002                	.insn	2, 0x0002
    24b2:	0000                	.insn	2, 0x
    24b4:	0004                	.insn	2, 0x0004
	...
    24c6:	0000                	.insn	2, 0x
    24c8:	00000003          	lb	zero,0(zero) # 0 <_isr_handler>
    24cc:	0002                	.insn	2, 0x0002
    24ce:	0000                	.insn	2, 0x
    24d0:	0002                	.insn	2, 0x0002
    24d2:	0000                	.insn	2, 0x
    24d4:	0002                	.insn	2, 0x0002
    24d6:	0000                	.insn	2, 0x
    24d8:	0002                	.insn	2, 0x0002
    24da:	0000                	.insn	2, 0x
    24dc:	0002                	.insn	2, 0x0002
    24de:	0000                	.insn	2, 0x
    24e0:	0002                	.insn	2, 0x0002
    24e2:	0000                	.insn	2, 0x
    24e4:	0004                	.insn	2, 0x0004
    24e6:	0000                	.insn	2, 0x
    24e8:	0000                	.insn	2, 0x
    24ea:	0000                	.insn	2, 0x
    24ec:	00000003          	lb	zero,0(zero) # 0 <_isr_handler>
    24f0:	0004                	.insn	2, 0x0004
    24f2:	0000                	.insn	2, 0x
    24f4:	0000                	.insn	2, 0x
    24f6:	0000                	.insn	2, 0x
    24f8:	00000003          	lb	zero,0(zero) # 0 <_isr_handler>
    24fc:	0002                	.insn	2, 0x0002
    24fe:	0000                	.insn	2, 0x
    2500:	0002                	.insn	2, 0x0002
    2502:	0000                	.insn	2, 0x
    2504:	0004                	.insn	2, 0x0004
    2506:	0000                	.insn	2, 0x
    2508:	0000                	.insn	2, 0x
    250a:	0000                	.insn	2, 0x
    250c:	0001                	.insn	2, 0x0001
	...
    253e:	0000                	.insn	2, 0x
    2540:	0001                	.insn	2, 0x0001
    2542:	0000                	.insn	2, 0x
    2544:	0000                	.insn	2, 0x
    2546:	0000                	.insn	2, 0x
    2548:	0001                	.insn	2, 0x0001
	...
    2552:	0000                	.insn	2, 0x
    2554:	0001                	.insn	2, 0x0001
    2556:	0000                	.insn	2, 0x
    2558:	0000                	.insn	2, 0x
    255a:	0000                	.insn	2, 0x
    255c:	00000003          	lb	zero,0(zero) # 0 <_isr_handler>
    2560:	0004                	.insn	2, 0x0004
    2562:	0000                	.insn	2, 0x
    2564:	0000                	.insn	2, 0x
    2566:	0000                	.insn	2, 0x
    2568:	0005                	.insn	2, 0x0005
    256a:	0000                	.insn	2, 0x
    256c:	0002                	.insn	2, 0x0002
    256e:	0000                	.insn	2, 0x
    2570:	0002                	.insn	2, 0x0002
    2572:	0000                	.insn	2, 0x
    2574:	0004                	.insn	2, 0x0004
    2576:	0000                	.insn	2, 0x
    2578:	00000003          	lb	zero,0(zero) # 0 <_isr_handler>
    257c:	0002                	.insn	2, 0x0002
    257e:	0000                	.insn	2, 0x
    2580:	0002                	.insn	2, 0x0002
    2582:	0000                	.insn	2, 0x
    2584:	0006                	.insn	2, 0x0006
    2586:	0000                	.insn	2, 0x
    2588:	0000                	.insn	2, 0x
    258a:	0000                	.insn	2, 0x
    258c:	0001                	.insn	2, 0x0001
    258e:	0000                	.insn	2, 0x
    2590:	0001                	.insn	2, 0x0001
    2592:	0000                	.insn	2, 0x
    2594:	0000                	.insn	2, 0x
    2596:	0000                	.insn	2, 0x
    2598:	0001                	.insn	2, 0x0001
	...
    25a2:	0000                	.insn	2, 0x
    25a4:	0001                	.insn	2, 0x0001
    25a6:	0000                	.insn	2, 0x
    25a8:	0000                	.insn	2, 0x
    25aa:	0000                	.insn	2, 0x
    25ac:	0001                	.insn	2, 0x0001
	...
    25de:	0000                	.insn	2, 0x
    25e0:	0001                	.insn	2, 0x0001
    25e2:	0000                	.insn	2, 0x
    25e4:	0000                	.insn	2, 0x
    25e6:	0000                	.insn	2, 0x
    25e8:	0005                	.insn	2, 0x0005
    25ea:	0000                	.insn	2, 0x
    25ec:	0002                	.insn	2, 0x0002
    25ee:	0000                	.insn	2, 0x
    25f0:	0002                	.insn	2, 0x0002
    25f2:	0000                	.insn	2, 0x
    25f4:	0006                	.insn	2, 0x0006
    25f6:	0000                	.insn	2, 0x
    25f8:	0000                	.insn	2, 0x
    25fa:	0000                	.insn	2, 0x
    25fc:	0001                	.insn	2, 0x0001
    25fe:	0000                	.insn	2, 0x
    2600:	0001                	.insn	2, 0x0001
	...
    2612:	0000                	.insn	2, 0x
    2614:	0001                	.insn	2, 0x0001
    2616:	0000                	.insn	2, 0x
    2618:	0001                	.insn	2, 0x0001
	...
    262a:	0000                	.insn	2, 0x
    262c:	0001                	.insn	2, 0x0001
    262e:	0000                	.insn	2, 0x
    2630:	0001                	.insn	2, 0x0001
    2632:	0000                	.insn	2, 0x
    2634:	0000                	.insn	2, 0x
    2636:	0000                	.insn	2, 0x
    2638:	0005                	.insn	2, 0x0005
    263a:	0000                	.insn	2, 0x
    263c:	0002                	.insn	2, 0x0002
    263e:	0000                	.insn	2, 0x
    2640:	0002                	.insn	2, 0x0002
    2642:	0000                	.insn	2, 0x
    2644:	0006                	.insn	2, 0x0006
    2646:	0000                	.insn	2, 0x
    2648:	0000                	.insn	2, 0x
    264a:	0000                	.insn	2, 0x
    264c:	0001                	.insn	2, 0x0001
	...
    267e:	0000                	.insn	2, 0x
    2680:	0001                	.insn	2, 0x0001
	...
    269a:	0000                	.insn	2, 0x
    269c:	0001                	.insn	2, 0x0001
    269e:	0000                	.insn	2, 0x
    26a0:	0001                	.insn	2, 0x0001
	...
    26b2:	0000                	.insn	2, 0x
    26b4:	0001                	.insn	2, 0x0001
    26b6:	0000                	.insn	2, 0x
    26b8:	0001                	.insn	2, 0x0001
    26ba:	0000                	.insn	2, 0x
    26bc:	0000                	.insn	2, 0x
    26be:	0000                	.insn	2, 0x
    26c0:	00000003          	lb	zero,0(zero) # 0 <_isr_handler>
    26c4:	0002                	.insn	2, 0x0002
    26c6:	0000                	.insn	2, 0x
    26c8:	0002                	.insn	2, 0x0002
    26ca:	0000                	.insn	2, 0x
    26cc:	0006                	.insn	2, 0x0006
    26ce:	0000                	.insn	2, 0x
    26d0:	0001                	.insn	2, 0x0001
	...
    26ea:	0000                	.insn	2, 0x
    26ec:	0001                	.insn	2, 0x0001
	...
    271e:	0000                	.insn	2, 0x
    2720:	0005                	.insn	2, 0x0005
    2722:	0000                	.insn	2, 0x
    2724:	0002                	.insn	2, 0x0002
    2726:	0000                	.insn	2, 0x
    2728:	0002                	.insn	2, 0x0002
    272a:	0000                	.insn	2, 0x
    272c:	0002                	.insn	2, 0x0002
    272e:	0000                	.insn	2, 0x
    2730:	0002                	.insn	2, 0x0002
    2732:	0000                	.insn	2, 0x
    2734:	0004                	.insn	2, 0x0004
    2736:	0000                	.insn	2, 0x
    2738:	0000                	.insn	2, 0x
    273a:	0000                	.insn	2, 0x
    273c:	0001                	.insn	2, 0x0001
    273e:	0000                	.insn	2, 0x
    2740:	0005                	.insn	2, 0x0005
    2742:	0000                	.insn	2, 0x
    2744:	0002                	.insn	2, 0x0002
    2746:	0000                	.insn	2, 0x
    2748:	0002                	.insn	2, 0x0002
    274a:	0000                	.insn	2, 0x
    274c:	0004                	.insn	2, 0x0004
    274e:	0000                	.insn	2, 0x
    2750:	0000                	.insn	2, 0x
    2752:	0000                	.insn	2, 0x
    2754:	0005                	.insn	2, 0x0005
    2756:	0000                	.insn	2, 0x
    2758:	0006                	.insn	2, 0x0006
    275a:	0000                	.insn	2, 0x
    275c:	0000                	.insn	2, 0x
    275e:	0000                	.insn	2, 0x
    2760:	0005                	.insn	2, 0x0005
    2762:	0000                	.insn	2, 0x
    2764:	0002                	.insn	2, 0x0002
    2766:	0000                	.insn	2, 0x
    2768:	0002                	.insn	2, 0x0002
    276a:	0000                	.insn	2, 0x
    276c:	0004                	.insn	2, 0x0004
    276e:	0000                	.insn	2, 0x
    2770:	0001                	.insn	2, 0x0001
    2772:	0000                	.insn	2, 0x
    2774:	0000                	.insn	2, 0x
    2776:	0000                	.insn	2, 0x
    2778:	00000003          	lb	zero,0(zero) # 0 <_isr_handler>
    277c:	0002                	.insn	2, 0x0002
    277e:	0000                	.insn	2, 0x
    2780:	0002                	.insn	2, 0x0002
    2782:	0000                	.insn	2, 0x
    2784:	0002                	.insn	2, 0x0002
    2786:	0000                	.insn	2, 0x
    2788:	0002                	.insn	2, 0x0002
    278a:	0000                	.insn	2, 0x
    278c:	0006                	.insn	2, 0x0006
	...
    27d2:	0000                	.insn	2, 0x
    27d4:	0001                	.insn	2, 0x0001
    27d6:	0000                	.insn	2, 0x
    27d8:	0000                	.insn	2, 0x
    27da:	0000                	.insn	2, 0x
    27dc:	0001                	.insn	2, 0x0001
    27de:	0000                	.insn	2, 0x
    27e0:	00000003          	lb	zero,0(zero) # 0 <_isr_handler>
    27e4:	0002                	.insn	2, 0x0002
    27e6:	0000                	.insn	2, 0x
    27e8:	0002                	.insn	2, 0x0002
    27ea:	0000                	.insn	2, 0x
    27ec:	0006                	.insn	2, 0x0006
	...
    280a:	0000                	.insn	2, 0x
    280c:	0001                	.insn	2, 0x0001
    280e:	0000                	.insn	2, 0x
    2810:	0001                	.insn	2, 0x0001
    2812:	0000                	.insn	2, 0x
    2814:	0000                	.insn	2, 0x
    2816:	0000                	.insn	2, 0x
    2818:	0001                	.insn	2, 0x0001
	...
    2872:	0000                	.insn	2, 0x
    2874:	0001                	.insn	2, 0x0001
    2876:	0000                	.insn	2, 0x
    2878:	0000                	.insn	2, 0x
    287a:	0000                	.insn	2, 0x
    287c:	0001                	.insn	2, 0x0001
    287e:	0000                	.insn	2, 0x
    2880:	0001                	.insn	2, 0x0001
	...
    28aa:	0000                	.insn	2, 0x
    28ac:	0001                	.insn	2, 0x0001
    28ae:	0000                	.insn	2, 0x
    28b0:	0001                	.insn	2, 0x0001
    28b2:	0000                	.insn	2, 0x
    28b4:	0000                	.insn	2, 0x
    28b6:	0000                	.insn	2, 0x
    28b8:	0001                	.insn	2, 0x0001
	...
    28e6:	0000                	.insn	2, 0x
    28e8:	0002                	.insn	2, 0x0002
    28ea:	0000                	.insn	2, 0x
    28ec:	0002                	.insn	2, 0x0002
    28ee:	0000                	.insn	2, 0x
    28f0:	0002                	.insn	2, 0x0002
    28f2:	0000                	.insn	2, 0x
    28f4:	0002                	.insn	2, 0x0002
    28f6:	0000                	.insn	2, 0x
    28f8:	0002                	.insn	2, 0x0002
    28fa:	0000                	.insn	2, 0x
    28fc:	0002                	.insn	2, 0x0002
    28fe:	0000                	.insn	2, 0x
    2900:	0002                	.insn	2, 0x0002
    2902:	0000                	.insn	2, 0x
    2904:	0002                	.insn	2, 0x0002
    2906:	0000                	.insn	2, 0x
    2908:	0002                	.insn	2, 0x0002
    290a:	0000                	.insn	2, 0x
    290c:	0002                	.insn	2, 0x0002
    290e:	0000                	.insn	2, 0x
    2910:	0002                	.insn	2, 0x0002
    2912:	0000                	.insn	2, 0x
    2914:	0006                	.insn	2, 0x0006
    2916:	0000                	.insn	2, 0x
    2918:	0000                	.insn	2, 0x
    291a:	0000                	.insn	2, 0x
    291c:	0005                	.insn	2, 0x0005
    291e:	0000                	.insn	2, 0x
    2920:	0006                	.insn	2, 0x0006
    2922:	0000                	.insn	2, 0x
    2924:	0000                	.insn	2, 0x
    2926:	0000                	.insn	2, 0x
    2928:	00000003          	lb	zero,0(zero) # 0 <_isr_handler>
    292c:	0002                	.insn	2, 0x0002
    292e:	0000                	.insn	2, 0x
    2930:	0002                	.insn	2, 0x0002
    2932:	0000                	.insn	2, 0x
    2934:	0002                	.insn	2, 0x0002
    2936:	0000                	.insn	2, 0x
    2938:	0002                	.insn	2, 0x0002
    293a:	0000                	.insn	2, 0x
    293c:	0002                	.insn	2, 0x0002
    293e:	0000                	.insn	2, 0x
    2940:	0002                	.insn	2, 0x0002
    2942:	0000                	.insn	2, 0x
    2944:	0004                	.insn	2, 0x0004
    2946:	0000                	.insn	2, 0x
    2948:	0000                	.insn	2, 0x
    294a:	0000                	.insn	2, 0x
    294c:	0005                	.insn	2, 0x0005
    294e:	0000                	.insn	2, 0x
    2950:	0006                	.insn	2, 0x0006
    2952:	0000                	.insn	2, 0x
    2954:	0000                	.insn	2, 0x
    2956:	0000                	.insn	2, 0x
    2958:	0005                	.insn	2, 0x0005
    295a:	0000                	.insn	2, 0x
    295c:	0002                	.insn	2, 0x0002
    295e:	0000                	.insn	2, 0x
    2960:	0002                	.insn	2, 0x0002
    2962:	0000                	.insn	2, 0x
    2964:	0002                	.insn	2, 0x0002
    2966:	0000                	.insn	2, 0x
    2968:	0002                	.insn	2, 0x0002
    296a:	0000                	.insn	2, 0x
    296c:	0002                	.insn	2, 0x0002
    296e:	0000                	.insn	2, 0x
    2970:	0002                	.insn	2, 0x0002
    2972:	0000                	.insn	2, 0x
    2974:	0002                	.insn	2, 0x0002
    2976:	0000                	.insn	2, 0x
    2978:	0002                	.insn	2, 0x0002
    297a:	0000                	.insn	2, 0x
    297c:	0002                	.insn	2, 0x0002
    297e:	0000                	.insn	2, 0x
    2980:	0002                	.insn	2, 0x0002
    2982:	0000                	.insn	2, 0x
    2984:	0002                	.insn	2, 0x0002
	...
    29c6:	0000                	.insn	2, 0x
    29c8:	0001                	.insn	2, 0x0001
	...
    29e2:	0000                	.insn	2, 0x
    29e4:	0001                	.insn	2, 0x0001
	...
    2a26:	0000                	.insn	2, 0x
    2a28:	0002                	.insn	2, 0x0002
    2a2a:	0000                	.insn	2, 0x
    2a2c:	0002                	.insn	2, 0x0002
    2a2e:	0000                	.insn	2, 0x
    2a30:	0002                	.insn	2, 0x0002
    2a32:	0000                	.insn	2, 0x
    2a34:	0002                	.insn	2, 0x0002
    2a36:	0000                	.insn	2, 0x
    2a38:	0002                	.insn	2, 0x0002
    2a3a:	0000                	.insn	2, 0x
    2a3c:	0002                	.insn	2, 0x0002
    2a3e:	0000                	.insn	2, 0x
    2a40:	0002                	.insn	2, 0x0002
    2a42:	0000                	.insn	2, 0x
    2a44:	0002                	.insn	2, 0x0002
    2a46:	0000                	.insn	2, 0x
    2a48:	0002                	.insn	2, 0x0002
    2a4a:	0000                	.insn	2, 0x
    2a4c:	0002                	.insn	2, 0x0002
    2a4e:	0000                	.insn	2, 0x
    2a50:	0002                	.insn	2, 0x0002
    2a52:	0000                	.insn	2, 0x
    2a54:	0004                	.insn	2, 0x0004
    2a56:	0000                	.insn	2, 0x
    2a58:	0000                	.insn	2, 0x
    2a5a:	0000                	.insn	2, 0x
    2a5c:	00000003          	lb	zero,0(zero) # 0 <_isr_handler>
    2a60:	0004                	.insn	2, 0x0004
    2a62:	0000                	.insn	2, 0x
    2a64:	0000                	.insn	2, 0x
    2a66:	0000                	.insn	2, 0x
    2a68:	0005                	.insn	2, 0x0005
    2a6a:	0000                	.insn	2, 0x
    2a6c:	0002                	.insn	2, 0x0002
    2a6e:	0000                	.insn	2, 0x
    2a70:	0002                	.insn	2, 0x0002
    2a72:	0000                	.insn	2, 0x
    2a74:	0002                	.insn	2, 0x0002
    2a76:	0000                	.insn	2, 0x
    2a78:	0002                	.insn	2, 0x0002
    2a7a:	0000                	.insn	2, 0x
    2a7c:	0002                	.insn	2, 0x0002
    2a7e:	0000                	.insn	2, 0x
    2a80:	0002                	.insn	2, 0x0002
    2a82:	0000                	.insn	2, 0x
    2a84:	0006                	.insn	2, 0x0006
    2a86:	0000                	.insn	2, 0x
    2a88:	0000                	.insn	2, 0x
    2a8a:	0000                	.insn	2, 0x
    2a8c:	00000003          	lb	zero,0(zero) # 0 <_isr_handler>
    2a90:	0004                	.insn	2, 0x0004
    2a92:	0000                	.insn	2, 0x
    2a94:	0000                	.insn	2, 0x
    2a96:	0000                	.insn	2, 0x
    2a98:	00000003          	lb	zero,0(zero) # 0 <_isr_handler>
    2a9c:	0002                	.insn	2, 0x0002
    2a9e:	0000                	.insn	2, 0x
    2aa0:	0002                	.insn	2, 0x0002
    2aa2:	0000                	.insn	2, 0x
    2aa4:	0002                	.insn	2, 0x0002
    2aa6:	0000                	.insn	2, 0x
    2aa8:	0002                	.insn	2, 0x0002
    2aaa:	0000                	.insn	2, 0x
    2aac:	0002                	.insn	2, 0x0002
    2aae:	0000                	.insn	2, 0x
    2ab0:	0002                	.insn	2, 0x0002
    2ab2:	0000                	.insn	2, 0x
    2ab4:	0002                	.insn	2, 0x0002
    2ab6:	0000                	.insn	2, 0x
    2ab8:	0002                	.insn	2, 0x0002
    2aba:	0000                	.insn	2, 0x
    2abc:	0002                	.insn	2, 0x0002
    2abe:	0000                	.insn	2, 0x
    2ac0:	0002                	.insn	2, 0x0002
    2ac2:	0000                	.insn	2, 0x
    2ac4:	0002                	.insn	2, 0x0002
	...
    2af2:	0000                	.insn	2, 0x
    2af4:	0001                	.insn	2, 0x0001
    2af6:	0000                	.insn	2, 0x
    2af8:	0000                	.insn	2, 0x
    2afa:	0000                	.insn	2, 0x
    2afc:	0001                	.insn	2, 0x0001
    2afe:	0000                	.insn	2, 0x
    2b00:	0001                	.insn	2, 0x0001
	...
    2b2a:	0000                	.insn	2, 0x
    2b2c:	0001                	.insn	2, 0x0001
    2b2e:	0000                	.insn	2, 0x
    2b30:	0001                	.insn	2, 0x0001
    2b32:	0000                	.insn	2, 0x
    2b34:	0000                	.insn	2, 0x
    2b36:	0000                	.insn	2, 0x
    2b38:	0001                	.insn	2, 0x0001
	...
    2b92:	0000                	.insn	2, 0x
    2b94:	0001                	.insn	2, 0x0001
    2b96:	0000                	.insn	2, 0x
    2b98:	0000                	.insn	2, 0x
    2b9a:	0000                	.insn	2, 0x
    2b9c:	0001                	.insn	2, 0x0001
    2b9e:	0000                	.insn	2, 0x
    2ba0:	0001                	.insn	2, 0x0001
    2ba2:	0000                	.insn	2, 0x
    2ba4:	0000                	.insn	2, 0x
    2ba6:	0000                	.insn	2, 0x
    2ba8:	00000003          	lb	zero,0(zero) # 0 <_isr_handler>
    2bac:	0002                	.insn	2, 0x0002
    2bae:	0000                	.insn	2, 0x
    2bb0:	0002                	.insn	2, 0x0002
    2bb2:	0000                	.insn	2, 0x
    2bb4:	0002                	.insn	2, 0x0002
    2bb6:	0000                	.insn	2, 0x
    2bb8:	0002                	.insn	2, 0x0002
    2bba:	0000                	.insn	2, 0x
    2bbc:	0002                	.insn	2, 0x0002
    2bbe:	0000                	.insn	2, 0x
    2bc0:	0002                	.insn	2, 0x0002
    2bc2:	0000                	.insn	2, 0x
    2bc4:	0004                	.insn	2, 0x0004
    2bc6:	0000                	.insn	2, 0x
    2bc8:	0000                	.insn	2, 0x
    2bca:	0000                	.insn	2, 0x
    2bcc:	0001                	.insn	2, 0x0001
    2bce:	0000                	.insn	2, 0x
    2bd0:	0001                	.insn	2, 0x0001
    2bd2:	0000                	.insn	2, 0x
    2bd4:	0000                	.insn	2, 0x
    2bd6:	0000                	.insn	2, 0x
    2bd8:	0001                	.insn	2, 0x0001
	...
    2c1e:	0000                	.insn	2, 0x
    2c20:	00000003          	lb	zero,0(zero) # 0 <_isr_handler>
    2c24:	0002                	.insn	2, 0x0002
    2c26:	0000                	.insn	2, 0x
    2c28:	0002                	.insn	2, 0x0002
    2c2a:	0000                	.insn	2, 0x
    2c2c:	0002                	.insn	2, 0x0002
    2c2e:	0000                	.insn	2, 0x
    2c30:	0002                	.insn	2, 0x0002
    2c32:	0000                	.insn	2, 0x
    2c34:	0006                	.insn	2, 0x0006
    2c36:	0000                	.insn	2, 0x
    2c38:	0000                	.insn	2, 0x
    2c3a:	0000                	.insn	2, 0x
    2c3c:	0005                	.insn	2, 0x0005
    2c3e:	0000                	.insn	2, 0x
    2c40:	0006                	.insn	2, 0x0006
    2c42:	0000                	.insn	2, 0x
    2c44:	0000                	.insn	2, 0x
    2c46:	0000                	.insn	2, 0x
    2c48:	0005                	.insn	2, 0x0005
    2c4a:	0000                	.insn	2, 0x
    2c4c:	0002                	.insn	2, 0x0002
    2c4e:	0000                	.insn	2, 0x
    2c50:	0002                	.insn	2, 0x0002
    2c52:	0000                	.insn	2, 0x
    2c54:	0004                	.insn	2, 0x0004
    2c56:	0000                	.insn	2, 0x
    2c58:	00000003          	lb	zero,0(zero) # 0 <_isr_handler>
    2c5c:	0002                	.insn	2, 0x0002
    2c5e:	0000                	.insn	2, 0x
    2c60:	0002                	.insn	2, 0x0002
    2c62:	0000                	.insn	2, 0x
    2c64:	0006                	.insn	2, 0x0006
    2c66:	0000                	.insn	2, 0x
    2c68:	0000                	.insn	2, 0x
    2c6a:	0000                	.insn	2, 0x
    2c6c:	0005                	.insn	2, 0x0005
    2c6e:	0000                	.insn	2, 0x
    2c70:	0006                	.insn	2, 0x0006
    2c72:	0000                	.insn	2, 0x
    2c74:	0000                	.insn	2, 0x
    2c76:	0000                	.insn	2, 0x
    2c78:	0005                	.insn	2, 0x0005
    2c7a:	0000                	.insn	2, 0x
    2c7c:	0002                	.insn	2, 0x0002
    2c7e:	0000                	.insn	2, 0x
    2c80:	0002                	.insn	2, 0x0002
    2c82:	0000                	.insn	2, 0x
    2c84:	0002                	.insn	2, 0x0002
    2c86:	0000                	.insn	2, 0x
    2c88:	0002                	.insn	2, 0x0002
    2c8a:	0000                	.insn	2, 0x
    2c8c:	0004                	.insn	2, 0x0004
	...
    2cbe:	0000                	.insn	2, 0x
    2cc0:	0001                	.insn	2, 0x0001
	...
    2cf2:	0000                	.insn	2, 0x
    2cf4:	0001                	.insn	2, 0x0001
    2cf6:	0000                	.insn	2, 0x
    2cf8:	0001                	.insn	2, 0x0001
	...
    2d2a:	0000                	.insn	2, 0x
    2d2c:	0001                	.insn	2, 0x0001
	...
    2d5e:	0000                	.insn	2, 0x
    2d60:	0001                	.insn	2, 0x0001
    2d62:	0000                	.insn	2, 0x
    2d64:	0000                	.insn	2, 0x
    2d66:	0000                	.insn	2, 0x
    2d68:	00000003          	lb	zero,0(zero) # 0 <_isr_handler>
    2d6c:	0002                	.insn	2, 0x0002
    2d6e:	0000                	.insn	2, 0x
    2d70:	0002                	.insn	2, 0x0002
    2d72:	0000                	.insn	2, 0x
    2d74:	0004                	.insn	2, 0x0004
    2d76:	0000                	.insn	2, 0x
    2d78:	0000                	.insn	2, 0x
    2d7a:	0000                	.insn	2, 0x
    2d7c:	00000003          	lb	zero,0(zero) # 0 <_isr_handler>
    2d80:	0002                	.insn	2, 0x0002
    2d82:	0000                	.insn	2, 0x
    2d84:	0002                	.insn	2, 0x0002
    2d86:	0000                	.insn	2, 0x
    2d88:	0002                	.insn	2, 0x0002
    2d8a:	0000                	.insn	2, 0x
    2d8c:	0004                	.insn	2, 0x0004
    2d8e:	0000                	.insn	2, 0x
    2d90:	0000                	.insn	2, 0x
    2d92:	0000                	.insn	2, 0x
    2d94:	0001                	.insn	2, 0x0001
    2d96:	0000                	.insn	2, 0x
    2d98:	0001                	.insn	2, 0x0001
    2d9a:	0000                	.insn	2, 0x
    2d9c:	0000                	.insn	2, 0x
    2d9e:	0000                	.insn	2, 0x
    2da0:	00000003          	lb	zero,0(zero) # 0 <_isr_handler>
    2da4:	0002                	.insn	2, 0x0002
    2da6:	0000                	.insn	2, 0x
    2da8:	0002                	.insn	2, 0x0002
    2daa:	0000                	.insn	2, 0x
    2dac:	0002                	.insn	2, 0x0002
    2dae:	0000                	.insn	2, 0x
    2db0:	0004                	.insn	2, 0x0004
    2db2:	0000                	.insn	2, 0x
    2db4:	0000                	.insn	2, 0x
    2db6:	0000                	.insn	2, 0x
    2db8:	00000003          	lb	zero,0(zero) # 0 <_isr_handler>
    2dbc:	0002                	.insn	2, 0x0002
    2dbe:	0000                	.insn	2, 0x
    2dc0:	0002                	.insn	2, 0x0002
    2dc2:	0000                	.insn	2, 0x
    2dc4:	0004                	.insn	2, 0x0004
    2dc6:	0000                	.insn	2, 0x
    2dc8:	0000                	.insn	2, 0x
    2dca:	0000                	.insn	2, 0x
    2dcc:	0001                	.insn	2, 0x0001
	...
    2dfe:	0000                	.insn	2, 0x
    2e00:	0001                	.insn	2, 0x0001
    2e02:	0000                	.insn	2, 0x
    2e04:	0000                	.insn	2, 0x
    2e06:	0000                	.insn	2, 0x
    2e08:	0005                	.insn	2, 0x0005
    2e0a:	0000                	.insn	2, 0x
    2e0c:	0002                	.insn	2, 0x0002
    2e0e:	0000                	.insn	2, 0x
    2e10:	0004                	.insn	2, 0x0004
    2e12:	0000                	.insn	2, 0x
    2e14:	0001                	.insn	2, 0x0001
    2e16:	0000                	.insn	2, 0x
    2e18:	0000                	.insn	2, 0x
    2e1a:	0000                	.insn	2, 0x
    2e1c:	0005                	.insn	2, 0x0005
    2e1e:	0000                	.insn	2, 0x
    2e20:	0002                	.insn	2, 0x0002
    2e22:	0000                	.insn	2, 0x
    2e24:	0002                	.insn	2, 0x0002
    2e26:	0000                	.insn	2, 0x
    2e28:	0002                	.insn	2, 0x0002
    2e2a:	0000                	.insn	2, 0x
    2e2c:	0006                	.insn	2, 0x0006
    2e2e:	0000                	.insn	2, 0x
    2e30:	0000                	.insn	2, 0x
    2e32:	0000                	.insn	2, 0x
    2e34:	0005                	.insn	2, 0x0005
    2e36:	0000                	.insn	2, 0x
    2e38:	0006                	.insn	2, 0x0006
    2e3a:	0000                	.insn	2, 0x
    2e3c:	0000                	.insn	2, 0x
    2e3e:	0000                	.insn	2, 0x
    2e40:	0005                	.insn	2, 0x0005
    2e42:	0000                	.insn	2, 0x
    2e44:	0002                	.insn	2, 0x0002
    2e46:	0000                	.insn	2, 0x
    2e48:	0002                	.insn	2, 0x0002
    2e4a:	0000                	.insn	2, 0x
    2e4c:	0002                	.insn	2, 0x0002
    2e4e:	0000                	.insn	2, 0x
    2e50:	0006                	.insn	2, 0x0006
    2e52:	0000                	.insn	2, 0x
    2e54:	0000                	.insn	2, 0x
    2e56:	0000                	.insn	2, 0x
    2e58:	0001                	.insn	2, 0x0001
    2e5a:	0000                	.insn	2, 0x
    2e5c:	00000003          	lb	zero,0(zero) # 0 <_isr_handler>
    2e60:	0002                	.insn	2, 0x0002
    2e62:	0000                	.insn	2, 0x
    2e64:	0006                	.insn	2, 0x0006
    2e66:	0000                	.insn	2, 0x
    2e68:	0000                	.insn	2, 0x
    2e6a:	0000                	.insn	2, 0x
    2e6c:	0001                	.insn	2, 0x0001
	...
    2e9e:	0000                	.insn	2, 0x
    2ea0:	0001                	.insn	2, 0x0001
	...
    2eae:	0000                	.insn	2, 0x
    2eb0:	0001                	.insn	2, 0x0001
    2eb2:	0000                	.insn	2, 0x
    2eb4:	0001                	.insn	2, 0x0001
	...
    2ef6:	0000                	.insn	2, 0x
    2ef8:	0001                	.insn	2, 0x0001
    2efa:	0000                	.insn	2, 0x
    2efc:	0001                	.insn	2, 0x0001
	...
    2f0a:	0000                	.insn	2, 0x
    2f0c:	0001                	.insn	2, 0x0001
	...
    2f3e:	0000                	.insn	2, 0x
    2f40:	0005                	.insn	2, 0x0005
    2f42:	0000                	.insn	2, 0x
    2f44:	0002                	.insn	2, 0x0002
    2f46:	0000                	.insn	2, 0x
    2f48:	0004                	.insn	2, 0x0004
    2f4a:	0000                	.insn	2, 0x
    2f4c:	0000                	.insn	2, 0x
    2f4e:	0000                	.insn	2, 0x
    2f50:	0001                	.insn	2, 0x0001
    2f52:	0000                	.insn	2, 0x
    2f54:	0001                	.insn	2, 0x0001
    2f56:	0000                	.insn	2, 0x
    2f58:	0000                	.insn	2, 0x
    2f5a:	0000                	.insn	2, 0x
    2f5c:	00000003          	lb	zero,0(zero) # 0 <_isr_handler>
    2f60:	0004                	.insn	2, 0x0004
    2f62:	0000                	.insn	2, 0x
    2f64:	0000                	.insn	2, 0x
    2f66:	0000                	.insn	2, 0x
    2f68:	00000003          	lb	zero,0(zero) # 0 <_isr_handler>
    2f6c:	0002                	.insn	2, 0x0002
    2f6e:	0000                	.insn	2, 0x
    2f70:	0002                	.insn	2, 0x0002
    2f72:	0000                	.insn	2, 0x
    2f74:	0002                	.insn	2, 0x0002
    2f76:	0000                	.insn	2, 0x
    2f78:	0002                	.insn	2, 0x0002
    2f7a:	0000                	.insn	2, 0x
    2f7c:	0002                	.insn	2, 0x0002
    2f7e:	0000                	.insn	2, 0x
    2f80:	0002                	.insn	2, 0x0002
    2f82:	0000                	.insn	2, 0x
    2f84:	0004                	.insn	2, 0x0004
    2f86:	0000                	.insn	2, 0x
    2f88:	0000                	.insn	2, 0x
    2f8a:	0000                	.insn	2, 0x
    2f8c:	00000003          	lb	zero,0(zero) # 0 <_isr_handler>
    2f90:	0004                	.insn	2, 0x0004
    2f92:	0000                	.insn	2, 0x
    2f94:	0000                	.insn	2, 0x
    2f96:	0000                	.insn	2, 0x
    2f98:	0001                	.insn	2, 0x0001
    2f9a:	0000                	.insn	2, 0x
    2f9c:	0001                	.insn	2, 0x0001
    2f9e:	0000                	.insn	2, 0x
    2fa0:	0000                	.insn	2, 0x
    2fa2:	0000                	.insn	2, 0x
    2fa4:	00000003          	lb	zero,0(zero) # 0 <_isr_handler>
    2fa8:	0002                	.insn	2, 0x0002
    2faa:	0000                	.insn	2, 0x
    2fac:	0006                	.insn	2, 0x0006
	...
    2fde:	0000                	.insn	2, 0x
    2fe0:	00000003          	lb	zero,0(zero) # 0 <_isr_handler>
    2fe4:	0002                	.insn	2, 0x0002
    2fe6:	0000                	.insn	2, 0x
    2fe8:	0006                	.insn	2, 0x0006
    2fea:	0000                	.insn	2, 0x
    2fec:	0000                	.insn	2, 0x
    2fee:	0000                	.insn	2, 0x
    2ff0:	0005                	.insn	2, 0x0005
    2ff2:	0000                	.insn	2, 0x
    2ff4:	0006                	.insn	2, 0x0006
    2ff6:	0000                	.insn	2, 0x
    2ff8:	0000                	.insn	2, 0x
    2ffa:	0000                	.insn	2, 0x
    2ffc:	0001                	.insn	2, 0x0001
    2ffe:	0000                	.insn	2, 0x
    3000:	0001                	.insn	2, 0x0001
    3002:	0000                	.insn	2, 0x
    3004:	0000                	.insn	2, 0x
    3006:	0000                	.insn	2, 0x
    3008:	0005                	.insn	2, 0x0005
    300a:	0000                	.insn	2, 0x
    300c:	0002                	.insn	2, 0x0002
    300e:	0000                	.insn	2, 0x
    3010:	0002                	.insn	2, 0x0002
    3012:	0000                	.insn	2, 0x
    3014:	0004                	.insn	2, 0x0004
    3016:	0000                	.insn	2, 0x
    3018:	00000003          	lb	zero,0(zero) # 0 <_isr_handler>
    301c:	0002                	.insn	2, 0x0002
    301e:	0000                	.insn	2, 0x
    3020:	0002                	.insn	2, 0x0002
    3022:	0000                	.insn	2, 0x
    3024:	0006                	.insn	2, 0x0006
    3026:	0000                	.insn	2, 0x
    3028:	0000                	.insn	2, 0x
    302a:	0000                	.insn	2, 0x
    302c:	0001                	.insn	2, 0x0001
    302e:	0000                	.insn	2, 0x
    3030:	0001                	.insn	2, 0x0001
    3032:	0000                	.insn	2, 0x
    3034:	0000                	.insn	2, 0x
    3036:	0000                	.insn	2, 0x
    3038:	0005                	.insn	2, 0x0005
    303a:	0000                	.insn	2, 0x
    303c:	0006                	.insn	2, 0x0006
    303e:	0000                	.insn	2, 0x
    3040:	0000                	.insn	2, 0x
    3042:	0000                	.insn	2, 0x
    3044:	0005                	.insn	2, 0x0005
    3046:	0000                	.insn	2, 0x
    3048:	0002                	.insn	2, 0x0002
    304a:	0000                	.insn	2, 0x
    304c:	0004                	.insn	2, 0x0004
	...
    307e:	0000                	.insn	2, 0x
    3080:	0001                	.insn	2, 0x0001
	...
    309a:	0000                	.insn	2, 0x
    309c:	0001                	.insn	2, 0x0001
    309e:	0000                	.insn	2, 0x
    30a0:	0001                	.insn	2, 0x0001
	...
    30b2:	0000                	.insn	2, 0x
    30b4:	0001                	.insn	2, 0x0001
    30b6:	0000                	.insn	2, 0x
    30b8:	0001                	.insn	2, 0x0001
	...
    30ca:	0000                	.insn	2, 0x
    30cc:	0001                	.insn	2, 0x0001
    30ce:	0000                	.insn	2, 0x
    30d0:	0001                	.insn	2, 0x0001
	...
    30ea:	0000                	.insn	2, 0x
    30ec:	0001                	.insn	2, 0x0001
	...
    311e:	0000                	.insn	2, 0x
    3120:	0001                	.insn	2, 0x0001
    3122:	0000                	.insn	2, 0x
    3124:	0000                	.insn	2, 0x
    3126:	0000                	.insn	2, 0x
    3128:	00000003          	lb	zero,0(zero) # 0 <_isr_handler>
    312c:	0002                	.insn	2, 0x0002
    312e:	0000                	.insn	2, 0x
    3130:	0002                	.insn	2, 0x0002
    3132:	0000                	.insn	2, 0x
    3134:	0002                	.insn	2, 0x0002
    3136:	0000                	.insn	2, 0x
    3138:	0002                	.insn	2, 0x0002
    313a:	0000                	.insn	2, 0x
    313c:	0006                	.insn	2, 0x0006
    313e:	0000                	.insn	2, 0x
    3140:	0005                	.insn	2, 0x0005
    3142:	0000                	.insn	2, 0x
    3144:	0002                	.insn	2, 0x0002
    3146:	0000                	.insn	2, 0x
    3148:	0002                	.insn	2, 0x0002
    314a:	0000                	.insn	2, 0x
    314c:	0004                	.insn	2, 0x0004
    314e:	0000                	.insn	2, 0x
    3150:	0000                	.insn	2, 0x
    3152:	0000                	.insn	2, 0x
    3154:	0001                	.insn	2, 0x0001
    3156:	0000                	.insn	2, 0x
    3158:	0001                	.insn	2, 0x0001
    315a:	0000                	.insn	2, 0x
    315c:	0000                	.insn	2, 0x
    315e:	0000                	.insn	2, 0x
    3160:	00000003          	lb	zero,0(zero) # 0 <_isr_handler>
    3164:	0002                	.insn	2, 0x0002
    3166:	0000                	.insn	2, 0x
    3168:	0002                	.insn	2, 0x0002
    316a:	0000                	.insn	2, 0x
    316c:	0006                	.insn	2, 0x0006
    316e:	0000                	.insn	2, 0x
    3170:	0005                	.insn	2, 0x0005
    3172:	0000                	.insn	2, 0x
    3174:	0002                	.insn	2, 0x0002
    3176:	0000                	.insn	2, 0x
    3178:	0002                	.insn	2, 0x0002
    317a:	0000                	.insn	2, 0x
    317c:	0002                	.insn	2, 0x0002
    317e:	0000                	.insn	2, 0x
    3180:	0002                	.insn	2, 0x0002
    3182:	0000                	.insn	2, 0x
    3184:	0004                	.insn	2, 0x0004
    3186:	0000                	.insn	2, 0x
    3188:	0000                	.insn	2, 0x
    318a:	0000                	.insn	2, 0x
    318c:	0001                	.insn	2, 0x0001
	...
    31be:	0000                	.insn	2, 0x
    31c0:	0001                	.insn	2, 0x0001
    31c2:	0000                	.insn	2, 0x
    31c4:	0000                	.insn	2, 0x
    31c6:	0000                	.insn	2, 0x
    31c8:	0005                	.insn	2, 0x0005
    31ca:	0000                	.insn	2, 0x
    31cc:	0002                	.insn	2, 0x0002
    31ce:	0000                	.insn	2, 0x
    31d0:	0002                	.insn	2, 0x0002
    31d2:	0000                	.insn	2, 0x
    31d4:	0002                	.insn	2, 0x0002
    31d6:	0000                	.insn	2, 0x
    31d8:	0002                	.insn	2, 0x0002
    31da:	0000                	.insn	2, 0x
    31dc:	0002                	.insn	2, 0x0002
    31de:	0000                	.insn	2, 0x
    31e0:	0002                	.insn	2, 0x0002
    31e2:	0000                	.insn	2, 0x
    31e4:	0002                	.insn	2, 0x0002
    31e6:	0000                	.insn	2, 0x
    31e8:	0002                	.insn	2, 0x0002
    31ea:	0000                	.insn	2, 0x
    31ec:	0006                	.insn	2, 0x0006
    31ee:	0000                	.insn	2, 0x
    31f0:	0000                	.insn	2, 0x
    31f2:	0000                	.insn	2, 0x
    31f4:	0005                	.insn	2, 0x0005
    31f6:	0000                	.insn	2, 0x
    31f8:	0006                	.insn	2, 0x0006
    31fa:	0000                	.insn	2, 0x
    31fc:	0000                	.insn	2, 0x
    31fe:	0000                	.insn	2, 0x
    3200:	0005                	.insn	2, 0x0005
    3202:	0000                	.insn	2, 0x
    3204:	0002                	.insn	2, 0x0002
    3206:	0000                	.insn	2, 0x
    3208:	0002                	.insn	2, 0x0002
    320a:	0000                	.insn	2, 0x
    320c:	0002                	.insn	2, 0x0002
    320e:	0000                	.insn	2, 0x
    3210:	0002                	.insn	2, 0x0002
    3212:	0000                	.insn	2, 0x
    3214:	0002                	.insn	2, 0x0002
    3216:	0000                	.insn	2, 0x
    3218:	0002                	.insn	2, 0x0002
    321a:	0000                	.insn	2, 0x
    321c:	0002                	.insn	2, 0x0002
    321e:	0000                	.insn	2, 0x
    3220:	0002                	.insn	2, 0x0002
    3222:	0000                	.insn	2, 0x
    3224:	0006                	.insn	2, 0x0006
    3226:	0000                	.insn	2, 0x
    3228:	0000                	.insn	2, 0x
    322a:	0000                	.insn	2, 0x
    322c:	0001                	.insn	2, 0x0001
	...
    325e:	0000                	.insn	2, 0x
    3260:	0001                	.insn	2, 0x0001
	...
    32ca:	0000                	.insn	2, 0x
    32cc:	0001                	.insn	2, 0x0001
	...
    32fe:	0000                	.insn	2, 0x
    3300:	0005                	.insn	2, 0x0005
    3302:	0000                	.insn	2, 0x
    3304:	0002                	.insn	2, 0x0002
    3306:	0000                	.insn	2, 0x
    3308:	0002                	.insn	2, 0x0002
    330a:	0000                	.insn	2, 0x
    330c:	0002                	.insn	2, 0x0002
    330e:	0000                	.insn	2, 0x
    3310:	0002                	.insn	2, 0x0002
    3312:	0000                	.insn	2, 0x
    3314:	0002                	.insn	2, 0x0002
    3316:	0000                	.insn	2, 0x
    3318:	0002                	.insn	2, 0x0002
    331a:	0000                	.insn	2, 0x
    331c:	0002                	.insn	2, 0x0002
    331e:	0000                	.insn	2, 0x
    3320:	0002                	.insn	2, 0x0002
    3322:	0000                	.insn	2, 0x
    3324:	0002                	.insn	2, 0x0002
    3326:	0000                	.insn	2, 0x
    3328:	0002                	.insn	2, 0x0002
    332a:	0000                	.insn	2, 0x
    332c:	0002                	.insn	2, 0x0002
    332e:	0000                	.insn	2, 0x
    3330:	0002                	.insn	2, 0x0002
    3332:	0000                	.insn	2, 0x
    3334:	0002                	.insn	2, 0x0002
    3336:	0000                	.insn	2, 0x
    3338:	0002                	.insn	2, 0x0002
    333a:	0000                	.insn	2, 0x
    333c:	0002                	.insn	2, 0x0002
    333e:	0000                	.insn	2, 0x
    3340:	0002                	.insn	2, 0x0002
    3342:	0000                	.insn	2, 0x
    3344:	0002                	.insn	2, 0x0002
    3346:	0000                	.insn	2, 0x
    3348:	0002                	.insn	2, 0x0002
    334a:	0000                	.insn	2, 0x
    334c:	0002                	.insn	2, 0x0002
    334e:	0000                	.insn	2, 0x
    3350:	0002                	.insn	2, 0x0002
    3352:	0000                	.insn	2, 0x
    3354:	0002                	.insn	2, 0x0002
    3356:	0000                	.insn	2, 0x
    3358:	0002                	.insn	2, 0x0002
    335a:	0000                	.insn	2, 0x
    335c:	0002                	.insn	2, 0x0002
    335e:	0000                	.insn	2, 0x
    3360:	0002                	.insn	2, 0x0002
    3362:	0000                	.insn	2, 0x
    3364:	0002                	.insn	2, 0x0002
    3366:	0000                	.insn	2, 0x
    3368:	0002                	.insn	2, 0x0002
    336a:	0000                	.insn	2, 0x
    336c:	0006                	.insn	2, 0x0006
	...

00003388 <next_random>:
    3388:	0001                	.insn	2, 0x0001
	...

0000338c <vga_buffer>:
    338c:	0000                	.insn	2, 0x
    338e:	0800                	.insn	2, 0x0800

00003390 <timer>:
    3390:	0020                	.insn	2, 0x0020
    3392:	0400                	.insn	2, 0x0400

00003394 <CLOCK_SPEED>:
    3394:	c380                	.insn	2, 0xc380
    3396:	01c9                	.insn	2, 0x01c9

Disassembly of section .rodata:

000033d4 <CSWTCH.17>:
	...
    33dc:	ffff                	.insn	2, 0xffff
    33de:	ffff                	.insn	2, 0xffff
    33e0:	0001                	.insn	2, 0x0001
	...

000033e4 <CSWTCH.18>:
    33e4:	ffff                	.insn	2, 0xffff
    33e6:	ffff                	.insn	2, 0xffff
    33e8:	0001                	.insn	2, 0x0001
	...
    33f2:	0000                	.insn	2, 0x
    33f4:	0f1c                	.insn	2, 0x0f1c
    33f6:	0000                	.insn	2, 0x
    33f8:	13dc                	.insn	2, 0x13dc
    33fa:	0000                	.insn	2, 0x
    33fc:	15ac                	.insn	2, 0x15ac
    33fe:	0000                	.insn	2, 0x
    3400:	1780                	.insn	2, 0x1780
    3402:	0000                	.insn	2, 0x
    3404:	19c4                	.insn	2, 0x19c4
    3406:	0000                	.insn	2, 0x
    3408:	07e8                	.insn	2, 0x07e8
    340a:	0000                	.insn	2, 0x
    340c:	0c78                	.insn	2, 0x0c78
	...

Disassembly of section .comment:

00000000 <.comment>:
   0:	3a434347          	.insn	4, 0x3a434347
   4:	2820                	.insn	2, 0x2820
   6:	3331                	.insn	2, 0x3331
   8:	322e                	.insn	2, 0x322e
   a:	302e                	.insn	2, 0x302e
   c:	312d                	.insn	2, 0x312d
   e:	7531                	.insn	2, 0x7531
  10:	7562                	.insn	2, 0x7562
  12:	746e                	.insn	2, 0x746e
  14:	3175                	.insn	2, 0x3175
  16:	2932312b          	.insn	4, 0x2932312b
  1a:	3120                	.insn	2, 0x3120
  1c:	2e322e33          	.insn	4, 0x2e322e33
  20:	0030                	.insn	2, 0x0030

Disassembly of section .riscv.attributes:

00000000 <.riscv.attributes>:
   0:	3641                	.insn	2, 0x3641
   2:	0000                	.insn	2, 0x
   4:	7200                	.insn	2, 0x7200
   6:	7369                	.insn	2, 0x7369
   8:	01007663          	bgeu	zero,a6,14 <_isr_routine+0xc>
   c:	002c                	.insn	2, 0x002c
   e:	0000                	.insn	2, 0x
  10:	1004                	.insn	2, 0x1004
  12:	7205                	.insn	2, 0x7205
  14:	3376                	.insn	2, 0x3376
  16:	6932                	.insn	2, 0x6932
  18:	7032                	.insn	2, 0x7032
  1a:	5f31                	.insn	2, 0x5f31
  1c:	326d                	.insn	2, 0x326d
  1e:	3070                	.insn	2, 0x3070
  20:	7a5f 6369 7273      	.insn	6, 0x727363697a5f
  26:	7032                	.insn	2, 0x7032
  28:	5f30                	.insn	2, 0x5f30
  2a:	6d7a                	.insn	2, 0x6d7a
  2c:	756d                	.insn	2, 0x756d
  2e:	316c                	.insn	2, 0x316c
  30:	3070                	.insn	2, 0x3070
  32:	0800                	.insn	2, 0x0800
  34:	0a01                	.insn	2, 0x0a01
  36:	Address 0x36 is out of bounds.

