
build/main.elf:     file format elf32-littleriscv


Disassembly of section .text:

00000000 <_isr_handler>:
       0:	0080006f          	j	8 <_isr_routine>
       4:	1440006f          	j	148 <_start>

00000008 <_isr_routine>:
       8:	f8010113          	addi	sp,sp,-128
       c:	00112023          	sw	ra,0(sp)
      10:	00312423          	sw	gp,8(sp)
      14:	00412623          	sw	tp,12(sp)
      18:	00512823          	sw	t0,16(sp)
      1c:	00612a23          	sw	t1,20(sp)
      20:	00712c23          	sw	t2,24(sp)
      24:	00812e23          	sw	s0,28(sp)
      28:	02912023          	sw	s1,32(sp)
      2c:	02a12223          	sw	a0,36(sp)
      30:	02b12423          	sw	a1,40(sp)
      34:	02c12623          	sw	a2,44(sp)
      38:	02d12823          	sw	a3,48(sp)
      3c:	02e12a23          	sw	a4,52(sp)
      40:	02f12c23          	sw	a5,56(sp)
      44:	03012e23          	sw	a6,60(sp)
      48:	05112023          	sw	a7,64(sp)
      4c:	05212223          	sw	s2,68(sp)
      50:	05312423          	sw	s3,72(sp)
      54:	05412623          	sw	s4,76(sp)
      58:	05512823          	sw	s5,80(sp)
      5c:	05612a23          	sw	s6,84(sp)
      60:	05712c23          	sw	s7,88(sp)
      64:	05812e23          	sw	s8,92(sp)
      68:	07912023          	sw	s9,96(sp)
      6c:	07a12223          	sw	s10,100(sp)
      70:	07b12423          	sw	s11,104(sp)
      74:	07c12623          	sw	t3,108(sp)
      78:	07d12823          	sw	t4,112(sp)
      7c:	07e12a23          	sw	t5,116(sp)
      80:	07f12c23          	sw	t6,120(sp)
      84:	342022f3          	csrr	t0,mcause
      88:	80000337          	lui	t1,0x80000
      8c:	0262f263          	bgeu	t0,t1,b0 <external_irq>
      90:	00028833          	add	a6,t0,zero
      94:	00b00313          	li	t1,11
      98:	00628463          	beq	t0,t1,a0 <skip_init_args>
      9c:	34102573          	csrr	a0,mepc

000000a0 <skip_init_args>:
      a0:	341022f3          	csrr	t0,mepc
      a4:	00428293          	addi	t0,t0,4
      a8:	34129073          	csrw	mepc,t0
      ac:	01c0006f          	j	c8 <restore>

000000b0 <external_irq>:
      b0:	34102573          	csrr	a0,mepc
      b4:	800002b7          	lui	t0,0x80000
      b8:	fff28293          	addi	t0,t0,-1 # 7fffffff <_stack_end+0x7fefcc03>
      bc:	34202373          	csrr	t1,mcause
      c0:	0062f5b3          	and	a1,t0,t1
      c4:	755010ef          	jal	2018 <interrupt_handler>

000000c8 <restore>:
      c8:	00012083          	lw	ra,0(sp)
      cc:	00812183          	lw	gp,8(sp)
      d0:	00c12203          	lw	tp,12(sp)
      d4:	01012283          	lw	t0,16(sp)
      d8:	01412303          	lw	t1,20(sp)
      dc:	01812383          	lw	t2,24(sp)
      e0:	01c12403          	lw	s0,28(sp)
      e4:	02012483          	lw	s1,32(sp)
      e8:	02412503          	lw	a0,36(sp)
      ec:	02812583          	lw	a1,40(sp)
      f0:	02c12603          	lw	a2,44(sp)
      f4:	03012683          	lw	a3,48(sp)
      f8:	03412703          	lw	a4,52(sp)
      fc:	03812783          	lw	a5,56(sp)
     100:	03c12803          	lw	a6,60(sp)
     104:	04012883          	lw	a7,64(sp)
     108:	04412903          	lw	s2,68(sp)
     10c:	04812983          	lw	s3,72(sp)
     110:	04c12a03          	lw	s4,76(sp)
     114:	05012a83          	lw	s5,80(sp)
     118:	05412b03          	lw	s6,84(sp)
     11c:	05812b83          	lw	s7,88(sp)
     120:	05c12c03          	lw	s8,92(sp)
     124:	06012c83          	lw	s9,96(sp)
     128:	06412d03          	lw	s10,100(sp)
     12c:	06812d83          	lw	s11,104(sp)
     130:	06c12e03          	lw	t3,108(sp)
     134:	07012e83          	lw	t4,112(sp)
     138:	07412f03          	lw	t5,116(sp)
     13c:	07812f83          	lw	t6,120(sp)
     140:	08010113          	addi	sp,sp,128
     144:	30200073          	mret

00000148 <_start>:
     148:	30401073          	csrw	mie,zero
     14c:	00103117          	auipc	sp,0x103
     150:	2b010113          	addi	sp,sp,688 # 1033fc <_stack_end>
     154:	00004197          	auipc	gp,0x4
     158:	a4018193          	addi	gp,gp,-1472 # 3b94 <__global_pointer>
     15c:	00000297          	auipc	t0,0x0
     160:	ea428293          	addi	t0,t0,-348 # 0 <_isr_handler>
     164:	30529073          	csrw	mtvec,t0
     168:	00002517          	auipc	a0,0x2
     16c:	ed850513          	addi	a0,a0,-296 # 2040 <welcome_msg>
     170:	00400893          	li	a7,4
     174:	00000073          	ecall
     178:	395010ef          	jal	1d0c <main>

0000017c <loop>:
     17c:	0000006f          	j	17c <loop>

00000180 <enable_interrupt>:
     180:	000112b7          	lui	t0,0x11
     184:	89028293          	addi	t0,t0,-1904 # 10890 <__global_pointer+0xccfc>
     188:	3042a073          	csrs	mie,t0
     18c:	00800293          	li	t0,8
     190:	3002a073          	csrs	mstatus,t0
     194:	00008067          	ret

00000198 <get_random>:
     198:	ff010113          	addi	sp,sp,-16
     19c:	00003737          	lui	a4,0x3
     1a0:	00812423          	sw	s0,8(sp)
     1a4:	39472403          	lw	s0,916(a4) # 3394 <next_random>
     1a8:	41c657b7          	lui	a5,0x41c65
     1ac:	e6d78793          	addi	a5,a5,-403 # 41c64e6d <_stack_end+0x41b61a71>
     1b0:	02f40433          	mul	s0,s0,a5
     1b4:	000037b7          	lui	a5,0x3
     1b8:	03978793          	addi	a5,a5,57 # 3039 <map+0xf65>
     1bc:	00912223          	sw	s1,4(sp)
     1c0:	00112623          	sw	ra,12(sp)
     1c4:	00050493          	mv	s1,a0
     1c8:	00f40433          	add	s0,s0,a5
     1cc:	38872a23          	sw	s0,916(a4)
     1d0:	00141413          	slli	s0,s0,0x1
     1d4:	2e5010ef          	jal	1cb8 <get_sw>
     1d8:	01145413          	srli	s0,s0,0x11
     1dc:	00c12083          	lw	ra,12(sp)
     1e0:	00a40533          	add	a0,s0,a0
     1e4:	00812403          	lw	s0,8(sp)
     1e8:	02957533          	remu	a0,a0,s1
     1ec:	00412483          	lw	s1,4(sp)
     1f0:	01010113          	addi	sp,sp,16
     1f4:	00008067          	ret

000001f8 <dir_to_movement>:
     1f8:	00200793          	li	a5,2
     1fc:	04f50063          	beq	a0,a5,23c <dir_to_movement+0x44>
     200:	02a7c263          	blt	a5,a0,224 <dir_to_movement+0x2c>
     204:	fff00793          	li	a5,-1
     208:	00050863          	beqz	a0,218 <dir_to_movement+0x20>
     20c:	fff50513          	addi	a0,a0,-1
     210:	00153793          	seqz	a5,a0
     214:	00000513          	li	a0,0
     218:	00a5a023          	sw	a0,0(a1)
     21c:	00f62023          	sw	a5,0(a2)
     220:	00008067          	ret
     224:	ffd50513          	addi	a0,a0,-3
     228:	00153513          	seqz	a0,a0
     22c:	00000793          	li	a5,0
     230:	00a5a023          	sw	a0,0(a1)
     234:	00f62023          	sw	a5,0(a2)
     238:	00008067          	ret
     23c:	fff00513          	li	a0,-1
     240:	00000793          	li	a5,0
     244:	00a5a023          	sw	a0,0(a1)
     248:	00f62023          	sw	a5,0(a2)
     24c:	00008067          	ret

00000250 <can_move_to>:
     250:	01d00793          	li	a5,29
     254:	00050713          	mv	a4,a0
     258:	04b7e263          	bltu	a5,a1,29c <can_move_to+0x4c>
     25c:	02700793          	li	a5,39
     260:	00a7f863          	bgeu	a5,a0,270 <can_move_to+0x20>
     264:	00e00793          	li	a5,14
     268:	00100513          	li	a0,1
     26c:	02f58a63          	beq	a1,a5,2a0 <can_move_to+0x50>
     270:	00259793          	slli	a5,a1,0x2
     274:	00b787b3          	add	a5,a5,a1
     278:	00379793          	slli	a5,a5,0x3
     27c:	00e78533          	add	a0,a5,a4
     280:	000027b7          	lui	a5,0x2
     284:	00251513          	slli	a0,a0,0x2
     288:	0d478793          	addi	a5,a5,212 # 20d4 <map>
     28c:	00a787b3          	add	a5,a5,a0
     290:	0007a503          	lw	a0,0(a5)
     294:	00153513          	seqz	a0,a0
     298:	00008067          	ret
     29c:	00000513          	li	a0,0
     2a0:	00008067          	ret

000002a4 <enemy_init>:
     2a4:	01b00793          	li	a5,27
     2a8:	00f52423          	sw	a5,8(a0)
     2ac:	00e00793          	li	a5,14
     2b0:	00f52623          	sw	a5,12(a0)
     2b4:	0d800793          	li	a5,216
     2b8:	00f52023          	sw	a5,0(a0)
     2bc:	07000793          	li	a5,112
     2c0:	00f52223          	sw	a5,4(a0)
     2c4:	fff00793          	li	a5,-1
     2c8:	00052823          	sw	zero,16(a0)
     2cc:	00f52a23          	sw	a5,20(a0)
     2d0:	00008067          	ret

000002d4 <enemy_set_position>:
     2d4:	00b52023          	sw	a1,0(a0)
     2d8:	00c52223          	sw	a2,4(a0)
     2dc:	00008067          	ret

000002e0 <state_mode_enemy>:
     2e0:	fe010113          	addi	sp,sp,-32
     2e4:	00812c23          	sw	s0,24(sp)
     2e8:	00050413          	mv	s0,a0
     2ec:	01052503          	lw	a0,16(a0)
     2f0:	00c10613          	addi	a2,sp,12
     2f4:	00810593          	addi	a1,sp,8
     2f8:	00912a23          	sw	s1,20(sp)
     2fc:	01212823          	sw	s2,16(sp)
     300:	00112e23          	sw	ra,28(sp)
     304:	ef5ff0ef          	jal	1f8 <dir_to_movement>
     308:	00042683          	lw	a3,0(s0)
     30c:	00812703          	lw	a4,8(sp)
     310:	00442803          	lw	a6,4(s0)
     314:	00c12783          	lw	a5,12(sp)
     318:	00e684b3          	add	s1,a3,a4
     31c:	00748513          	addi	a0,s1,7
     320:	00f80933          	add	s2,a6,a5
     324:	00e04463          	bgtz	a4,32c <state_mode_enemy+0x4c>
     328:	00048513          	mv	a0,s1
     32c:	00090613          	mv	a2,s2
     330:	00f05463          	blez	a5,338 <state_mode_enemy+0x58>
     334:	00790613          	addi	a2,s2,7
     338:	41f55793          	srai	a5,a0,0x1f
     33c:	41f6d713          	srai	a4,a3,0x1f
     340:	0077f793          	andi	a5,a5,7
     344:	41f65593          	srai	a1,a2,0x1f
     348:	00777713          	andi	a4,a4,7
     34c:	00a787b3          	add	a5,a5,a0
     350:	0075f593          	andi	a1,a1,7
     354:	00d70733          	add	a4,a4,a3
     358:	00c585b3          	add	a1,a1,a2
     35c:	4037d513          	srai	a0,a5,0x3
     360:	40375793          	srai	a5,a4,0x3
     364:	4035d593          	srai	a1,a1,0x3
     368:	00f51c63          	bne	a0,a5,380 <state_mode_enemy+0xa0>
     36c:	41f85793          	srai	a5,a6,0x1f
     370:	0077f793          	andi	a5,a5,7
     374:	010787b3          	add	a5,a5,a6
     378:	4037d793          	srai	a5,a5,0x3
     37c:	00f58663          	beq	a1,a5,388 <state_mode_enemy+0xa8>
     380:	ed1ff0ef          	jal	250 <can_move_to>
     384:	02050263          	beqz	a0,3a8 <state_mode_enemy+0xc8>
     388:	00942023          	sw	s1,0(s0)
     38c:	01242223          	sw	s2,4(s0)
     390:	01c12083          	lw	ra,28(sp)
     394:	01812403          	lw	s0,24(sp)
     398:	01412483          	lw	s1,20(sp)
     39c:	01012903          	lw	s2,16(sp)
     3a0:	02010113          	addi	sp,sp,32
     3a4:	00008067          	ret
     3a8:	00400513          	li	a0,4
     3ac:	dedff0ef          	jal	198 <get_random>
     3b0:	01c12083          	lw	ra,28(sp)
     3b4:	00a42823          	sw	a0,16(s0)
     3b8:	01812403          	lw	s0,24(sp)
     3bc:	01412483          	lw	s1,20(sp)
     3c0:	01012903          	lw	s2,16(sp)
     3c4:	02010113          	addi	sp,sp,32
     3c8:	00008067          	ret

000003cc <enemy_render>:
     3cc:	ff010113          	addi	sp,sp,-16
     3d0:	00812423          	sw	s0,8(sp)
     3d4:	01052603          	lw	a2,16(a0)
     3d8:	00050413          	mv	s0,a0
     3dc:	00452583          	lw	a1,4(a0)
     3e0:	00052503          	lw	a0,0(a0)
     3e4:	00112623          	sw	ra,12(sp)
     3e8:	6dc010ef          	jal	1ac4 <redraw_tile>
     3ec:	00442583          	lw	a1,4(s0)
     3f0:	00042503          	lw	a0,0(s0)
     3f4:	00812403          	lw	s0,8(sp)
     3f8:	00c12083          	lw	ra,12(sp)
     3fc:	0e000613          	li	a2,224
     400:	01010113          	addi	sp,sp,16
     404:	64c0106f          	j	1a50 <draw_character>

00000408 <game_init>:
     408:	000037b7          	lui	a5,0x3
     40c:	ff010113          	addi	sp,sp,-16
     410:	3a478513          	addi	a0,a5,932 # 33a4 <player>
     414:	00003737          	lui	a4,0x3
     418:	00112623          	sw	ra,12(sp)
     41c:	00812423          	sw	s0,8(sp)
     420:	3c072e23          	sw	zero,988(a4) # 33dc <game_state>
     424:	3a478413          	addi	s0,a5,932
     428:	0f9010ef          	jal	1d20 <player_init>
     42c:	02040513          	addi	a0,s0,32
     430:	e75ff0ef          	jal	2a4 <enemy_init>
     434:	0e4000ef          	jal	518 <set_gamemap>
     438:	00812403          	lw	s0,8(sp)
     43c:	00c12083          	lw	ra,12(sp)
     440:	03c00513          	li	a0,60
     444:	01010113          	addi	sp,sp,16
     448:	39d0106f          	j	1fe4 <timer_init>

0000044c <game_update>:
     44c:	ff010113          	addi	sp,sp,-16
     450:	00812423          	sw	s0,8(sp)
     454:	00003437          	lui	s0,0x3
     458:	3dc42783          	lw	a5,988(s0) # 33dc <game_state>
     45c:	00112623          	sw	ra,12(sp)
     460:	06078a63          	beqz	a5,4d4 <game_update+0x88>
     464:	00200713          	li	a4,2
     468:	00e78a63          	beq	a5,a4,47c <game_update+0x30>
     46c:	00c12083          	lw	ra,12(sp)
     470:	00812403          	lw	s0,8(sp)
     474:	01010113          	addi	sp,sp,16
     478:	00008067          	ret
     47c:	01212023          	sw	s2,0(sp)
     480:	00003937          	lui	s2,0x3
     484:	00912223          	sw	s1,4(sp)
     488:	3a490493          	addi	s1,s2,932 # 33a4 <player>
     48c:	01c4a783          	lw	a5,28(s1)
     490:	06f05e63          	blez	a5,50c <game_update+0xc0>
     494:	3a490513          	addi	a0,s2,932
     498:	031010ef          	jal	1cc8 <handle_input>
     49c:	02048493          	addi	s1,s1,32
     4a0:	00048513          	mv	a0,s1
     4a4:	e3dff0ef          	jal	2e0 <state_mode_enemy>
     4a8:	00048513          	mv	a0,s1
     4ac:	f21ff0ef          	jal	3cc <enemy_render>
     4b0:	3a490513          	addi	a0,s2,932
     4b4:	0d1010ef          	jal	1d84 <player_update>
     4b8:	00812403          	lw	s0,8(sp)
     4bc:	00412483          	lw	s1,4(sp)
     4c0:	00c12083          	lw	ra,12(sp)
     4c4:	3a490513          	addi	a0,s2,932
     4c8:	00012903          	lw	s2,0(sp)
     4cc:	01010113          	addi	sp,sp,16
     4d0:	26d0106f          	j	1f3c <player_render>
     4d4:	2a5010ef          	jal	1f78 <draw_start_screen>
     4d8:	7e0010ef          	jal	1cb8 <get_sw>
     4dc:	f80508e3          	beqz	a0,46c <game_update+0x20>
     4e0:	00000513          	li	a0,0
     4e4:	00200793          	li	a5,2
     4e8:	3cf42e23          	sw	a5,988(s0)
     4ec:	78c010ef          	jal	1c78 <fill_display>
     4f0:	028000ef          	jal	518 <set_gamemap>
     4f4:	00812403          	lw	s0,8(sp)
     4f8:	00c12083          	lw	ra,12(sp)
     4fc:	00003537          	lui	a0,0x3
     500:	3a450513          	addi	a0,a0,932 # 33a4 <player>
     504:	01010113          	addi	sp,sp,16
     508:	2350106f          	j	1f3c <player_render>
     50c:	00300793          	li	a5,3
     510:	3cf42e23          	sw	a5,988(s0)
     514:	f81ff06f          	j	494 <game_update+0x48>

00000518 <set_gamemap>:
     518:	fe010113          	addi	sp,sp,-32
     51c:	01412423          	sw	s4,8(sp)
     520:	01512223          	sw	s5,4(sp)
     524:	00002a37          	lui	s4,0x2
     528:	00001ab7          	lui	s5,0x1
     52c:	0d4a0a13          	addi	s4,s4,212 # 20d4 <map>
     530:	2c0a8a93          	addi	s5,s5,704 # 12c0 <__heap_size+0xac0>
     534:	01212823          	sw	s2,16(sp)
     538:	01312623          	sw	s3,12(sp)
     53c:	00112e23          	sw	ra,28(sp)
     540:	00812c23          	sw	s0,24(sp)
     544:	00912a23          	sw	s1,20(sp)
     548:	015a0ab3          	add	s5,s4,s5
     54c:	00000913          	li	s2,0
     550:	02800993          	li	s3,40
     554:	000a0493          	mv	s1,s4
     558:	00000413          	li	s0,0
     55c:	0004a603          	lw	a2,0(s1)
     560:	00040513          	mv	a0,s0
     564:	00090593          	mv	a1,s2
     568:	00140413          	addi	s0,s0,1
     56c:	09c000ef          	jal	608 <draw_tile>
     570:	00448493          	addi	s1,s1,4
     574:	ff3414e3          	bne	s0,s3,55c <set_gamemap+0x44>
     578:	0a0a0a13          	addi	s4,s4,160
     57c:	00190913          	addi	s2,s2,1
     580:	fd5a1ae3          	bne	s4,s5,554 <set_gamemap+0x3c>
     584:	01c12083          	lw	ra,28(sp)
     588:	01812403          	lw	s0,24(sp)
     58c:	01412483          	lw	s1,20(sp)
     590:	01012903          	lw	s2,16(sp)
     594:	00c12983          	lw	s3,12(sp)
     598:	00812a03          	lw	s4,8(sp)
     59c:	00412a83          	lw	s5,4(sp)
     5a0:	02010113          	addi	sp,sp,32
     5a4:	00008067          	ret

000005a8 <vga_init>:
     5a8:	00013537          	lui	a0,0x13
     5ac:	14000693          	li	a3,320
     5b0:	00000593          	li	a1,0
     5b4:	00003637          	lui	a2,0x3
     5b8:	d4050513          	addi	a0,a0,-704 # 12d40 <__global_pointer+0xf1ac>
     5bc:	00058793          	mv	a5,a1
     5c0:	39862703          	lw	a4,920(a2) # 3398 <vga_buffer>
     5c4:	00f70733          	add	a4,a4,a5
     5c8:	00070023          	sb	zero,0(a4)
     5cc:	00178793          	addi	a5,a5,1
     5d0:	fed798e3          	bne	a5,a3,5c0 <vga_init+0x18>
     5d4:	14078693          	addi	a3,a5,320
     5d8:	14058593          	addi	a1,a1,320
     5dc:	fea690e3          	bne	a3,a0,5bc <vga_init+0x14>
     5e0:	00008067          	ret

000005e4 <set_pixel>:
     5e4:	00259793          	slli	a5,a1,0x2
     5e8:	00003737          	lui	a4,0x3
     5ec:	39872703          	lw	a4,920(a4) # 3398 <vga_buffer>
     5f0:	00b785b3          	add	a1,a5,a1
     5f4:	00659593          	slli	a1,a1,0x6
     5f8:	00a585b3          	add	a1,a1,a0
     5fc:	00b70733          	add	a4,a4,a1
     600:	00c70023          	sb	a2,0(a4)
     604:	00008067          	ret

00000608 <draw_tile>:
     608:	00600793          	li	a5,6
     60c:	00c7f463          	bgeu	a5,a2,614 <draw_tile+0xc>
     610:	43c0106f          	j	1a4c <__heap_size+0x124c>
     614:	000037b7          	lui	a5,0x3
     618:	3e078793          	addi	a5,a5,992 # 33e0 <game_state+0x4>
     61c:	00261613          	slli	a2,a2,0x2
     620:	00f60633          	add	a2,a2,a5
     624:	00062783          	lw	a5,0(a2)
     628:	fb010113          	addi	sp,sp,-80
     62c:	00351513          	slli	a0,a0,0x3
     630:	00359713          	slli	a4,a1,0x3
     634:	00078067          	jr	a5
     638:	00170793          	addi	a5,a4,1
     63c:	00279693          	slli	a3,a5,0x2
     640:	00003737          	lui	a4,0x3
     644:	00f686b3          	add	a3,a3,a5
     648:	39872603          	lw	a2,920(a4) # 3398 <vga_buffer>
     64c:	00669693          	slli	a3,a3,0x6
     650:	00350813          	addi	a6,a0,3
     654:	28068893          	addi	a7,a3,640
     658:	05212223          	sw	s2,68(sp)
     65c:	01180933          	add	s2,a6,a7
     660:	01f00793          	li	a5,31
     664:	04812623          	sw	s0,76(sp)
     668:	04912423          	sw	s1,72(sp)
     66c:	05312023          	sw	s3,64(sp)
     670:	03412e23          	sw	s4,60(sp)
     674:	03512c23          	sw	s5,56(sp)
     678:	03612a23          	sw	s6,52(sp)
     67c:	03712823          	sw	s7,48(sp)
     680:	03812623          	sw	s8,44(sp)
     684:	03912423          	sw	s9,40(sp)
     688:	03a12223          	sw	s10,36(sp)
     68c:	03b12023          	sw	s11,32(sp)
     690:	01260633          	add	a2,a2,s2
     694:	00f60023          	sb	a5,0(a2)
     698:	39872603          	lw	a2,920(a4)
     69c:	00450d13          	addi	s10,a0,4
     6a0:	011d04b3          	add	s1,s10,a7
     6a4:	00960633          	add	a2,a2,s1
     6a8:	00f60023          	sb	a5,0(a2)
     6ac:	39872303          	lw	t1,920(a4)
     6b0:	00550613          	addi	a2,a0,5
     6b4:	01160433          	add	s0,a2,a7
     6b8:	00830333          	add	t1,t1,s0
     6bc:	00f30023          	sb	a5,0(t1) # 80000000 <_stack_end+0x7fefcc04>
     6c0:	39872303          	lw	t1,920(a4)
     6c4:	00650f13          	addi	t5,a0,6
     6c8:	01e88e33          	add	t3,a7,t5
     6cc:	01c30333          	add	t1,t1,t3
     6d0:	00f30023          	sb	a5,0(t1)
     6d4:	39872303          	lw	t1,920(a4)
     6d8:	00750e93          	addi	t4,a0,7
     6dc:	01d88e33          	add	t3,a7,t4
     6e0:	01c30333          	add	t1,t1,t3
     6e4:	00f30023          	sb	a5,0(t1)
     6e8:	39872303          	lw	t1,920(a4)
     6ec:	00850513          	addi	a0,a0,8
     6f0:	00a888b3          	add	a7,a7,a0
     6f4:	011308b3          	add	a7,t1,a7
     6f8:	00f88023          	sb	a5,0(a7)
     6fc:	00259893          	slli	a7,a1,0x2
     700:	39872303          	lw	t1,920(a4)
     704:	00b888b3          	add	a7,a7,a1
     708:	00989893          	slli	a7,a7,0x9
     70c:	01180cb3          	add	s9,a6,a7
     710:	019305b3          	add	a1,t1,s9
     714:	00f58023          	sb	a5,0(a1)
     718:	39872583          	lw	a1,920(a4)
     71c:	011d0c33          	add	s8,s10,a7
     720:	011608b3          	add	a7,a2,a7
     724:	018585b3          	add	a1,a1,s8
     728:	00f58023          	sb	a5,0(a1)
     72c:	39872583          	lw	a1,920(a4)
     730:	00d80bb3          	add	s7,a6,a3
     734:	00dd0b33          	add	s6,s10,a3
     738:	011585b3          	add	a1,a1,a7
     73c:	00f58023          	sb	a5,0(a1)
     740:	39872583          	lw	a1,920(a4)
     744:	00d60ab3          	add	s5,a2,a3
     748:	14068e13          	addi	t3,a3,320
     74c:	017585b3          	add	a1,a1,s7
     750:	00f58023          	sb	a5,0(a1)
     754:	39872583          	lw	a1,920(a4)
     758:	01c80a33          	add	s4,a6,t3
     75c:	01cd09b3          	add	s3,s10,t3
     760:	016585b3          	add	a1,a1,s6
     764:	00f58023          	sb	a5,0(a1)
     768:	39872583          	lw	a1,920(a4)
     76c:	01c60e33          	add	t3,a2,t3
     770:	3c068313          	addi	t1,a3,960
     774:	015585b3          	add	a1,a1,s5
     778:	00f58023          	sb	a5,0(a1)
     77c:	39872583          	lw	a1,920(a4)
     780:	006803b3          	add	t2,a6,t1
     784:	50068693          	addi	a3,a3,1280
     788:	014585b3          	add	a1,a1,s4
     78c:	00f58023          	sb	a5,0(a1)
     790:	39872583          	lw	a1,920(a4)
     794:	006d02b3          	add	t0,s10,t1
     798:	00660fb3          	add	t6,a2,t1
     79c:	013585b3          	add	a1,a1,s3
     7a0:	00f58023          	sb	a5,0(a1)
     7a4:	39872d83          	lw	s11,920(a4)
     7a8:	00dd05b3          	add	a1,s10,a3
     7ac:	00d80833          	add	a6,a6,a3
     7b0:	01cd8db3          	add	s11,s11,t3
     7b4:	00fd8023          	sb	a5,0(s11)
     7b8:	39872d83          	lw	s11,920(a4)
     7bc:	00d60633          	add	a2,a2,a3
     7c0:	01e30d33          	add	s10,t1,t5
     7c4:	012d8db3          	add	s11,s11,s2
     7c8:	00fd8023          	sb	a5,0(s11)
     7cc:	39872d83          	lw	s11,920(a4)
     7d0:	00df0f33          	add	t5,t5,a3
     7d4:	01b12223          	sw	s11,4(sp)
     7d8:	01d30db3          	add	s11,t1,t4
     7dc:	01b12423          	sw	s11,8(sp)
     7e0:	00412d83          	lw	s11,4(sp)
     7e4:	00a30333          	add	t1,t1,a0
     7e8:	00de8eb3          	add	t4,t4,a3
     7ec:	009d8db3          	add	s11,s11,s1
     7f0:	00fd8023          	sb	a5,0(s11)
     7f4:	39872d83          	lw	s11,920(a4)
     7f8:	00a686b3          	add	a3,a3,a0
     7fc:	008d8db3          	add	s11,s11,s0
     800:	00fd8023          	sb	a5,0(s11)
     804:	39872d83          	lw	s11,920(a4)
     808:	007d8db3          	add	s11,s11,t2
     80c:	00fd8023          	sb	a5,0(s11)
     810:	39872503          	lw	a0,920(a4)
     814:	00550533          	add	a0,a0,t0
     818:	00f50023          	sb	a5,0(a0)
     81c:	39872503          	lw	a0,920(a4)
     820:	01f50533          	add	a0,a0,t6
     824:	00f50023          	sb	a5,0(a0)
     828:	39872503          	lw	a0,920(a4)
     82c:	01050533          	add	a0,a0,a6
     830:	00f50023          	sb	a5,0(a0)
     834:	39872503          	lw	a0,920(a4)
     838:	00b50533          	add	a0,a0,a1
     83c:	00f50023          	sb	a5,0(a0)
     840:	39872503          	lw	a0,920(a4)
     844:	00c50533          	add	a0,a0,a2
     848:	00f50023          	sb	a5,0(a0)
     84c:	39872503          	lw	a0,920(a4)
     850:	00750533          	add	a0,a0,t2
     854:	00f50023          	sb	a5,0(a0)
     858:	39872503          	lw	a0,920(a4)
     85c:	00812d83          	lw	s11,8(sp)
     860:	00550533          	add	a0,a0,t0
     864:	00f50023          	sb	a5,0(a0)
     868:	39872503          	lw	a0,920(a4)
     86c:	01f50533          	add	a0,a0,t6
     870:	00f50023          	sb	a5,0(a0)
     874:	39872503          	lw	a0,920(a4)
     878:	01a50533          	add	a0,a0,s10
     87c:	00f50023          	sb	a5,0(a0)
     880:	39872503          	lw	a0,920(a4)
     884:	01b50533          	add	a0,a0,s11
     888:	00f50023          	sb	a5,0(a0)
     88c:	39872503          	lw	a0,920(a4)
     890:	00650533          	add	a0,a0,t1
     894:	00f50023          	sb	a5,0(a0)
     898:	39872503          	lw	a0,920(a4)
     89c:	01950533          	add	a0,a0,s9
     8a0:	00f50023          	sb	a5,0(a0)
     8a4:	39872503          	lw	a0,920(a4)
     8a8:	01850533          	add	a0,a0,s8
     8ac:	00f50023          	sb	a5,0(a0)
     8b0:	39872503          	lw	a0,920(a4)
     8b4:	01150533          	add	a0,a0,a7
     8b8:	00f50023          	sb	a5,0(a0)
     8bc:	39872503          	lw	a0,920(a4)
     8c0:	01750533          	add	a0,a0,s7
     8c4:	00f50023          	sb	a5,0(a0)
     8c8:	39872503          	lw	a0,920(a4)
     8cc:	01650533          	add	a0,a0,s6
     8d0:	00f50023          	sb	a5,0(a0)
     8d4:	39872503          	lw	a0,920(a4)
     8d8:	01550533          	add	a0,a0,s5
     8dc:	00f50023          	sb	a5,0(a0)
     8e0:	39872503          	lw	a0,920(a4)
     8e4:	01450533          	add	a0,a0,s4
     8e8:	00f50023          	sb	a5,0(a0)
     8ec:	39872503          	lw	a0,920(a4)
     8f0:	01350533          	add	a0,a0,s3
     8f4:	00f50023          	sb	a5,0(a0)
     8f8:	39872503          	lw	a0,920(a4)
     8fc:	01c50533          	add	a0,a0,t3
     900:	00f50023          	sb	a5,0(a0)
     904:	39872503          	lw	a0,920(a4)
     908:	01250533          	add	a0,a0,s2
     90c:	00f50023          	sb	a5,0(a0)
     910:	39872503          	lw	a0,920(a4)
     914:	00950533          	add	a0,a0,s1
     918:	00f50023          	sb	a5,0(a0)
     91c:	39872503          	lw	a0,920(a4)
     920:	00850533          	add	a0,a0,s0
     924:	00f50023          	sb	a5,0(a0)
     928:	39872503          	lw	a0,920(a4)
     92c:	00750533          	add	a0,a0,t2
     930:	00f50023          	sb	a5,0(a0)
     934:	39872503          	lw	a0,920(a4)
     938:	00550533          	add	a0,a0,t0
     93c:	00f50023          	sb	a5,0(a0)
     940:	39872503          	lw	a0,920(a4)
     944:	01f50533          	add	a0,a0,t6
     948:	00f50023          	sb	a5,0(a0)
     94c:	39872503          	lw	a0,920(a4)
     950:	01050533          	add	a0,a0,a6
     954:	00f50023          	sb	a5,0(a0)
     958:	39872503          	lw	a0,920(a4)
     95c:	00b50533          	add	a0,a0,a1
     960:	00f50023          	sb	a5,0(a0)
     964:	39872503          	lw	a0,920(a4)
     968:	00c50533          	add	a0,a0,a2
     96c:	00f50023          	sb	a5,0(a0)
     970:	39872503          	lw	a0,920(a4)
     974:	01050533          	add	a0,a0,a6
     978:	00f50023          	sb	a5,0(a0)
     97c:	39872503          	lw	a0,920(a4)
     980:	00b50533          	add	a0,a0,a1
     984:	00f50023          	sb	a5,0(a0)
     988:	39872503          	lw	a0,920(a4)
     98c:	00c50533          	add	a0,a0,a2
     990:	00f50023          	sb	a5,0(a0)
     994:	39872503          	lw	a0,920(a4)
     998:	01e50533          	add	a0,a0,t5
     99c:	00f50023          	sb	a5,0(a0)
     9a0:	39872503          	lw	a0,920(a4)
     9a4:	01d50533          	add	a0,a0,t4
     9a8:	00f50023          	sb	a5,0(a0)
     9ac:	39872503          	lw	a0,920(a4)
     9b0:	00d506b3          	add	a3,a0,a3
     9b4:	00f68023          	sb	a5,0(a3)
     9b8:	39872683          	lw	a3,920(a4)
     9bc:	019686b3          	add	a3,a3,s9
     9c0:	00f68023          	sb	a5,0(a3)
     9c4:	39872683          	lw	a3,920(a4)
     9c8:	018686b3          	add	a3,a3,s8
     9cc:	00f68023          	sb	a5,0(a3)
     9d0:	39872683          	lw	a3,920(a4)
     9d4:	011686b3          	add	a3,a3,a7
     9d8:	00f68023          	sb	a5,0(a3)
     9dc:	39872683          	lw	a3,920(a4)
     9e0:	017686b3          	add	a3,a3,s7
     9e4:	00f68023          	sb	a5,0(a3)
     9e8:	39872683          	lw	a3,920(a4)
     9ec:	016686b3          	add	a3,a3,s6
     9f0:	00f68023          	sb	a5,0(a3)
     9f4:	39872683          	lw	a3,920(a4)
     9f8:	015686b3          	add	a3,a3,s5
     9fc:	00f68023          	sb	a5,0(a3)
     a00:	39872683          	lw	a3,920(a4)
     a04:	014686b3          	add	a3,a3,s4
     a08:	00f68023          	sb	a5,0(a3)
     a0c:	39872683          	lw	a3,920(a4)
     a10:	013686b3          	add	a3,a3,s3
     a14:	00f68023          	sb	a5,0(a3)
     a18:	39872683          	lw	a3,920(a4)
     a1c:	01c686b3          	add	a3,a3,t3
     a20:	00f68023          	sb	a5,0(a3)
     a24:	39872683          	lw	a3,920(a4)
     a28:	012686b3          	add	a3,a3,s2
     a2c:	00f68023          	sb	a5,0(a3)
     a30:	39872683          	lw	a3,920(a4)
     a34:	009686b3          	add	a3,a3,s1
     a38:	00f68023          	sb	a5,0(a3)
     a3c:	39872683          	lw	a3,920(a4)
     a40:	008686b3          	add	a3,a3,s0
     a44:	00f68023          	sb	a5,0(a3)
     a48:	39872683          	lw	a3,920(a4)
     a4c:	007686b3          	add	a3,a3,t2
     a50:	00f68023          	sb	a5,0(a3)
     a54:	39872683          	lw	a3,920(a4)
     a58:	005686b3          	add	a3,a3,t0
     a5c:	00f68023          	sb	a5,0(a3)
     a60:	39872683          	lw	a3,920(a4)
     a64:	01f686b3          	add	a3,a3,t6
     a68:	00f68023          	sb	a5,0(a3)
     a6c:	39872683          	lw	a3,920(a4)
     a70:	010686b3          	add	a3,a3,a6
     a74:	00f68023          	sb	a5,0(a3)
     a78:	39872683          	lw	a3,920(a4)
     a7c:	00b686b3          	add	a3,a3,a1
     a80:	00f68023          	sb	a5,0(a3)
     a84:	39872703          	lw	a4,920(a4)
     a88:	00c70733          	add	a4,a4,a2
     a8c:	00f70023          	sb	a5,0(a4)
     a90:	04c12403          	lw	s0,76(sp)
     a94:	04812483          	lw	s1,72(sp)
     a98:	04412903          	lw	s2,68(sp)
     a9c:	04012983          	lw	s3,64(sp)
     aa0:	03c12a03          	lw	s4,60(sp)
     aa4:	03812a83          	lw	s5,56(sp)
     aa8:	03412b03          	lw	s6,52(sp)
     aac:	03012b83          	lw	s7,48(sp)
     ab0:	02c12c03          	lw	s8,44(sp)
     ab4:	02812c83          	lw	s9,40(sp)
     ab8:	02412d03          	lw	s10,36(sp)
     abc:	02012d83          	lw	s11,32(sp)
     ac0:	05010113          	addi	sp,sp,80
     ac4:	00008067          	ret
     ac8:	00370713          	addi	a4,a4,3
     acc:	000036b7          	lui	a3,0x3
     ad0:	00271793          	slli	a5,a4,0x2
     ad4:	3986a603          	lw	a2,920(a3) # 3398 <vga_buffer>
     ad8:	00e78733          	add	a4,a5,a4
     adc:	00671713          	slli	a4,a4,0x6
     ae0:	00e50833          	add	a6,a0,a4
     ae4:	01f00793          	li	a5,31
     ae8:	04812623          	sw	s0,76(sp)
     aec:	04912423          	sw	s1,72(sp)
     af0:	05212223          	sw	s2,68(sp)
     af4:	05312023          	sw	s3,64(sp)
     af8:	03412e23          	sw	s4,60(sp)
     afc:	03512c23          	sw	s5,56(sp)
     b00:	03612a23          	sw	s6,52(sp)
     b04:	01060633          	add	a2,a2,a6
     b08:	00f60023          	sb	a5,0(a2)
     b0c:	3986a603          	lw	a2,920(a3)
     b10:	00150f93          	addi	t6,a0,1
     b14:	00ef8833          	add	a6,t6,a4
     b18:	01060633          	add	a2,a2,a6
     b1c:	00f60023          	sb	a5,0(a2)
     b20:	3986a603          	lw	a2,920(a3)
     b24:	00250f13          	addi	t5,a0,2
     b28:	00ef0833          	add	a6,t5,a4
     b2c:	01060633          	add	a2,a2,a6
     b30:	00f60023          	sb	a5,0(a2)
     b34:	3986a603          	lw	a2,920(a3)
     b38:	00350313          	addi	t1,a0,3
     b3c:	00e30933          	add	s2,t1,a4
     b40:	01260633          	add	a2,a2,s2
     b44:	00f60023          	sb	a5,0(a2)
     b48:	3986a603          	lw	a2,920(a3)
     b4c:	00450893          	addi	a7,a0,4
     b50:	00e884b3          	add	s1,a7,a4
     b54:	00960633          	add	a2,a2,s1
     b58:	00f60023          	sb	a5,0(a2)
     b5c:	3986a603          	lw	a2,920(a3)
     b60:	00550e13          	addi	t3,a0,5
     b64:	00ee0433          	add	s0,t3,a4
     b68:	00860633          	add	a2,a2,s0
     b6c:	00f60023          	sb	a5,0(a2)
     b70:	3986a803          	lw	a6,920(a3)
     b74:	14070613          	addi	a2,a4,320
     b78:	00c50eb3          	add	t4,a0,a2
     b7c:	01d80833          	add	a6,a6,t4
     b80:	00f80023          	sb	a5,0(a6)
     b84:	3986a803          	lw	a6,920(a3)
     b88:	00cf82b3          	add	t0,t6,a2
     b8c:	00cf0eb3          	add	t4,t5,a2
     b90:	00580833          	add	a6,a6,t0
     b94:	00f80023          	sb	a5,0(a6)
     b98:	3986a803          	lw	a6,920(a3)
     b9c:	00c303b3          	add	t2,t1,a2
     ba0:	00c882b3          	add	t0,a7,a2
     ba4:	01d80833          	add	a6,a6,t4
     ba8:	00f80023          	sb	a5,0(a6)
     bac:	3986ae83          	lw	t4,920(a3)
     bb0:	00ce0833          	add	a6,t3,a2
     bb4:	28070613          	addi	a2,a4,640
     bb8:	007e8eb3          	add	t4,t4,t2
     bbc:	00fe8023          	sb	a5,0(t4)
     bc0:	3986ae83          	lw	t4,920(a3)
     bc4:	00c50533          	add	a0,a0,a2
     bc8:	00660a33          	add	s4,a2,t1
     bcc:	005e8eb3          	add	t4,t4,t0
     bd0:	00fe8023          	sb	a5,0(t4)
     bd4:	3986ae83          	lw	t4,920(a3)
     bd8:	011609b3          	add	s3,a2,a7
     bdc:	01f60fb3          	add	t6,a2,t6
     be0:	010e8eb3          	add	t4,t4,a6
     be4:	00fe8023          	sb	a5,0(t4)
     be8:	3986aa83          	lw	s5,920(a3)
     bec:	01e60f33          	add	t5,a2,t5
     bf0:	01c60eb3          	add	t4,a2,t3
     bf4:	00aa8633          	add	a2,s5,a0
     bf8:	00f60023          	sb	a5,0(a2)
     bfc:	3986a503          	lw	a0,920(a3)
     c00:	00259613          	slli	a2,a1,0x2
     c04:	00b60633          	add	a2,a2,a1
     c08:	01f505b3          	add	a1,a0,t6
     c0c:	00f58023          	sb	a5,0(a1)
     c10:	3986a583          	lw	a1,920(a3)
     c14:	00961613          	slli	a2,a2,0x9
     c18:	00c30b33          	add	s6,t1,a2
     c1c:	01e585b3          	add	a1,a1,t5
     c20:	00f58023          	sb	a5,0(a1)
     c24:	3986a583          	lw	a1,920(a3)
     c28:	00c88ab3          	add	s5,a7,a2
     c2c:	00ce0633          	add	a2,t3,a2
     c30:	014585b3          	add	a1,a1,s4
     c34:	00f58023          	sb	a5,0(a1)
     c38:	3986a503          	lw	a0,920(a3)
     c3c:	d8070593          	addi	a1,a4,-640
     c40:	00b30fb3          	add	t6,t1,a1
     c44:	01350533          	add	a0,a0,s3
     c48:	00f50023          	sb	a5,0(a0)
     c4c:	3986a503          	lw	a0,920(a3)
     c50:	00b88f33          	add	t5,a7,a1
     c54:	00be05b3          	add	a1,t3,a1
     c58:	01d50533          	add	a0,a0,t4
     c5c:	00f50023          	sb	a5,0(a0)
     c60:	3986a503          	lw	a0,920(a3)
     c64:	ec070713          	addi	a4,a4,-320
     c68:	00e30333          	add	t1,t1,a4
     c6c:	01650533          	add	a0,a0,s6
     c70:	00f50023          	sb	a5,0(a0)
     c74:	3986a503          	lw	a0,920(a3)
     c78:	00e888b3          	add	a7,a7,a4
     c7c:	00ee0733          	add	a4,t3,a4
     c80:	01550533          	add	a0,a0,s5
     c84:	00f50023          	sb	a5,0(a0)
     c88:	3986a503          	lw	a0,920(a3)
     c8c:	00c50633          	add	a2,a0,a2
     c90:	00f60023          	sb	a5,0(a2)
     c94:	3986a603          	lw	a2,920(a3)
     c98:	01f60633          	add	a2,a2,t6
     c9c:	00f60023          	sb	a5,0(a2)
     ca0:	3986a603          	lw	a2,920(a3)
     ca4:	01e60633          	add	a2,a2,t5
     ca8:	00f60023          	sb	a5,0(a2)
     cac:	3986a603          	lw	a2,920(a3)
     cb0:	00b60633          	add	a2,a2,a1
     cb4:	00f60023          	sb	a5,0(a2)
     cb8:	3986a603          	lw	a2,920(a3)
     cbc:	00660633          	add	a2,a2,t1
     cc0:	00f60023          	sb	a5,0(a2)
     cc4:	3986a603          	lw	a2,920(a3)
     cc8:	01160633          	add	a2,a2,a7
     ccc:	00f60023          	sb	a5,0(a2)
     cd0:	3986a603          	lw	a2,920(a3)
     cd4:	00e60733          	add	a4,a2,a4
     cd8:	00f70023          	sb	a5,0(a4)
     cdc:	3986a703          	lw	a4,920(a3)
     ce0:	01270733          	add	a4,a4,s2
     ce4:	00f70023          	sb	a5,0(a4)
     ce8:	3986a703          	lw	a4,920(a3)
     cec:	00970733          	add	a4,a4,s1
     cf0:	00f70023          	sb	a5,0(a4)
     cf4:	3986a703          	lw	a4,920(a3)
     cf8:	00870733          	add	a4,a4,s0
     cfc:	00f70023          	sb	a5,0(a4)
     d00:	3986a703          	lw	a4,920(a3)
     d04:	00770733          	add	a4,a4,t2
     d08:	00f70023          	sb	a5,0(a4)
     d0c:	3986a703          	lw	a4,920(a3)
     d10:	00570733          	add	a4,a4,t0
     d14:	00f70023          	sb	a5,0(a4)
     d18:	3986a703          	lw	a4,920(a3)
     d1c:	01070733          	add	a4,a4,a6
     d20:	00f70023          	sb	a5,0(a4)
     d24:	3986a703          	lw	a4,920(a3)
     d28:	01470733          	add	a4,a4,s4
     d2c:	00f70023          	sb	a5,0(a4)
     d30:	3986a703          	lw	a4,920(a3)
     d34:	01370733          	add	a4,a4,s3
     d38:	00f70023          	sb	a5,0(a4)
     d3c:	3986a703          	lw	a4,920(a3)
     d40:	01d70733          	add	a4,a4,t4
     d44:	00f70023          	sb	a5,0(a4)
     d48:	04c12403          	lw	s0,76(sp)
     d4c:	04812483          	lw	s1,72(sp)
     d50:	04412903          	lw	s2,68(sp)
     d54:	04012983          	lw	s3,64(sp)
     d58:	03c12a03          	lw	s4,60(sp)
     d5c:	03812a83          	lw	s5,56(sp)
     d60:	03412b03          	lw	s6,52(sp)
     d64:	05010113          	addi	sp,sp,80
     d68:	00008067          	ret
     d6c:	000037b7          	lui	a5,0x3
     d70:	00259613          	slli	a2,a1,0x2
     d74:	3987a683          	lw	a3,920(a5) # 3398 <vga_buffer>
     d78:	00b605b3          	add	a1,a2,a1
     d7c:	00959593          	slli	a1,a1,0x9
     d80:	00b50633          	add	a2,a0,a1
     d84:	04812623          	sw	s0,76(sp)
     d88:	04912423          	sw	s1,72(sp)
     d8c:	05212223          	sw	s2,68(sp)
     d90:	05312023          	sw	s3,64(sp)
     d94:	03412e23          	sw	s4,60(sp)
     d98:	03512c23          	sw	s5,56(sp)
     d9c:	03612a23          	sw	s6,52(sp)
     da0:	03712823          	sw	s7,48(sp)
     da4:	03812623          	sw	s8,44(sp)
     da8:	03912423          	sw	s9,40(sp)
     dac:	03a12223          	sw	s10,36(sp)
     db0:	03b12023          	sw	s11,32(sp)
     db4:	00c686b3          	add	a3,a3,a2
     db8:	00068023          	sb	zero,0(a3)
     dbc:	3987a683          	lw	a3,920(a5)
     dc0:	00150e13          	addi	t3,a0,1
     dc4:	00be0633          	add	a2,t3,a1
     dc8:	00c686b3          	add	a3,a3,a2
     dcc:	00068023          	sb	zero,0(a3)
     dd0:	3987a683          	lw	a3,920(a5)
     dd4:	00250313          	addi	t1,a0,2
     dd8:	00b30633          	add	a2,t1,a1
     ddc:	00c686b3          	add	a3,a3,a2
     de0:	00068023          	sb	zero,0(a3)
     de4:	3987a683          	lw	a3,920(a5)
     de8:	00350893          	addi	a7,a0,3
     dec:	00b88633          	add	a2,a7,a1
     df0:	00c686b3          	add	a3,a3,a2
     df4:	00068023          	sb	zero,0(a3)
     df8:	3987a683          	lw	a3,920(a5)
     dfc:	00450813          	addi	a6,a0,4
     e00:	00b80633          	add	a2,a6,a1
     e04:	00c686b3          	add	a3,a3,a2
     e08:	00068023          	sb	zero,0(a3)
     e0c:	3987a683          	lw	a3,920(a5)
     e10:	00550613          	addi	a2,a0,5
     e14:	00b60eb3          	add	t4,a2,a1
     e18:	01d686b3          	add	a3,a3,t4
     e1c:	00068023          	sb	zero,0(a3)
     e20:	3987ae83          	lw	t4,920(a5)
     e24:	00650693          	addi	a3,a0,6
     e28:	00b68f33          	add	t5,a3,a1
     e2c:	01ee8eb3          	add	t4,t4,t5
     e30:	000e8023          	sb	zero,0(t4)
     e34:	3987ae83          	lw	t4,920(a5)
     e38:	00750f13          	addi	t5,a0,7
     e3c:	00bf05b3          	add	a1,t5,a1
     e40:	00170f93          	addi	t6,a4,1
     e44:	00be85b3          	add	a1,t4,a1
     e48:	00058023          	sb	zero,0(a1)
     e4c:	002f9713          	slli	a4,t6,0x2
     e50:	3987a583          	lw	a1,920(a5)
     e54:	01f70733          	add	a4,a4,t6
     e58:	00671713          	slli	a4,a4,0x6
     e5c:	00e50eb3          	add	t4,a0,a4
     e60:	01d585b3          	add	a1,a1,t4
     e64:	00058023          	sb	zero,0(a1)
     e68:	3987a583          	lw	a1,920(a5)
     e6c:	00ee0eb3          	add	t4,t3,a4
     e70:	00e302b3          	add	t0,t1,a4
     e74:	01d585b3          	add	a1,a1,t4
     e78:	00058023          	sb	zero,0(a1)
     e7c:	3987a583          	lw	a1,920(a5)
     e80:	00e88fb3          	add	t6,a7,a4
     e84:	00e80eb3          	add	t4,a6,a4
     e88:	005585b3          	add	a1,a1,t0
     e8c:	00058023          	sb	zero,0(a1)
     e90:	3987a583          	lw	a1,920(a5)
     e94:	00e604b3          	add	s1,a2,a4
     e98:	00e68433          	add	s0,a3,a4
     e9c:	01f585b3          	add	a1,a1,t6
     ea0:	00058023          	sb	zero,0(a1)
     ea4:	3987a583          	lw	a1,920(a5)
     ea8:	00ef03b3          	add	t2,t5,a4
     eac:	14070f93          	addi	t6,a4,320
     eb0:	01d585b3          	add	a1,a1,t4
     eb4:	00058023          	sb	zero,0(a1)
     eb8:	3987a583          	lw	a1,920(a5)
     ebc:	01f50eb3          	add	t4,a0,t6
     ec0:	01fe02b3          	add	t0,t3,t6
     ec4:	009585b3          	add	a1,a1,s1
     ec8:	00058023          	sb	zero,0(a1)
     ecc:	3987a583          	lw	a1,920(a5)
     ed0:	01f30ab3          	add	s5,t1,t6
     ed4:	01f88a33          	add	s4,a7,t6
     ed8:	008585b3          	add	a1,a1,s0
     edc:	00058023          	sb	zero,0(a1)
     ee0:	3987a583          	lw	a1,920(a5)
     ee4:	01f804b3          	add	s1,a6,t6
     ee8:	01f609b3          	add	s3,a2,t6
     eec:	007585b3          	add	a1,a1,t2
     ef0:	00058023          	sb	zero,0(a1)
     ef4:	3987a583          	lw	a1,920(a5)
     ef8:	01f68933          	add	s2,a3,t6
     efc:	01ff0fb3          	add	t6,t5,t6
     f00:	01d585b3          	add	a1,a1,t4
     f04:	00058023          	sb	zero,0(a1)
     f08:	3987a583          	lw	a1,920(a5)
     f0c:	28070e93          	addi	t4,a4,640
     f10:	00ae8433          	add	s0,t4,a0
     f14:	005585b3          	add	a1,a1,t0
     f18:	00058023          	sb	zero,0(a1)
     f1c:	3987a583          	lw	a1,920(a5)
     f20:	01ce83b3          	add	t2,t4,t3
     f24:	006e82b3          	add	t0,t4,t1
     f28:	015585b3          	add	a1,a1,s5
     f2c:	00058023          	sb	zero,0(a1)
     f30:	3987a583          	lw	a1,920(a5)
     f34:	011e8db3          	add	s11,t4,a7
     f38:	010e8d33          	add	s10,t4,a6
     f3c:	014585b3          	add	a1,a1,s4
     f40:	00058023          	sb	zero,0(a1)
     f44:	3987a583          	lw	a1,920(a5)
     f48:	00ce8cb3          	add	s9,t4,a2
     f4c:	00de8c33          	add	s8,t4,a3
     f50:	009585b3          	add	a1,a1,s1
     f54:	00058023          	sb	zero,0(a1)
     f58:	3987a483          	lw	s1,920(a5)
     f5c:	3c070593          	addi	a1,a4,960
     f60:	00b50bb3          	add	s7,a0,a1
     f64:	013484b3          	add	s1,s1,s3
     f68:	00048023          	sb	zero,0(s1)
     f6c:	3987a483          	lw	s1,920(a5)
     f70:	01c58b33          	add	s6,a1,t3
     f74:	00658ab3          	add	s5,a1,t1
     f78:	012484b3          	add	s1,s1,s2
     f7c:	00048023          	sb	zero,0(s1)
     f80:	3987a483          	lw	s1,920(a5)
     f84:	01158a33          	add	s4,a1,a7
     f88:	010589b3          	add	s3,a1,a6
     f8c:	01f48fb3          	add	t6,s1,t6
     f90:	000f8023          	sb	zero,0(t6)
     f94:	3987af83          	lw	t6,920(a5)
     f98:	00c58933          	add	s2,a1,a2
     f9c:	00b684b3          	add	s1,a3,a1
     fa0:	008f8fb3          	add	t6,t6,s0
     fa4:	000f8023          	sb	zero,0(t6)
     fa8:	3987af83          	lw	t6,920(a5)
     fac:	01e585b3          	add	a1,a1,t5
     fb0:	00b12223          	sw	a1,4(sp)
     fb4:	007f8fb3          	add	t6,t6,t2
     fb8:	000f8023          	sb	zero,0(t6)
     fbc:	3987a383          	lw	t2,920(a5)
     fc0:	01ee8eb3          	add	t4,t4,t5
     fc4:	50070f93          	addi	t6,a4,1280
     fc8:	005382b3          	add	t0,t2,t0
     fcc:	00028023          	sb	zero,0(t0)
     fd0:	3987a283          	lw	t0,920(a5)
     fd4:	006f85b3          	add	a1,t6,t1
     fd8:	00b12423          	sw	a1,8(sp)
     fdc:	01b282b3          	add	t0,t0,s11
     fe0:	00028023          	sb	zero,0(t0)
     fe4:	3987a283          	lw	t0,920(a5)
     fe8:	010f85b3          	add	a1,t6,a6
     fec:	01f50433          	add	s0,a0,t6
     ff0:	01a282b3          	add	t0,t0,s10
     ff4:	00028023          	sb	zero,0(t0)
     ff8:	3987a283          	lw	t0,920(a5)
     ffc:	01cf83b3          	add	t2,t6,t3
    1000:	011f8db3          	add	s11,t6,a7
    1004:	019282b3          	add	t0,t0,s9
    1008:	00028023          	sb	zero,0(t0)
    100c:	3987a283          	lw	t0,920(a5)
    1010:	00cf8d33          	add	s10,t6,a2
    1014:	01ef8cb3          	add	s9,t6,t5
    1018:	018282b3          	add	t0,t0,s8
    101c:	00028023          	sb	zero,0(t0)
    1020:	3987a283          	lw	t0,920(a5)
    1024:	00b12623          	sw	a1,12(sp)
    1028:	01f685b3          	add	a1,a3,t6
    102c:	01d282b3          	add	t0,t0,t4
    1030:	00028023          	sb	zero,0(t0)
    1034:	3987ae83          	lw	t4,920(a5)
    1038:	64070f93          	addi	t6,a4,1600
    103c:	01f302b3          	add	t0,t1,t6
    1040:	017e8eb3          	add	t4,t4,s7
    1044:	000e8023          	sb	zero,0(t4)
    1048:	3987ae83          	lw	t4,920(a5)
    104c:	00b12823          	sw	a1,16(sp)
    1050:	00512c23          	sw	t0,24(sp)
    1054:	016e8eb3          	add	t4,t4,s6
    1058:	000e8023          	sb	zero,0(t4)
    105c:	3987ab03          	lw	s6,920(a5)
    1060:	01fe05b3          	add	a1,t3,t6
    1064:	01f882b3          	add	t0,a7,t6
    1068:	015b0ab3          	add	s5,s6,s5
    106c:	000a8023          	sb	zero,0(s5)
    1070:	3987aa83          	lw	s5,920(a5)
    1074:	00b12a23          	sw	a1,20(sp)
    1078:	00512e23          	sw	t0,28(sp)
    107c:	014a8a33          	add	s4,s5,s4
    1080:	000a0023          	sb	zero,0(s4)
    1084:	3987aa03          	lw	s4,920(a5)
    1088:	78070713          	addi	a4,a4,1920
    108c:	01f50c33          	add	s8,a0,t6
    1090:	013a09b3          	add	s3,s4,s3
    1094:	00098023          	sb	zero,0(s3)
    1098:	3987a983          	lw	s3,920(a5)
    109c:	01f80bb3          	add	s7,a6,t6
    10a0:	01f602b3          	add	t0,a2,t6
    10a4:	01298933          	add	s2,s3,s2
    10a8:	00090023          	sb	zero,0(s2)
    10ac:	3987a903          	lw	s2,920(a5)
    10b0:	01f68eb3          	add	t4,a3,t6
    10b4:	00e50533          	add	a0,a0,a4
    10b8:	009904b3          	add	s1,s2,s1
    10bc:	00048023          	sb	zero,0(s1)
    10c0:	3987a483          	lw	s1,920(a5)
    10c4:	00412583          	lw	a1,4(sp)
    10c8:	01ff0fb3          	add	t6,t5,t6
    10cc:	00ee0e33          	add	t3,t3,a4
    10d0:	00b484b3          	add	s1,s1,a1
    10d4:	00048023          	sb	zero,0(s1)
    10d8:	3987a583          	lw	a1,920(a5)
    10dc:	00e30333          	add	t1,t1,a4
    10e0:	00e888b3          	add	a7,a7,a4
    10e4:	008585b3          	add	a1,a1,s0
    10e8:	00058023          	sb	zero,0(a1)
    10ec:	3987a583          	lw	a1,920(a5)
    10f0:	00e80833          	add	a6,a6,a4
    10f4:	00e60633          	add	a2,a2,a4
    10f8:	007585b3          	add	a1,a1,t2
    10fc:	00058023          	sb	zero,0(a1)
    1100:	3987a583          	lw	a1,920(a5)
    1104:	00e686b3          	add	a3,a3,a4
    1108:	00ef0733          	add	a4,t5,a4
    110c:	00812f03          	lw	t5,8(sp)
    1110:	01e585b3          	add	a1,a1,t5
    1114:	00058023          	sb	zero,0(a1)
    1118:	3987a583          	lw	a1,920(a5)
    111c:	00c12f03          	lw	t5,12(sp)
    1120:	01b585b3          	add	a1,a1,s11
    1124:	00058023          	sb	zero,0(a1)
    1128:	3987a583          	lw	a1,920(a5)
    112c:	01e585b3          	add	a1,a1,t5
    1130:	00058023          	sb	zero,0(a1)
    1134:	3987a583          	lw	a1,920(a5)
    1138:	01012f03          	lw	t5,16(sp)
    113c:	01a585b3          	add	a1,a1,s10
    1140:	00058023          	sb	zero,0(a1)
    1144:	3987a583          	lw	a1,920(a5)
    1148:	01e585b3          	add	a1,a1,t5
    114c:	00058023          	sb	zero,0(a1)
    1150:	3987a583          	lw	a1,920(a5)
    1154:	01412f03          	lw	t5,20(sp)
    1158:	019585b3          	add	a1,a1,s9
    115c:	00058023          	sb	zero,0(a1)
    1160:	3987a583          	lw	a1,920(a5)
    1164:	018585b3          	add	a1,a1,s8
    1168:	00058023          	sb	zero,0(a1)
    116c:	3987a583          	lw	a1,920(a5)
    1170:	01e585b3          	add	a1,a1,t5
    1174:	00058023          	sb	zero,0(a1)
    1178:	3987a583          	lw	a1,920(a5)
    117c:	01812f03          	lw	t5,24(sp)
    1180:	01e585b3          	add	a1,a1,t5
    1184:	00058023          	sb	zero,0(a1)
    1188:	3987a583          	lw	a1,920(a5)
    118c:	01c12f03          	lw	t5,28(sp)
    1190:	01e585b3          	add	a1,a1,t5
    1194:	00058023          	sb	zero,0(a1)
    1198:	3987a583          	lw	a1,920(a5)
    119c:	017585b3          	add	a1,a1,s7
    11a0:	00058023          	sb	zero,0(a1)
    11a4:	3987a583          	lw	a1,920(a5)
    11a8:	005585b3          	add	a1,a1,t0
    11ac:	00058023          	sb	zero,0(a1)
    11b0:	3987a583          	lw	a1,920(a5)
    11b4:	01d585b3          	add	a1,a1,t4
    11b8:	00058023          	sb	zero,0(a1)
    11bc:	3987a583          	lw	a1,920(a5)
    11c0:	01f585b3          	add	a1,a1,t6
    11c4:	00058023          	sb	zero,0(a1)
    11c8:	3987a583          	lw	a1,920(a5)
    11cc:	00a585b3          	add	a1,a1,a0
    11d0:	00058023          	sb	zero,0(a1)
    11d4:	3987a583          	lw	a1,920(a5)
    11d8:	01c585b3          	add	a1,a1,t3
    11dc:	00058023          	sb	zero,0(a1)
    11e0:	3987a583          	lw	a1,920(a5)
    11e4:	006585b3          	add	a1,a1,t1
    11e8:	00058023          	sb	zero,0(a1)
    11ec:	3987a583          	lw	a1,920(a5)
    11f0:	011585b3          	add	a1,a1,a7
    11f4:	00058023          	sb	zero,0(a1)
    11f8:	3987a583          	lw	a1,920(a5)
    11fc:	010585b3          	add	a1,a1,a6
    1200:	00058023          	sb	zero,0(a1)
    1204:	3987a583          	lw	a1,920(a5)
    1208:	00c58633          	add	a2,a1,a2
    120c:	00060023          	sb	zero,0(a2)
    1210:	3987a603          	lw	a2,920(a5)
    1214:	00d606b3          	add	a3,a2,a3
    1218:	00068023          	sb	zero,0(a3)
    121c:	3987a783          	lw	a5,920(a5)
    1220:	00e787b3          	add	a5,a5,a4
    1224:	00078023          	sb	zero,0(a5)
    1228:	869ff06f          	j	a90 <__heap_size+0x290>
    122c:	000036b7          	lui	a3,0x3
    1230:	00259813          	slli	a6,a1,0x2
    1234:	3986a603          	lw	a2,920(a3) # 3398 <vga_buffer>
    1238:	00b80833          	add	a6,a6,a1
    123c:	00981813          	slli	a6,a6,0x9
    1240:	00350593          	addi	a1,a0,3
    1244:	010588b3          	add	a7,a1,a6
    1248:	01f00793          	li	a5,31
    124c:	01160633          	add	a2,a2,a7
    1250:	00f60023          	sb	a5,0(a2)
    1254:	3986a883          	lw	a7,920(a3)
    1258:	00450613          	addi	a2,a0,4
    125c:	00c80333          	add	t1,a6,a2
    1260:	006888b3          	add	a7,a7,t1
    1264:	00f88023          	sb	a5,0(a7)
    1268:	3986a883          	lw	a7,920(a3)
    126c:	00550513          	addi	a0,a0,5
    1270:	00a80833          	add	a6,a6,a0
    1274:	00170313          	addi	t1,a4,1
    1278:	01088833          	add	a6,a7,a6
    127c:	00f80023          	sb	a5,0(a6)
    1280:	00231713          	slli	a4,t1,0x2
    1284:	3986a803          	lw	a6,920(a3)
    1288:	00670733          	add	a4,a4,t1
    128c:	00671713          	slli	a4,a4,0x6
    1290:	00e588b3          	add	a7,a1,a4
    1294:	01180833          	add	a6,a6,a7
    1298:	00f80023          	sb	a5,0(a6)
    129c:	3986a803          	lw	a6,920(a3)
    12a0:	00e608b3          	add	a7,a2,a4
    12a4:	00e50333          	add	t1,a0,a4
    12a8:	01180833          	add	a6,a6,a7
    12ac:	00f80023          	sb	a5,0(a6)
    12b0:	3986a883          	lw	a7,920(a3)
    12b4:	14070813          	addi	a6,a4,320
    12b8:	01058eb3          	add	t4,a1,a6
    12bc:	006888b3          	add	a7,a7,t1
    12c0:	00f88023          	sb	a5,0(a7)
    12c4:	3986a303          	lw	t1,920(a3)
    12c8:	01060e33          	add	t3,a2,a6
    12cc:	010508b3          	add	a7,a0,a6
    12d0:	01d30833          	add	a6,t1,t4
    12d4:	00f80023          	sb	a5,0(a6)
    12d8:	3986a303          	lw	t1,920(a3)
    12dc:	28070813          	addi	a6,a4,640
    12e0:	01058eb3          	add	t4,a1,a6
    12e4:	01c30333          	add	t1,t1,t3
    12e8:	00f30023          	sb	a5,0(t1)
    12ec:	3986a303          	lw	t1,920(a3)
    12f0:	01060e33          	add	t3,a2,a6
    12f4:	01050833          	add	a6,a0,a6
    12f8:	011308b3          	add	a7,t1,a7
    12fc:	00f88023          	sb	a5,0(a7)
    1300:	3986a883          	lw	a7,920(a3)
    1304:	3c070313          	addi	t1,a4,960
    1308:	00658f33          	add	t5,a1,t1
    130c:	01d888b3          	add	a7,a7,t4
    1310:	00f88023          	sb	a5,0(a7)
    1314:	3986a883          	lw	a7,920(a3)
    1318:	006603b3          	add	t2,a2,t1
    131c:	00650eb3          	add	t4,a0,t1
    1320:	01c888b3          	add	a7,a7,t3
    1324:	00f88023          	sb	a5,0(a7)
    1328:	3986a303          	lw	t1,920(a3)
    132c:	50070893          	addi	a7,a4,1280
    1330:	011582b3          	add	t0,a1,a7
    1334:	01030833          	add	a6,t1,a6
    1338:	00f80023          	sb	a5,0(a6)
    133c:	3986a803          	lw	a6,920(a3)
    1340:	01160fb3          	add	t6,a2,a7
    1344:	01150e33          	add	t3,a0,a7
    1348:	01e80833          	add	a6,a6,t5
    134c:	00f80023          	sb	a5,0(a6)
    1350:	3986a803          	lw	a6,920(a3)
    1354:	64070893          	addi	a7,a4,1600
    1358:	78070713          	addi	a4,a4,1920
    135c:	00780833          	add	a6,a6,t2
    1360:	00f80023          	sb	a5,0(a6)
    1364:	3986a803          	lw	a6,920(a3)
    1368:	01158f33          	add	t5,a1,a7
    136c:	01160333          	add	t1,a2,a7
    1370:	01d80833          	add	a6,a6,t4
    1374:	00f80023          	sb	a5,0(a6)
    1378:	3986a803          	lw	a6,920(a3)
    137c:	011508b3          	add	a7,a0,a7
    1380:	00b705b3          	add	a1,a4,a1
    1384:	00580833          	add	a6,a6,t0
    1388:	00f80023          	sb	a5,0(a6)
    138c:	3986a803          	lw	a6,920(a3)
    1390:	00c70633          	add	a2,a4,a2
    1394:	00a70733          	add	a4,a4,a0
    1398:	01f80533          	add	a0,a6,t6
    139c:	00f50023          	sb	a5,0(a0)
    13a0:	3986a503          	lw	a0,920(a3)
    13a4:	01c50533          	add	a0,a0,t3
    13a8:	00f50023          	sb	a5,0(a0)
    13ac:	3986a503          	lw	a0,920(a3)
    13b0:	01e50533          	add	a0,a0,t5
    13b4:	00f50023          	sb	a5,0(a0)
    13b8:	3986a503          	lw	a0,920(a3)
    13bc:	00650533          	add	a0,a0,t1
    13c0:	00f50023          	sb	a5,0(a0)
    13c4:	3986a503          	lw	a0,920(a3)
    13c8:	01150533          	add	a0,a0,a7
    13cc:	00f50023          	sb	a5,0(a0)
    13d0:	3986a503          	lw	a0,920(a3)
    13d4:	00b505b3          	add	a1,a0,a1
    13d8:	00f58023          	sb	a5,0(a1)
    13dc:	3986a583          	lw	a1,920(a3)
    13e0:	00c58633          	add	a2,a1,a2
    13e4:	00f60023          	sb	a5,0(a2)
    13e8:	3986a683          	lw	a3,920(a3)
    13ec:	00e68733          	add	a4,a3,a4
    13f0:	00f70023          	sb	a5,0(a4)
    13f4:	05010113          	addi	sp,sp,80
    13f8:	00008067          	ret
    13fc:	00370713          	addi	a4,a4,3
    1400:	000036b7          	lui	a3,0x3
    1404:	00271793          	slli	a5,a4,0x2
    1408:	3986a603          	lw	a2,920(a3) # 3398 <vga_buffer>
    140c:	00e787b3          	add	a5,a5,a4
    1410:	00679793          	slli	a5,a5,0x6
    1414:	00f505b3          	add	a1,a0,a5
    1418:	01f00713          	li	a4,31
    141c:	04812623          	sw	s0,76(sp)
    1420:	04912423          	sw	s1,72(sp)
    1424:	00b60633          	add	a2,a2,a1
    1428:	00e60023          	sb	a4,0(a2)
    142c:	3986a603          	lw	a2,920(a3)
    1430:	00150e13          	addi	t3,a0,1
    1434:	00fe05b3          	add	a1,t3,a5
    1438:	00b60633          	add	a2,a2,a1
    143c:	00e60023          	sb	a4,0(a2)
    1440:	3986a603          	lw	a2,920(a3)
    1444:	00250313          	addi	t1,a0,2
    1448:	00f305b3          	add	a1,t1,a5
    144c:	00b60633          	add	a2,a2,a1
    1450:	00e60023          	sb	a4,0(a2)
    1454:	3986a603          	lw	a2,920(a3)
    1458:	00350893          	addi	a7,a0,3
    145c:	00f885b3          	add	a1,a7,a5
    1460:	00b60633          	add	a2,a2,a1
    1464:	00e60023          	sb	a4,0(a2)
    1468:	3986a603          	lw	a2,920(a3)
    146c:	00450813          	addi	a6,a0,4
    1470:	00f805b3          	add	a1,a6,a5
    1474:	00b60633          	add	a2,a2,a1
    1478:	00e60023          	sb	a4,0(a2)
    147c:	3986a603          	lw	a2,920(a3)
    1480:	00550593          	addi	a1,a0,5
    1484:	00f58eb3          	add	t4,a1,a5
    1488:	01d60633          	add	a2,a2,t4
    148c:	00e60023          	sb	a4,0(a2)
    1490:	3986ae83          	lw	t4,920(a3)
    1494:	00650613          	addi	a2,a0,6
    1498:	00f60f33          	add	t5,a2,a5
    149c:	01ee8eb3          	add	t4,t4,t5
    14a0:	00ee8023          	sb	a4,0(t4)
    14a4:	3986ae83          	lw	t4,920(a3)
    14a8:	00750f13          	addi	t5,a0,7
    14ac:	00ff0fb3          	add	t6,t5,a5
    14b0:	01fe8eb3          	add	t4,t4,t6
    14b4:	00ee8023          	sb	a4,0(t4)
    14b8:	3986ae83          	lw	t4,920(a3)
    14bc:	14078f93          	addi	t6,a5,320
    14c0:	01f502b3          	add	t0,a0,t6
    14c4:	005e8eb3          	add	t4,t4,t0
    14c8:	00ee8023          	sb	a4,0(t4)
    14cc:	3986ae83          	lw	t4,920(a3)
    14d0:	01fe03b3          	add	t2,t3,t6
    14d4:	01f302b3          	add	t0,t1,t6
    14d8:	007e8eb3          	add	t4,t4,t2
    14dc:	00ee8023          	sb	a4,0(t4)
    14e0:	3986ae83          	lw	t4,920(a3)
    14e4:	01f884b3          	add	s1,a7,t6
    14e8:	01f80433          	add	s0,a6,t6
    14ec:	005e8eb3          	add	t4,t4,t0
    14f0:	00ee8023          	sb	a4,0(t4)
    14f4:	3986ae83          	lw	t4,920(a3)
    14f8:	01f583b3          	add	t2,a1,t6
    14fc:	01f602b3          	add	t0,a2,t6
    1500:	009e8eb3          	add	t4,t4,s1
    1504:	00ee8023          	sb	a4,0(t4)
    1508:	3986ae83          	lw	t4,920(a3)
    150c:	01ff0fb3          	add	t6,t5,t6
    1510:	28078793          	addi	a5,a5,640
    1514:	008e8eb3          	add	t4,t4,s0
    1518:	00ee8023          	sb	a4,0(t4)
    151c:	3986ae83          	lw	t4,920(a3)
    1520:	00f50533          	add	a0,a0,a5
    1524:	01c78e33          	add	t3,a5,t3
    1528:	007e8eb3          	add	t4,t4,t2
    152c:	00ee8023          	sb	a4,0(t4)
    1530:	3986ae83          	lw	t4,920(a3)
    1534:	00678333          	add	t1,a5,t1
    1538:	00f888b3          	add	a7,a7,a5
    153c:	005e8eb3          	add	t4,t4,t0
    1540:	00ee8023          	sb	a4,0(t4)
    1544:	3986ae83          	lw	t4,920(a3)
    1548:	01078833          	add	a6,a5,a6
    154c:	00b785b3          	add	a1,a5,a1
    1550:	01fe8eb3          	add	t4,t4,t6
    1554:	00ee8023          	sb	a4,0(t4)
    1558:	3986ae83          	lw	t4,920(a3)
    155c:	00f60633          	add	a2,a2,a5
    1560:	01e787b3          	add	a5,a5,t5
    1564:	00ae8533          	add	a0,t4,a0
    1568:	00e50023          	sb	a4,0(a0)
    156c:	3986a503          	lw	a0,920(a3)
    1570:	01c50533          	add	a0,a0,t3
    1574:	00e50023          	sb	a4,0(a0)
    1578:	3986a503          	lw	a0,920(a3)
    157c:	00650533          	add	a0,a0,t1
    1580:	00e50023          	sb	a4,0(a0)
    1584:	3986a503          	lw	a0,920(a3)
    1588:	01150533          	add	a0,a0,a7
    158c:	00e50023          	sb	a4,0(a0)
    1590:	3986a503          	lw	a0,920(a3)
    1594:	01050533          	add	a0,a0,a6
    1598:	00e50023          	sb	a4,0(a0)
    159c:	3986a503          	lw	a0,920(a3)
    15a0:	00b505b3          	add	a1,a0,a1
    15a4:	00e58023          	sb	a4,0(a1)
    15a8:	3986a583          	lw	a1,920(a3)
    15ac:	00c58633          	add	a2,a1,a2
    15b0:	00e60023          	sb	a4,0(a2)
    15b4:	3986a683          	lw	a3,920(a3)
    15b8:	00f687b3          	add	a5,a3,a5
    15bc:	00e78023          	sb	a4,0(a5)
    15c0:	04c12403          	lw	s0,76(sp)
    15c4:	04812483          	lw	s1,72(sp)
    15c8:	05010113          	addi	sp,sp,80
    15cc:	00008067          	ret
    15d0:	00370793          	addi	a5,a4,3
    15d4:	000036b7          	lui	a3,0x3
    15d8:	00279613          	slli	a2,a5,0x2
    15dc:	3986a583          	lw	a1,920(a3) # 3398 <vga_buffer>
    15e0:	00f60633          	add	a2,a2,a5
    15e4:	00661613          	slli	a2,a2,0x6
    15e8:	00350313          	addi	t1,a0,3
    15ec:	00c30833          	add	a6,t1,a2
    15f0:	01f00793          	li	a5,31
    15f4:	04812623          	sw	s0,76(sp)
    15f8:	04912423          	sw	s1,72(sp)
    15fc:	05212223          	sw	s2,68(sp)
    1600:	010585b3          	add	a1,a1,a6
    1604:	00f58023          	sb	a5,0(a1)
    1608:	3986a583          	lw	a1,920(a3)
    160c:	00450893          	addi	a7,a0,4
    1610:	00c88833          	add	a6,a7,a2
    1614:	010585b3          	add	a1,a1,a6
    1618:	00f58023          	sb	a5,0(a1)
    161c:	3986a583          	lw	a1,920(a3)
    1620:	00550813          	addi	a6,a0,5
    1624:	00c80e33          	add	t3,a6,a2
    1628:	01c585b3          	add	a1,a1,t3
    162c:	00f58023          	sb	a5,0(a1)
    1630:	3986a583          	lw	a1,920(a3)
    1634:	00650f13          	addi	t5,a0,6
    1638:	00cf0e33          	add	t3,t5,a2
    163c:	01c585b3          	add	a1,a1,t3
    1640:	00f58023          	sb	a5,0(a1)
    1644:	3986a583          	lw	a1,920(a3)
    1648:	00750e93          	addi	t4,a0,7
    164c:	00ce8e33          	add	t3,t4,a2
    1650:	01c585b3          	add	a1,a1,t3
    1654:	00f58023          	sb	a5,0(a1)
    1658:	3986a583          	lw	a1,920(a3)
    165c:	00850513          	addi	a0,a0,8
    1660:	00c50e33          	add	t3,a0,a2
    1664:	01c585b3          	add	a1,a1,t3
    1668:	00f58023          	sb	a5,0(a1)
    166c:	3986ae03          	lw	t3,920(a3)
    1670:	14060593          	addi	a1,a2,320
    1674:	00b30fb3          	add	t6,t1,a1
    1678:	01fe0e33          	add	t3,t3,t6
    167c:	00fe0023          	sb	a5,0(t3)
    1680:	3986ae03          	lw	t3,920(a3)
    1684:	00b882b3          	add	t0,a7,a1
    1688:	00b80fb3          	add	t6,a6,a1
    168c:	005e0e33          	add	t3,t3,t0
    1690:	00fe0023          	sb	a5,0(t3)
    1694:	3986ae03          	lw	t3,920(a3)
    1698:	00bf03b3          	add	t2,t5,a1
    169c:	00be82b3          	add	t0,t4,a1
    16a0:	01fe0e33          	add	t3,t3,t6
    16a4:	00fe0023          	sb	a5,0(t3)
    16a8:	3986af83          	lw	t6,920(a3)
    16ac:	00b505b3          	add	a1,a0,a1
    16b0:	28060e13          	addi	t3,a2,640
    16b4:	007f8fb3          	add	t6,t6,t2
    16b8:	00ff8023          	sb	a5,0(t6)
    16bc:	3986af83          	lw	t6,920(a3)
    16c0:	01c30933          	add	s2,t1,t3
    16c4:	01c884b3          	add	s1,a7,t3
    16c8:	005f8fb3          	add	t6,t6,t0
    16cc:	00ff8023          	sb	a5,0(t6)
    16d0:	3986af83          	lw	t6,920(a3)
    16d4:	01c803b3          	add	t2,a6,t3
    16d8:	01cf0f33          	add	t5,t5,t3
    16dc:	00bf85b3          	add	a1,t6,a1
    16e0:	00f58023          	sb	a5,0(a1)
    16e4:	3986a583          	lw	a1,920(a3)
    16e8:	01ce8eb3          	add	t4,t4,t3
    16ec:	01c50533          	add	a0,a0,t3
    16f0:	012585b3          	add	a1,a1,s2
    16f4:	00f58023          	sb	a5,0(a1)
    16f8:	3986ae03          	lw	t3,920(a3)
    16fc:	3c060593          	addi	a1,a2,960
    1700:	50060613          	addi	a2,a2,1280
    1704:	009e0e33          	add	t3,t3,s1
    1708:	00fe0023          	sb	a5,0(t3)
    170c:	3986ae03          	lw	t3,920(a3)
    1710:	00b30433          	add	s0,t1,a1
    1714:	00b882b3          	add	t0,a7,a1
    1718:	007e0e33          	add	t3,t3,t2
    171c:	00fe0023          	sb	a5,0(t3)
    1720:	3986ae03          	lw	t3,920(a3)
    1724:	00c30fb3          	add	t6,t1,a2
    1728:	00b805b3          	add	a1,a6,a1
    172c:	01ee0e33          	add	t3,t3,t5
    1730:	00fe0023          	sb	a5,0(t3)
    1734:	3986af03          	lw	t5,920(a3)
    1738:	00c88e33          	add	t3,a7,a2
    173c:	00c80633          	add	a2,a6,a2
    1740:	01df0eb3          	add	t4,t5,t4
    1744:	00fe8023          	sb	a5,0(t4)
    1748:	3986ae83          	lw	t4,920(a3)
    174c:	00870f13          	addi	t5,a4,8
    1750:	002f1713          	slli	a4,t5,0x2
    1754:	00ae8533          	add	a0,t4,a0
    1758:	00f50023          	sb	a5,0(a0)
    175c:	3986a503          	lw	a0,920(a3)
    1760:	01e70733          	add	a4,a4,t5
    1764:	00671713          	slli	a4,a4,0x6
    1768:	01250533          	add	a0,a0,s2
    176c:	00f50023          	sb	a5,0(a0)
    1770:	3986a503          	lw	a0,920(a3)
    1774:	00e30333          	add	t1,t1,a4
    1778:	00e888b3          	add	a7,a7,a4
    177c:	00950533          	add	a0,a0,s1
    1780:	00f50023          	sb	a5,0(a0)
    1784:	3986a503          	lw	a0,920(a3)
    1788:	00e80833          	add	a6,a6,a4
    178c:	00750733          	add	a4,a0,t2
    1790:	00f70023          	sb	a5,0(a4)
    1794:	3986a703          	lw	a4,920(a3)
    1798:	00870733          	add	a4,a4,s0
    179c:	00f70023          	sb	a5,0(a4)
    17a0:	3986a703          	lw	a4,920(a3)
    17a4:	00570733          	add	a4,a4,t0
    17a8:	00f70023          	sb	a5,0(a4)
    17ac:	3986a703          	lw	a4,920(a3)
    17b0:	00b70733          	add	a4,a4,a1
    17b4:	00f70023          	sb	a5,0(a4)
    17b8:	3986a703          	lw	a4,920(a3)
    17bc:	01f70733          	add	a4,a4,t6
    17c0:	00f70023          	sb	a5,0(a4)
    17c4:	3986a703          	lw	a4,920(a3)
    17c8:	01c70733          	add	a4,a4,t3
    17cc:	00f70023          	sb	a5,0(a4)
    17d0:	3986a703          	lw	a4,920(a3)
    17d4:	00c70733          	add	a4,a4,a2
    17d8:	00f70023          	sb	a5,0(a4)
    17dc:	3986a703          	lw	a4,920(a3)
    17e0:	00670733          	add	a4,a4,t1
    17e4:	00f70023          	sb	a5,0(a4)
    17e8:	3986a703          	lw	a4,920(a3)
    17ec:	01170733          	add	a4,a4,a7
    17f0:	00f70023          	sb	a5,0(a4)
    17f4:	3986a703          	lw	a4,920(a3)
    17f8:	01070733          	add	a4,a4,a6
    17fc:	00f70023          	sb	a5,0(a4)
    1800:	04c12403          	lw	s0,76(sp)
    1804:	04812483          	lw	s1,72(sp)
    1808:	04412903          	lw	s2,68(sp)
    180c:	05010113          	addi	sp,sp,80
    1810:	00008067          	ret
    1814:	00370793          	addi	a5,a4,3
    1818:	000036b7          	lui	a3,0x3
    181c:	00279613          	slli	a2,a5,0x2
    1820:	3986a583          	lw	a1,920(a3) # 3398 <vga_buffer>
    1824:	00f60633          	add	a2,a2,a5
    1828:	00661613          	slli	a2,a2,0x6
    182c:	00c50833          	add	a6,a0,a2
    1830:	01f00793          	li	a5,31
    1834:	04812623          	sw	s0,76(sp)
    1838:	04912423          	sw	s1,72(sp)
    183c:	010585b3          	add	a1,a1,a6
    1840:	00f58023          	sb	a5,0(a1)
    1844:	3986a583          	lw	a1,920(a3)
    1848:	00150f13          	addi	t5,a0,1
    184c:	00cf0833          	add	a6,t5,a2
    1850:	010585b3          	add	a1,a1,a6
    1854:	00f58023          	sb	a5,0(a1)
    1858:	3986a583          	lw	a1,920(a3)
    185c:	00250e93          	addi	t4,a0,2
    1860:	00ce8833          	add	a6,t4,a2
    1864:	010585b3          	add	a1,a1,a6
    1868:	00f58023          	sb	a5,0(a1)
    186c:	3986a583          	lw	a1,920(a3)
    1870:	00350e13          	addi	t3,a0,3
    1874:	00ce0833          	add	a6,t3,a2
    1878:	010585b3          	add	a1,a1,a6
    187c:	00f58023          	sb	a5,0(a1)
    1880:	3986a583          	lw	a1,920(a3)
    1884:	00450313          	addi	t1,a0,4
    1888:	00c30833          	add	a6,t1,a2
    188c:	010585b3          	add	a1,a1,a6
    1890:	00f58023          	sb	a5,0(a1)
    1894:	3986a583          	lw	a1,920(a3)
    1898:	00550893          	addi	a7,a0,5
    189c:	00c88833          	add	a6,a7,a2
    18a0:	010585b3          	add	a1,a1,a6
    18a4:	00f58023          	sb	a5,0(a1)
    18a8:	3986a803          	lw	a6,920(a3)
    18ac:	14060593          	addi	a1,a2,320
    18b0:	00b50fb3          	add	t6,a0,a1
    18b4:	01f80833          	add	a6,a6,t6
    18b8:	00f80023          	sb	a5,0(a6)
    18bc:	3986a803          	lw	a6,920(a3)
    18c0:	00bf02b3          	add	t0,t5,a1
    18c4:	00be8fb3          	add	t6,t4,a1
    18c8:	00580833          	add	a6,a6,t0
    18cc:	00f80023          	sb	a5,0(a6)
    18d0:	3986a803          	lw	a6,920(a3)
    18d4:	00be03b3          	add	t2,t3,a1
    18d8:	00b302b3          	add	t0,t1,a1
    18dc:	01f80833          	add	a6,a6,t6
    18e0:	00f80023          	sb	a5,0(a6)
    18e4:	3986af83          	lw	t6,920(a3)
    18e8:	00b885b3          	add	a1,a7,a1
    18ec:	28060813          	addi	a6,a2,640
    18f0:	007f8fb3          	add	t6,t6,t2
    18f4:	00ff8023          	sb	a5,0(t6)
    18f8:	3986af83          	lw	t6,920(a3)
    18fc:	01050533          	add	a0,a0,a6
    1900:	01e80f33          	add	t5,a6,t5
    1904:	005f8fb3          	add	t6,t6,t0
    1908:	00ff8023          	sb	a5,0(t6)
    190c:	3986af83          	lw	t6,920(a3)
    1910:	01d80eb3          	add	t4,a6,t4
    1914:	01c80433          	add	s0,a6,t3
    1918:	00bf85b3          	add	a1,t6,a1
    191c:	00f58023          	sb	a5,0(a1)
    1920:	3986a583          	lw	a1,920(a3)
    1924:	006803b3          	add	t2,a6,t1
    1928:	01088833          	add	a6,a7,a6
    192c:	00a585b3          	add	a1,a1,a0
    1930:	00f58023          	sb	a5,0(a1)
    1934:	3986a503          	lw	a0,920(a3)
    1938:	00870493          	addi	s1,a4,8
    193c:	00249713          	slli	a4,s1,0x2
    1940:	01e50533          	add	a0,a0,t5
    1944:	00f50023          	sb	a5,0(a0)
    1948:	3986a503          	lw	a0,920(a3)
    194c:	00970733          	add	a4,a4,s1
    1950:	3c060593          	addi	a1,a2,960
    1954:	01d50533          	add	a0,a0,t4
    1958:	00f50023          	sb	a5,0(a0)
    195c:	3986a503          	lw	a0,920(a3)
    1960:	00671713          	slli	a4,a4,0x6
    1964:	50060613          	addi	a2,a2,1280
    1968:	00850533          	add	a0,a0,s0
    196c:	00f50023          	sb	a5,0(a0)
    1970:	3986ae83          	lw	t4,920(a3)
    1974:	00be02b3          	add	t0,t3,a1
    1978:	00b30fb3          	add	t6,t1,a1
    197c:	007e8eb3          	add	t4,t4,t2
    1980:	00fe8023          	sb	a5,0(t4)
    1984:	3986ae83          	lw	t4,920(a3)
    1988:	00ce0f33          	add	t5,t3,a2
    198c:	00c30533          	add	a0,t1,a2
    1990:	010e8eb3          	add	t4,t4,a6
    1994:	00fe8023          	sb	a5,0(t4)
    1998:	3986ae83          	lw	t4,920(a3)
    199c:	00b885b3          	add	a1,a7,a1
    19a0:	00c88633          	add	a2,a7,a2
    19a4:	008e8eb3          	add	t4,t4,s0
    19a8:	00fe8023          	sb	a5,0(t4)
    19ac:	3986ae83          	lw	t4,920(a3)
    19b0:	01c70e33          	add	t3,a4,t3
    19b4:	00670333          	add	t1,a4,t1
    19b8:	007e8eb3          	add	t4,t4,t2
    19bc:	00fe8023          	sb	a5,0(t4)
    19c0:	3986ae83          	lw	t4,920(a3)
    19c4:	00e888b3          	add	a7,a7,a4
    19c8:	010e8733          	add	a4,t4,a6
    19cc:	00f70023          	sb	a5,0(a4)
    19d0:	3986a703          	lw	a4,920(a3)
    19d4:	00570733          	add	a4,a4,t0
    19d8:	00f70023          	sb	a5,0(a4)
    19dc:	3986a703          	lw	a4,920(a3)
    19e0:	01f70733          	add	a4,a4,t6
    19e4:	00f70023          	sb	a5,0(a4)
    19e8:	3986a703          	lw	a4,920(a3)
    19ec:	00b70733          	add	a4,a4,a1
    19f0:	00f70023          	sb	a5,0(a4)
    19f4:	3986a703          	lw	a4,920(a3)
    19f8:	01e70733          	add	a4,a4,t5
    19fc:	00f70023          	sb	a5,0(a4)
    1a00:	3986a703          	lw	a4,920(a3)
    1a04:	00a70733          	add	a4,a4,a0
    1a08:	00f70023          	sb	a5,0(a4)
    1a0c:	3986a703          	lw	a4,920(a3)
    1a10:	00c70733          	add	a4,a4,a2
    1a14:	00f70023          	sb	a5,0(a4)
    1a18:	3986a703          	lw	a4,920(a3)
    1a1c:	01c70733          	add	a4,a4,t3
    1a20:	00f70023          	sb	a5,0(a4)
    1a24:	3986a703          	lw	a4,920(a3)
    1a28:	00670733          	add	a4,a4,t1
    1a2c:	00f70023          	sb	a5,0(a4)
    1a30:	3986a703          	lw	a4,920(a3)
    1a34:	01170733          	add	a4,a4,a7
    1a38:	00f70023          	sb	a5,0(a4)
    1a3c:	04c12403          	lw	s0,76(sp)
    1a40:	04812483          	lw	s1,72(sp)
    1a44:	05010113          	addi	sp,sp,80
    1a48:	00008067          	ret
    1a4c:	00008067          	ret

00001a50 <draw_character>:
    1a50:	00850713          	addi	a4,a0,8
    1a54:	14000793          	li	a5,320
    1a58:	00e7d463          	bge	a5,a4,1a60 <draw_character+0x10>
    1a5c:	14000713          	li	a4,320
    1a60:	00858793          	addi	a5,a1,8
    1a64:	0f000693          	li	a3,240
    1a68:	00f6d463          	bge	a3,a5,1a70 <draw_character+0x20>
    1a6c:	0f000793          	li	a5,240
    1a70:	04f5d863          	bge	a1,a5,1ac0 <draw_character+0x70>
    1a74:	04e55663          	bge	a0,a4,1ac0 <draw_character+0x70>
    1a78:	00259813          	slli	a6,a1,0x2
    1a7c:	00279893          	slli	a7,a5,0x2
    1a80:	00b80833          	add	a6,a6,a1
    1a84:	00f888b3          	add	a7,a7,a5
    1a88:	00681813          	slli	a6,a6,0x6
    1a8c:	00689893          	slli	a7,a7,0x6
    1a90:	00e806b3          	add	a3,a6,a4
    1a94:	00e888b3          	add	a7,a7,a4
    1a98:	000035b7          	lui	a1,0x3
    1a9c:	010507b3          	add	a5,a0,a6
    1aa0:	3985a703          	lw	a4,920(a1) # 3398 <vga_buffer>
    1aa4:	00f70733          	add	a4,a4,a5
    1aa8:	00c70023          	sb	a2,0(a4)
    1aac:	00178793          	addi	a5,a5,1
    1ab0:	fef698e3          	bne	a3,a5,1aa0 <draw_character+0x50>
    1ab4:	14068693          	addi	a3,a3,320
    1ab8:	14080813          	addi	a6,a6,320
    1abc:	ff1690e3          	bne	a3,a7,1a9c <draw_character+0x4c>
    1ac0:	00008067          	ret

00001ac4 <redraw_tile>:
    1ac4:	00200793          	li	a5,2
    1ac8:	18f60a63          	beq	a2,a5,1c5c <redraw_tile+0x198>
    1acc:	0cc7c263          	blt	a5,a2,1b90 <redraw_tile+0xcc>
    1ad0:	18060263          	beqz	a2,1c54 <redraw_tile+0x190>
    1ad4:	00100793          	li	a5,1
    1ad8:	fff58593          	addi	a1,a1,-1
    1adc:	18f61c63          	bne	a2,a5,1c74 <redraw_tile+0x1b0>
    1ae0:	00003737          	lui	a4,0x3
    1ae4:	00259793          	slli	a5,a1,0x2
    1ae8:	39872683          	lw	a3,920(a4) # 3398 <vga_buffer>
    1aec:	00b787b3          	add	a5,a5,a1
    1af0:	00679793          	slli	a5,a5,0x6
    1af4:	00f50633          	add	a2,a0,a5
    1af8:	00c686b3          	add	a3,a3,a2
    1afc:	00068023          	sb	zero,0(a3)
    1b00:	39872683          	lw	a3,920(a4)
    1b04:	00150613          	addi	a2,a0,1
    1b08:	00f60633          	add	a2,a2,a5
    1b0c:	00c686b3          	add	a3,a3,a2
    1b10:	00068023          	sb	zero,0(a3)
    1b14:	39872683          	lw	a3,920(a4)
    1b18:	00250613          	addi	a2,a0,2
    1b1c:	00f60633          	add	a2,a2,a5
    1b20:	00c686b3          	add	a3,a3,a2
    1b24:	00068023          	sb	zero,0(a3)
    1b28:	39872683          	lw	a3,920(a4)
    1b2c:	00350613          	addi	a2,a0,3
    1b30:	00f60633          	add	a2,a2,a5
    1b34:	00c686b3          	add	a3,a3,a2
    1b38:	00068023          	sb	zero,0(a3)
    1b3c:	39872683          	lw	a3,920(a4)
    1b40:	00450613          	addi	a2,a0,4
    1b44:	00f60633          	add	a2,a2,a5
    1b48:	00c686b3          	add	a3,a3,a2
    1b4c:	00068023          	sb	zero,0(a3)
    1b50:	39872683          	lw	a3,920(a4)
    1b54:	00550613          	addi	a2,a0,5
    1b58:	00f60633          	add	a2,a2,a5
    1b5c:	00c686b3          	add	a3,a3,a2
    1b60:	00068023          	sb	zero,0(a3)
    1b64:	39872683          	lw	a3,920(a4)
    1b68:	00650613          	addi	a2,a0,6
    1b6c:	00f60633          	add	a2,a2,a5
    1b70:	00c686b3          	add	a3,a3,a2
    1b74:	00068023          	sb	zero,0(a3)
    1b78:	39872703          	lw	a4,920(a4)
    1b7c:	00750513          	addi	a0,a0,7
    1b80:	00f50533          	add	a0,a0,a5
    1b84:	00a707b3          	add	a5,a4,a0
    1b88:	00078023          	sb	zero,0(a5)
    1b8c:	00008067          	ret
    1b90:	00300793          	li	a5,3
    1b94:	fef61ce3          	bne	a2,a5,1b8c <redraw_tile+0xc8>
    1b98:	00003737          	lui	a4,0x3
    1b9c:	39872683          	lw	a3,920(a4) # 3398 <vga_buffer>
    1ba0:	00259793          	slli	a5,a1,0x2
    1ba4:	00b787b3          	add	a5,a5,a1
    1ba8:	fff50513          	addi	a0,a0,-1
    1bac:	00679793          	slli	a5,a5,0x6
    1bb0:	00f50633          	add	a2,a0,a5
    1bb4:	00c686b3          	add	a3,a3,a2
    1bb8:	00068023          	sb	zero,0(a3)
    1bbc:	39872683          	lw	a3,920(a4)
    1bc0:	14078613          	addi	a2,a5,320
    1bc4:	00a60633          	add	a2,a2,a0
    1bc8:	00c686b3          	add	a3,a3,a2
    1bcc:	00068023          	sb	zero,0(a3)
    1bd0:	39872683          	lw	a3,920(a4)
    1bd4:	28078613          	addi	a2,a5,640
    1bd8:	00a60633          	add	a2,a2,a0
    1bdc:	00c686b3          	add	a3,a3,a2
    1be0:	00068023          	sb	zero,0(a3)
    1be4:	39872683          	lw	a3,920(a4)
    1be8:	3c078613          	addi	a2,a5,960
    1bec:	00a60633          	add	a2,a2,a0
    1bf0:	00c686b3          	add	a3,a3,a2
    1bf4:	00068023          	sb	zero,0(a3)
    1bf8:	39872683          	lw	a3,920(a4)
    1bfc:	50078613          	addi	a2,a5,1280
    1c00:	00a60633          	add	a2,a2,a0
    1c04:	00c686b3          	add	a3,a3,a2
    1c08:	00068023          	sb	zero,0(a3)
    1c0c:	39872683          	lw	a3,920(a4)
    1c10:	64078613          	addi	a2,a5,1600
    1c14:	00a60633          	add	a2,a2,a0
    1c18:	00c686b3          	add	a3,a3,a2
    1c1c:	00068023          	sb	zero,0(a3)
    1c20:	39872683          	lw	a3,920(a4)
    1c24:	78078613          	addi	a2,a5,1920
    1c28:	00a60633          	add	a2,a2,a0
    1c2c:	00c686b3          	add	a3,a3,a2
    1c30:	00068023          	sb	zero,0(a3)
    1c34:	000016b7          	lui	a3,0x1
    1c38:	39872703          	lw	a4,920(a4)
    1c3c:	8c068693          	addi	a3,a3,-1856 # 8c0 <__heap_size+0xc0>
    1c40:	00d787b3          	add	a5,a5,a3
    1c44:	00a787b3          	add	a5,a5,a0
    1c48:	00f707b3          	add	a5,a4,a5
    1c4c:	00078023          	sb	zero,0(a5)
    1c50:	00008067          	ret
    1c54:	00858593          	addi	a1,a1,8
    1c58:	e89ff06f          	j	1ae0 <redraw_tile+0x1c>
    1c5c:	00003737          	lui	a4,0x3
    1c60:	00259793          	slli	a5,a1,0x2
    1c64:	39872683          	lw	a3,920(a4) # 3398 <vga_buffer>
    1c68:	00b787b3          	add	a5,a5,a1
    1c6c:	00850513          	addi	a0,a0,8
    1c70:	f3dff06f          	j	1bac <redraw_tile+0xe8>
    1c74:	00008067          	ret

00001c78 <fill_display>:
    1c78:	00013837          	lui	a6,0x13
    1c7c:	00050613          	mv	a2,a0
    1c80:	14000693          	li	a3,320
    1c84:	00000513          	li	a0,0
    1c88:	000035b7          	lui	a1,0x3
    1c8c:	d4080813          	addi	a6,a6,-704 # 12d40 <__global_pointer+0xf1ac>
    1c90:	00050793          	mv	a5,a0
    1c94:	3985a703          	lw	a4,920(a1) # 3398 <vga_buffer>
    1c98:	00f70733          	add	a4,a4,a5
    1c9c:	00c70023          	sb	a2,0(a4)
    1ca0:	00178793          	addi	a5,a5,1
    1ca4:	fed798e3          	bne	a5,a3,1c94 <fill_display+0x1c>
    1ca8:	14078693          	addi	a3,a5,320
    1cac:	14050513          	addi	a0,a0,320
    1cb0:	ff0690e3          	bne	a3,a6,1c90 <fill_display+0x18>
    1cb4:	00008067          	ret

00001cb8 <get_sw>:
    1cb8:	040007b7          	lui	a5,0x4000
    1cbc:	0107a503          	lw	a0,16(a5) # 4000010 <_stack_end+0x3efcc14>
    1cc0:	00757513          	andi	a0,a0,7
    1cc4:	00008067          	ret

00001cc8 <handle_input>:
    1cc8:	04000737          	lui	a4,0x4000
    1ccc:	01072783          	lw	a5,16(a4) # 4000010 <_stack_end+0x3efcc14>
    1cd0:	00200693          	li	a3,2
    1cd4:	0077f793          	andi	a5,a5,7
    1cd8:	02d78063          	beq	a5,a3,1cf8 <handle_input+0x30>
    1cdc:	00f6ca63          	blt	a3,a5,1cf0 <handle_input+0x28>
    1ce0:	02078063          	beqz	a5,1d00 <handle_input+0x38>
    1ce4:	00100793          	li	a5,1
    1ce8:	00f52a23          	sw	a5,20(a0)
    1cec:	00008067          	ret
    1cf0:	00300713          	li	a4,3
    1cf4:	00e79a63          	bne	a5,a4,1d08 <handle_input+0x40>
    1cf8:	00f52a23          	sw	a5,20(a0)
    1cfc:	00008067          	ret
    1d00:	00052a23          	sw	zero,20(a0)
    1d04:	00008067          	ret
    1d08:	00008067          	ret

00001d0c <main>:
    1d0c:	ff010113          	addi	sp,sp,-16
    1d10:	00112623          	sw	ra,12(sp)
    1d14:	895fe0ef          	jal	5a8 <vga_init>
    1d18:	ef0fe0ef          	jal	408 <game_init>
    1d1c:	0000006f          	j	1d1c <main+0x10>

00001d20 <player_init>:
    1d20:	00c00713          	li	a4,12
    1d24:	00e52423          	sw	a4,8(a0)
    1d28:	00e00713          	li	a4,14
    1d2c:	fff00793          	li	a5,-1
    1d30:	00e52623          	sw	a4,12(a0)
    1d34:	06000713          	li	a4,96
    1d38:	00e52023          	sw	a4,0(a0)
    1d3c:	00f52823          	sw	a5,16(a0)
    1d40:	07000713          	li	a4,112
    1d44:	00f52a23          	sw	a5,20(a0)
    1d48:	00300793          	li	a5,3
    1d4c:	00e52223          	sw	a4,4(a0)
    1d50:	00052c23          	sw	zero,24(a0)
    1d54:	00f52e23          	sw	a5,28(a0)
    1d58:	00008067          	ret

00001d5c <player_set_position>:
    1d5c:	00b52023          	sw	a1,0(a0)
    1d60:	00c52223          	sw	a2,4(a0)
    1d64:	00008067          	ret

00001d68 <player_handle_input>:
    1d68:	fff00793          	li	a5,-1
    1d6c:	00f58463          	beq	a1,a5,1d74 <player_handle_input+0xc>
    1d70:	00b52a23          	sw	a1,20(a0)
    1d74:	00008067          	ret

00001d78 <is_centered>:
    1d78:	00757513          	andi	a0,a0,7
    1d7c:	00153513          	seqz	a0,a0
    1d80:	00008067          	ret

00001d84 <player_update>:
    1d84:	01452783          	lw	a5,20(a0)
    1d88:	fd010113          	addi	sp,sp,-48
    1d8c:	02812423          	sw	s0,40(sp)
    1d90:	02112623          	sw	ra,44(sp)
    1d94:	02912223          	sw	s1,36(sp)
    1d98:	fff00713          	li	a4,-1
    1d9c:	00050413          	mv	s0,a0
    1da0:	01052503          	lw	a0,16(a0)
    1da4:	02e78063          	beq	a5,a4,1dc4 <player_update+0x40>
    1da8:	00a78e63          	beq	a5,a0,1dc4 <player_update+0x40>
    1dac:	00042703          	lw	a4,0(s0)
    1db0:	00777693          	andi	a3,a4,7
    1db4:	00069863          	bnez	a3,1dc4 <player_update+0x40>
    1db8:	00442683          	lw	a3,4(s0)
    1dbc:	0076f693          	andi	a3,a3,7
    1dc0:	10068063          	beqz	a3,1ec0 <player_update+0x13c>
    1dc4:	01c10613          	addi	a2,sp,28
    1dc8:	01810493          	addi	s1,sp,24
    1dcc:	00048593          	mv	a1,s1
    1dd0:	c28fe0ef          	jal	1f8 <dir_to_movement>
    1dd4:	01042703          	lw	a4,16(s0)
    1dd8:	fff00793          	li	a5,-1
    1ddc:	0af70463          	beq	a4,a5,1e84 <player_update+0x100>
    1de0:	00042703          	lw	a4,0(s0)
    1de4:	01812683          	lw	a3,24(sp)
    1de8:	00442803          	lw	a6,4(s0)
    1dec:	01c12783          	lw	a5,28(sp)
    1df0:	03212023          	sw	s2,32(sp)
    1df4:	00d704b3          	add	s1,a4,a3
    1df8:	00048613          	mv	a2,s1
    1dfc:	00f80933          	add	s2,a6,a5
    1e00:	00d05463          	blez	a3,1e08 <player_update+0x84>
    1e04:	00748613          	addi	a2,s1,7
    1e08:	00090693          	mv	a3,s2
    1e0c:	00f05463          	blez	a5,1e14 <player_update+0x90>
    1e10:	00790693          	addi	a3,s2,7
    1e14:	41f65513          	srai	a0,a2,0x1f
    1e18:	41f75793          	srai	a5,a4,0x1f
    1e1c:	00757513          	andi	a0,a0,7
    1e20:	41f6d593          	srai	a1,a3,0x1f
    1e24:	0077f793          	andi	a5,a5,7
    1e28:	00c50533          	add	a0,a0,a2
    1e2c:	0075f593          	andi	a1,a1,7
    1e30:	00e787b3          	add	a5,a5,a4
    1e34:	00d585b3          	add	a1,a1,a3
    1e38:	40355513          	srai	a0,a0,0x3
    1e3c:	4037d793          	srai	a5,a5,0x3
    1e40:	4035d593          	srai	a1,a1,0x3
    1e44:	00f51c63          	bne	a0,a5,1e5c <player_update+0xd8>
    1e48:	41f85793          	srai	a5,a6,0x1f
    1e4c:	0077f793          	andi	a5,a5,7
    1e50:	010787b3          	add	a5,a5,a6
    1e54:	4037d793          	srai	a5,a5,0x3
    1e58:	00f58663          	beq	a1,a5,1e64 <player_update+0xe0>
    1e5c:	bf4fe0ef          	jal	250 <can_move_to>
    1e60:	02050c63          	beqz	a0,1e98 <player_update+0x114>
    1e64:	ff800793          	li	a5,-8
    1e68:	04f4c863          	blt	s1,a5,1eb8 <player_update+0x134>
    1e6c:	14000793          	li	a5,320
    1e70:	0097d463          	bge	a5,s1,1e78 <player_update+0xf4>
    1e74:	ff900493          	li	s1,-7
    1e78:	01242223          	sw	s2,4(s0)
    1e7c:	02012903          	lw	s2,32(sp)
    1e80:	00942023          	sw	s1,0(s0)
    1e84:	02c12083          	lw	ra,44(sp)
    1e88:	02812403          	lw	s0,40(sp)
    1e8c:	02412483          	lw	s1,36(sp)
    1e90:	03010113          	addi	sp,sp,48
    1e94:	00008067          	ret
    1e98:	fff00793          	li	a5,-1
    1e9c:	02c12083          	lw	ra,44(sp)
    1ea0:	00f42823          	sw	a5,16(s0)
    1ea4:	02812403          	lw	s0,40(sp)
    1ea8:	02012903          	lw	s2,32(sp)
    1eac:	02412483          	lw	s1,36(sp)
    1eb0:	03010113          	addi	sp,sp,48
    1eb4:	00008067          	ret
    1eb8:	13800493          	li	s1,312
    1ebc:	fbdff06f          	j	1e78 <player_update+0xf4>
    1ec0:	fff70713          	addi	a4,a4,-1
    1ec4:	13e00693          	li	a3,318
    1ec8:	01c10613          	addi	a2,sp,28
    1ecc:	01810493          	addi	s1,sp,24
    1ed0:	eee6eee3          	bltu	a3,a4,1dcc <player_update+0x48>
    1ed4:	00078513          	mv	a0,a5
    1ed8:	00048593          	mv	a1,s1
    1edc:	00c12623          	sw	a2,12(sp)
    1ee0:	b18fe0ef          	jal	1f8 <dir_to_movement>
    1ee4:	00442583          	lw	a1,4(s0)
    1ee8:	00042683          	lw	a3,0(s0)
    1eec:	01812503          	lw	a0,24(sp)
    1ef0:	41f5d713          	srai	a4,a1,0x1f
    1ef4:	41f6d793          	srai	a5,a3,0x1f
    1ef8:	00777713          	andi	a4,a4,7
    1efc:	00b70733          	add	a4,a4,a1
    1f00:	0077f793          	andi	a5,a5,7
    1f04:	01c12583          	lw	a1,28(sp)
    1f08:	00d787b3          	add	a5,a5,a3
    1f0c:	40375713          	srai	a4,a4,0x3
    1f10:	4037d793          	srai	a5,a5,0x3
    1f14:	00b705b3          	add	a1,a4,a1
    1f18:	00a78533          	add	a0,a5,a0
    1f1c:	b34fe0ef          	jal	250 <can_move_to>
    1f20:	00c12603          	lw	a2,12(sp)
    1f24:	00051663          	bnez	a0,1f30 <player_update+0x1ac>
    1f28:	01042503          	lw	a0,16(s0)
    1f2c:	ea1ff06f          	j	1dcc <player_update+0x48>
    1f30:	01442503          	lw	a0,20(s0)
    1f34:	00a42823          	sw	a0,16(s0)
    1f38:	e95ff06f          	j	1dcc <player_update+0x48>

00001f3c <player_render>:
    1f3c:	ff010113          	addi	sp,sp,-16
    1f40:	00812423          	sw	s0,8(sp)
    1f44:	01052603          	lw	a2,16(a0)
    1f48:	00050413          	mv	s0,a0
    1f4c:	00452583          	lw	a1,4(a0)
    1f50:	00052503          	lw	a0,0(a0)
    1f54:	00112623          	sw	ra,12(sp)
    1f58:	b6dff0ef          	jal	1ac4 <redraw_tile>
    1f5c:	00442583          	lw	a1,4(s0)
    1f60:	00042503          	lw	a0,0(s0)
    1f64:	00812403          	lw	s0,8(sp)
    1f68:	00c12083          	lw	ra,12(sp)
    1f6c:	0fc00613          	li	a2,252
    1f70:	01010113          	addi	sp,sp,16
    1f74:	addff06f          	j	1a50 <draw_character>

00001f78 <draw_start_screen>:
    1f78:	fe010113          	addi	sp,sp,-32
    1f7c:	00300513          	li	a0,3
    1f80:	00912a23          	sw	s1,20(sp)
    1f84:	01212823          	sw	s2,16(sp)
    1f88:	01312623          	sw	s3,12(sp)
    1f8c:	00112e23          	sw	ra,28(sp)
    1f90:	00812c23          	sw	s0,24(sp)
    1f94:	06400493          	li	s1,100
    1f98:	ce1ff0ef          	jal	1c78 <fill_display>
    1f9c:	0c800913          	li	s2,200
    1fa0:	08c00993          	li	s3,140
    1fa4:	07800413          	li	s0,120
    1fa8:	00040513          	mv	a0,s0
    1fac:	0ff00613          	li	a2,255
    1fb0:	00048593          	mv	a1,s1
    1fb4:	00140413          	addi	s0,s0,1
    1fb8:	e2cfe0ef          	jal	5e4 <set_pixel>
    1fbc:	ff2416e3          	bne	s0,s2,1fa8 <draw_start_screen+0x30>
    1fc0:	00148493          	addi	s1,s1,1
    1fc4:	ff3490e3          	bne	s1,s3,1fa4 <draw_start_screen+0x2c>
    1fc8:	01c12083          	lw	ra,28(sp)
    1fcc:	01812403          	lw	s0,24(sp)
    1fd0:	01412483          	lw	s1,20(sp)
    1fd4:	01012903          	lw	s2,16(sp)
    1fd8:	00c12983          	lw	s3,12(sp)
    1fdc:	02010113          	addi	sp,sp,32
    1fe0:	00008067          	ret

00001fe4 <timer_init>:
    1fe4:	000037b7          	lui	a5,0x3
    1fe8:	3a07a783          	lw	a5,928(a5) # 33a0 <CLOCK_SPEED>
    1fec:	02a7c533          	div	a0,a5,a0
    1ff0:	000037b7          	lui	a5,0x3
    1ff4:	39c7a783          	lw	a5,924(a5) # 339c <timer>
    1ff8:	01051713          	slli	a4,a0,0x10
    1ffc:	01075713          	srli	a4,a4,0x10
    2000:	00e7a423          	sw	a4,8(a5)
    2004:	41055513          	srai	a0,a0,0x10
    2008:	00a7a623          	sw	a0,12(a5)
    200c:	00700713          	li	a4,7
    2010:	00e7a223          	sw	a4,4(a5)
    2014:	96cfe06f          	j	180 <enable_interrupt>

00002018 <interrupt_handler>:
    2018:	000037b7          	lui	a5,0x3
    201c:	39c7a703          	lw	a4,924(a5) # 339c <timer>
    2020:	00072783          	lw	a5,0(a4)
    2024:	0017f793          	andi	a5,a5,1
    2028:	00079463          	bnez	a5,2030 <interrupt_handler+0x18>
    202c:	00008067          	ret
    2030:	00072783          	lw	a5,0(a4)
    2034:	ffe7f793          	andi	a5,a5,-2
    2038:	00f72023          	sw	a5,0(a4)
    203c:	c10fe06f          	j	44c <game_update>
