
main.elf:     file format elf32-littleriscv


Disassembly of section .text:

00000000 <_isr_handler>:
       0:	0080006f          	j	8 <_isr_routine>
       4:	1440006f          	j	148 <_start>

00000008 <_isr_routine>:
       8:	f8010113          	addi	sp,sp,-128
       c:	00112023          	sw	ra,0(sp)
      10:	00312423          	sw	gp,8(sp)
      14:	00412623          	sw	tp,12(sp)
      18:	00512823          	sw	t0,16(sp)
      1c:	00612a23          	sw	t1,20(sp)
      20:	00712c23          	sw	t2,24(sp)
      24:	00812e23          	sw	s0,28(sp)
      28:	02912023          	sw	s1,32(sp)
      2c:	02a12223          	sw	a0,36(sp)
      30:	02b12423          	sw	a1,40(sp)
      34:	02c12623          	sw	a2,44(sp)
      38:	02d12823          	sw	a3,48(sp)
      3c:	02e12a23          	sw	a4,52(sp)
      40:	02f12c23          	sw	a5,56(sp)
      44:	03012e23          	sw	a6,60(sp)
      48:	05112023          	sw	a7,64(sp)
      4c:	05212223          	sw	s2,68(sp)
      50:	05312423          	sw	s3,72(sp)
      54:	05412623          	sw	s4,76(sp)
      58:	05512823          	sw	s5,80(sp)
      5c:	05612a23          	sw	s6,84(sp)
      60:	05712c23          	sw	s7,88(sp)
      64:	05812e23          	sw	s8,92(sp)
      68:	07912023          	sw	s9,96(sp)
      6c:	07a12223          	sw	s10,100(sp)
      70:	07b12423          	sw	s11,104(sp)
      74:	07c12623          	sw	t3,108(sp)
      78:	07d12823          	sw	t4,112(sp)
      7c:	07e12a23          	sw	t5,116(sp)
      80:	07f12c23          	sw	t6,120(sp)
      84:	342022f3          	csrr	t0,mcause
      88:	80000337          	lui	t1,0x80000
      8c:	0262f263          	bgeu	t0,t1,b0 <external_irq>
      90:	00028833          	add	a6,t0,zero
      94:	00b00313          	li	t1,11
      98:	00628463          	beq	t0,t1,a0 <skip_init_args>
      9c:	34102573          	csrr	a0,mepc

000000a0 <skip_init_args>:
      a0:	341022f3          	csrr	t0,mepc
      a4:	00428293          	addi	t0,t0,4
      a8:	34129073          	csrw	mepc,t0
      ac:	01c0006f          	j	c8 <restore>

000000b0 <external_irq>:
      b0:	34102573          	csrr	a0,mepc
      b4:	800002b7          	lui	t0,0x80000
      b8:	fff28293          	addi	t0,t0,-1 # 7fffffff <_stack_end+0x7fefd117>
      bc:	34202373          	csrr	t1,mcause
      c0:	0062f5b3          	and	a1,t0,t1
      c4:	1d5010ef          	jal	1a98 <interrupt_handler>

000000c8 <restore>:
      c8:	00012083          	lw	ra,0(sp)
      cc:	00812183          	lw	gp,8(sp)
      d0:	00c12203          	lw	tp,12(sp)
      d4:	01012283          	lw	t0,16(sp)
      d8:	01412303          	lw	t1,20(sp)
      dc:	01812383          	lw	t2,24(sp)
      e0:	01c12403          	lw	s0,28(sp)
      e4:	02012483          	lw	s1,32(sp)
      e8:	02412503          	lw	a0,36(sp)
      ec:	02812583          	lw	a1,40(sp)
      f0:	02c12603          	lw	a2,44(sp)
      f4:	03012683          	lw	a3,48(sp)
      f8:	03412703          	lw	a4,52(sp)
      fc:	03812783          	lw	a5,56(sp)
     100:	03c12803          	lw	a6,60(sp)
     104:	04012883          	lw	a7,64(sp)
     108:	04412903          	lw	s2,68(sp)
     10c:	04812983          	lw	s3,72(sp)
     110:	04c12a03          	lw	s4,76(sp)
     114:	05012a83          	lw	s5,80(sp)
     118:	05412b03          	lw	s6,84(sp)
     11c:	05812b83          	lw	s7,88(sp)
     120:	05c12c03          	lw	s8,92(sp)
     124:	06012c83          	lw	s9,96(sp)
     128:	06412d03          	lw	s10,100(sp)
     12c:	06812d83          	lw	s11,104(sp)
     130:	06c12e03          	lw	t3,108(sp)
     134:	07012e83          	lw	t4,112(sp)
     138:	07412f03          	lw	t5,116(sp)
     13c:	07812f83          	lw	t6,120(sp)
     140:	08010113          	addi	sp,sp,128
     144:	30200073          	mret

00000148 <_start>:
     148:	30401073          	csrw	mie,zero
     14c:	00103117          	auipc	sp,0x103
     150:	d9c10113          	addi	sp,sp,-612 # 102ee8 <_stack_end>
     154:	00003197          	auipc	gp,0x3
     158:	52c18193          	addi	gp,gp,1324 # 3680 <__global_pointer>
     15c:	00000297          	auipc	t0,0x0
     160:	ea428293          	addi	t0,t0,-348 # 0 <_isr_handler>
     164:	30529073          	csrw	mtvec,t0
     168:	00002517          	auipc	a0,0x2
     16c:	9c450513          	addi	a0,a0,-1596 # 1b2c <welcome_msg>
     170:	00400893          	li	a7,4
     174:	00000073          	ecall
     178:	1a1010ef          	jal	1b18 <main>

0000017c <loop>:
     17c:	0000006f          	j	17c <loop>

00000180 <enable_interrupt>:
     180:	000112b7          	lui	t0,0x11
     184:	89028293          	addi	t0,t0,-1904 # 10890 <__global_pointer+0xd210>
     188:	3042a073          	csrs	mie,t0
     18c:	00800293          	li	t0,8
     190:	3002a073          	csrs	mstatus,t0
     194:	00008067          	ret

00000198 <game_init>:
     198:	00003537          	lui	a0,0x3
     19c:	ff010113          	addi	sp,sp,-16
     1a0:	000037b7          	lui	a5,0x3
     1a4:	e9050513          	addi	a0,a0,-368 # 2e90 <player>
     1a8:	00112623          	sw	ra,12(sp)
     1ac:	ec07a423          	sw	zero,-312(a5) # 2ec8 <game_state>
     1b0:	338000ef          	jal	4e8 <player_init>
     1b4:	000037b7          	lui	a5,0x3
     1b8:	e9078513          	addi	a0,a5,-368 # 2e90 <player>
     1bc:	02050513          	addi	a0,a0,32
     1c0:	0d0000ef          	jal	290 <enemy_init>
     1c4:	228000ef          	jal	3ec <set_gamemap>
     1c8:	00c12083          	lw	ra,12(sp)
     1cc:	03c00513          	li	a0,60
     1d0:	01010113          	addi	sp,sp,16
     1d4:	0910106f          	j	1a64 <timer_init>

000001d8 <game_update>:
     1d8:	00003737          	lui	a4,0x3
     1dc:	ec872783          	lw	a5,-312(a4) # 2ec8 <game_state>
     1e0:	ff010113          	addi	sp,sp,-16
     1e4:	00112623          	sw	ra,12(sp)
     1e8:	06078263          	beqz	a5,24c <game_update+0x74>
     1ec:	00200693          	li	a3,2
     1f0:	00d78863          	beq	a5,a3,200 <game_update+0x28>
     1f4:	00c12083          	lw	ra,12(sp)
     1f8:	01010113          	addi	sp,sp,16
     1fc:	00008067          	ret
     200:	00812423          	sw	s0,8(sp)
     204:	00003437          	lui	s0,0x3
     208:	e9040413          	addi	s0,s0,-368 # 2e90 <player>
     20c:	01c42783          	lw	a5,28(s0)
     210:	06f05a63          	blez	a5,284 <game_update+0xac>
     214:	00040513          	mv	a0,s0
     218:	0b9010ef          	jal	1ad0 <handle_input>
     21c:	02040513          	addi	a0,s0,32
     220:	0ac000ef          	jal	2cc <state_mode_enemy>
     224:	000037b7          	lui	a5,0x3
     228:	eb078513          	addi	a0,a5,-336 # 2eb0 <enemy>
     22c:	184000ef          	jal	3b0 <enemy_render>
     230:	00040513          	mv	a0,s0
     234:	318000ef          	jal	54c <player_update>
     238:	00040513          	mv	a0,s0
     23c:	00812403          	lw	s0,8(sp)
     240:	00c12083          	lw	ra,12(sp)
     244:	01010113          	addi	sp,sp,16
     248:	4bc0006f          	j	704 <player_render>
     24c:	230000ef          	jal	47c <draw_start_screen>
     250:	071010ef          	jal	1ac0 <get_sw>
     254:	00003737          	lui	a4,0x3
     258:	f8050ee3          	beqz	a0,1f4 <game_update+0x1c>
     25c:	00200793          	li	a5,2
     260:	00000513          	li	a0,0
     264:	ecf72423          	sw	a5,-312(a4) # 2ec8 <game_state>
     268:	6ac010ef          	jal	1914 <fill_display>
     26c:	180000ef          	jal	3ec <set_gamemap>
     270:	00c12083          	lw	ra,12(sp)
     274:	00003537          	lui	a0,0x3
     278:	e9050513          	addi	a0,a0,-368 # 2e90 <player>
     27c:	01010113          	addi	sp,sp,16
     280:	4840006f          	j	704 <player_render>
     284:	00300793          	li	a5,3
     288:	ecf72423          	sw	a5,-312(a4)
     28c:	f89ff06f          	j	214 <game_update+0x3c>

00000290 <enemy_init>:
     290:	01b00593          	li	a1,27
     294:	00e00613          	li	a2,14
     298:	0d800693          	li	a3,216
     29c:	07000713          	li	a4,112
     2a0:	fff00793          	li	a5,-1
     2a4:	00052823          	sw	zero,16(a0)
     2a8:	00b52423          	sw	a1,8(a0)
     2ac:	00c52623          	sw	a2,12(a0)
     2b0:	00d52023          	sw	a3,0(a0)
     2b4:	00e52223          	sw	a4,4(a0)
     2b8:	00f52a23          	sw	a5,20(a0)
     2bc:	00008067          	ret

000002c0 <enemy_set_position>:
     2c0:	00b52023          	sw	a1,0(a0)
     2c4:	00c52223          	sw	a2,4(a0)
     2c8:	00008067          	ret

000002cc <state_mode_enemy>:
     2cc:	fd010113          	addi	sp,sp,-48
     2d0:	02812423          	sw	s0,40(sp)
     2d4:	00050413          	mv	s0,a0
     2d8:	01052503          	lw	a0,16(a0)
     2dc:	01c10613          	addi	a2,sp,28
     2e0:	01810593          	addi	a1,sp,24
     2e4:	02112623          	sw	ra,44(sp)
     2e8:	6cc010ef          	jal	19b4 <dir_to_movement>
     2ec:	00042703          	lw	a4,0(s0)
     2f0:	01812603          	lw	a2,24(sp)
     2f4:	00442683          	lw	a3,4(s0)
     2f8:	01c12783          	lw	a5,28(sp)
     2fc:	00c708b3          	add	a7,a4,a2
     300:	00788813          	addi	a6,a7,7
     304:	00f68333          	add	t1,a3,a5
     308:	00c04463          	bgtz	a2,310 <state_mode_enemy+0x44>
     30c:	00088813          	mv	a6,a7
     310:	00030613          	mv	a2,t1
     314:	00f05463          	blez	a5,31c <state_mode_enemy+0x50>
     318:	00730613          	addi	a2,t1,7 # 80000007 <_stack_end+0x7fefd11f>
     31c:	41f85513          	srai	a0,a6,0x1f
     320:	41f75793          	srai	a5,a4,0x1f
     324:	00757513          	andi	a0,a0,7
     328:	0077f793          	andi	a5,a5,7
     32c:	41f65593          	srai	a1,a2,0x1f
     330:	01050533          	add	a0,a0,a6
     334:	00e787b3          	add	a5,a5,a4
     338:	0075f593          	andi	a1,a1,7
     33c:	00c585b3          	add	a1,a1,a2
     340:	40355513          	srai	a0,a0,0x3
     344:	4037d793          	srai	a5,a5,0x3
     348:	4035d593          	srai	a1,a1,0x3
     34c:	02a79863          	bne	a5,a0,37c <state_mode_enemy+0xb0>
     350:	41f6d793          	srai	a5,a3,0x1f
     354:	0077f793          	andi	a5,a5,7
     358:	00d787b3          	add	a5,a5,a3
     35c:	4037d793          	srai	a5,a5,0x3
     360:	00b79e63          	bne	a5,a1,37c <state_mode_enemy+0xb0>
     364:	02c12083          	lw	ra,44(sp)
     368:	01142023          	sw	a7,0(s0)
     36c:	00642223          	sw	t1,4(s0)
     370:	02812403          	lw	s0,40(sp)
     374:	03010113          	addi	sp,sp,48
     378:	00008067          	ret
     37c:	00612623          	sw	t1,12(sp)
     380:	01112423          	sw	a7,8(sp)
     384:	688010ef          	jal	1a0c <can_move_to>
     388:	00812883          	lw	a7,8(sp)
     38c:	00c12303          	lw	t1,12(sp)
     390:	fc051ae3          	bnez	a0,364 <state_mode_enemy+0x98>
     394:	00400513          	li	a0,4
     398:	5bc010ef          	jal	1954 <get_random>
     39c:	02c12083          	lw	ra,44(sp)
     3a0:	00a42823          	sw	a0,16(s0)
     3a4:	02812403          	lw	s0,40(sp)
     3a8:	03010113          	addi	sp,sp,48
     3ac:	00008067          	ret

000003b0 <enemy_render>:
     3b0:	ff010113          	addi	sp,sp,-16
     3b4:	00812423          	sw	s0,8(sp)
     3b8:	01052603          	lw	a2,16(a0)
     3bc:	00050413          	mv	s0,a0
     3c0:	00452583          	lw	a1,4(a0)
     3c4:	00052503          	lw	a0,0(a0)
     3c8:	00112623          	sw	ra,12(sp)
     3cc:	3cc010ef          	jal	1798 <redraw_tile>
     3d0:	00442583          	lw	a1,4(s0)
     3d4:	00042503          	lw	a0,0(s0)
     3d8:	00812403          	lw	s0,8(sp)
     3dc:	00c12083          	lw	ra,12(sp)
     3e0:	0e000613          	li	a2,224
     3e4:	01010113          	addi	sp,sp,16
     3e8:	3380106f          	j	1720 <draw_character>

000003ec <set_gamemap>:
     3ec:	fe010113          	addi	sp,sp,-32
     3f0:	01412423          	sw	s4,8(sp)
     3f4:	01512223          	sw	s5,4(sp)
     3f8:	00002a37          	lui	s4,0x2
     3fc:	00001ab7          	lui	s5,0x1
     400:	bc0a0a13          	addi	s4,s4,-1088 # 1bc0 <map>
     404:	2c0a8a93          	addi	s5,s5,704 # 12c0 <__heap_size+0xac0>
     408:	01212823          	sw	s2,16(sp)
     40c:	01312623          	sw	s3,12(sp)
     410:	00112e23          	sw	ra,28(sp)
     414:	00812c23          	sw	s0,24(sp)
     418:	00912a23          	sw	s1,20(sp)
     41c:	015a0ab3          	add	s5,s4,s5
     420:	00000913          	li	s2,0
     424:	02800993          	li	s3,40
     428:	000a0493          	mv	s1,s4
     42c:	00000413          	li	s0,0
     430:	0004a603          	lw	a2,0(s1)
     434:	00040513          	mv	a0,s0
     438:	00090593          	mv	a1,s2
     43c:	00140413          	addi	s0,s0,1
     440:	360000ef          	jal	7a0 <draw_tile>
     444:	00448493          	addi	s1,s1,4
     448:	ff3414e3          	bne	s0,s3,430 <set_gamemap+0x44>
     44c:	0a0a0a13          	addi	s4,s4,160
     450:	00190913          	addi	s2,s2,1
     454:	fd5a1ae3          	bne	s4,s5,428 <set_gamemap+0x3c>
     458:	01c12083          	lw	ra,28(sp)
     45c:	01812403          	lw	s0,24(sp)
     460:	01412483          	lw	s1,20(sp)
     464:	01012903          	lw	s2,16(sp)
     468:	00c12983          	lw	s3,12(sp)
     46c:	00812a03          	lw	s4,8(sp)
     470:	00412a83          	lw	s5,4(sp)
     474:	02010113          	addi	sp,sp,32
     478:	00008067          	ret

0000047c <draw_start_screen>:
     47c:	fe010113          	addi	sp,sp,-32
     480:	00300513          	li	a0,3
     484:	00912a23          	sw	s1,20(sp)
     488:	01212823          	sw	s2,16(sp)
     48c:	01312623          	sw	s3,12(sp)
     490:	00112e23          	sw	ra,28(sp)
     494:	00812c23          	sw	s0,24(sp)
     498:	06400493          	li	s1,100
     49c:	478010ef          	jal	1914 <fill_display>
     4a0:	0c800913          	li	s2,200
     4a4:	08c00993          	li	s3,140
     4a8:	07800413          	li	s0,120
     4ac:	00040513          	mv	a0,s0
     4b0:	0ff00613          	li	a2,255
     4b4:	00048593          	mv	a1,s1
     4b8:	00140413          	addi	s0,s0,1
     4bc:	2c0000ef          	jal	77c <set_pixel>
     4c0:	ff2416e3          	bne	s0,s2,4ac <draw_start_screen+0x30>
     4c4:	00148493          	addi	s1,s1,1
     4c8:	ff3490e3          	bne	s1,s3,4a8 <draw_start_screen+0x2c>
     4cc:	01c12083          	lw	ra,28(sp)
     4d0:	01812403          	lw	s0,24(sp)
     4d4:	01412483          	lw	s1,20(sp)
     4d8:	01012903          	lw	s2,16(sp)
     4dc:	00c12983          	lw	s3,12(sp)
     4e0:	02010113          	addi	sp,sp,32
     4e4:	00008067          	ret

000004e8 <player_init>:
     4e8:	fff00793          	li	a5,-1
     4ec:	00c00813          	li	a6,12
     4f0:	00e00593          	li	a1,14
     4f4:	06000613          	li	a2,96
     4f8:	07000693          	li	a3,112
     4fc:	00300713          	li	a4,3
     500:	00052c23          	sw	zero,24(a0)
     504:	01052423          	sw	a6,8(a0)
     508:	00b52623          	sw	a1,12(a0)
     50c:	00c52023          	sw	a2,0(a0)
     510:	00d52223          	sw	a3,4(a0)
     514:	00e52e23          	sw	a4,28(a0)
     518:	00f52823          	sw	a5,16(a0)
     51c:	00f52a23          	sw	a5,20(a0)
     520:	00008067          	ret

00000524 <player_set_position>:
     524:	00b52023          	sw	a1,0(a0)
     528:	00c52223          	sw	a2,4(a0)
     52c:	00008067          	ret

00000530 <player_handle_input>:
     530:	fff00793          	li	a5,-1
     534:	00f58463          	beq	a1,a5,53c <player_handle_input+0xc>
     538:	00b52a23          	sw	a1,20(a0)
     53c:	00008067          	ret

00000540 <is_centered>:
     540:	00757513          	andi	a0,a0,7
     544:	00153513          	seqz	a0,a0
     548:	00008067          	ret

0000054c <player_update>:
     54c:	01452783          	lw	a5,20(a0)
     550:	fd010113          	addi	sp,sp,-48
     554:	02812423          	sw	s0,40(sp)
     558:	02112623          	sw	ra,44(sp)
     55c:	fff00713          	li	a4,-1
     560:	00050413          	mv	s0,a0
     564:	01052503          	lw	a0,16(a0)
     568:	02e78063          	beq	a5,a4,588 <player_update+0x3c>
     56c:	00a78e63          	beq	a5,a0,588 <player_update+0x3c>
     570:	00042703          	lw	a4,0(s0)
     574:	00777693          	andi	a3,a4,7
     578:	00069863          	bnez	a3,588 <player_update+0x3c>
     57c:	00442683          	lw	a3,4(s0)
     580:	0076f693          	andi	a3,a3,7
     584:	0e068e63          	beqz	a3,680 <player_update+0x134>
     588:	01c10613          	addi	a2,sp,28
     58c:	01810713          	addi	a4,sp,24
     590:	00070593          	mv	a1,a4
     594:	420010ef          	jal	19b4 <dir_to_movement>
     598:	01042703          	lw	a4,16(s0)
     59c:	fff00793          	li	a5,-1
     5a0:	08f70863          	beq	a4,a5,630 <player_update+0xe4>
     5a4:	00042683          	lw	a3,0(s0)
     5a8:	01812583          	lw	a1,24(sp)
     5ac:	00442603          	lw	a2,4(s0)
     5b0:	01c12783          	lw	a5,28(sp)
     5b4:	00b68733          	add	a4,a3,a1
     5b8:	00070893          	mv	a7,a4
     5bc:	00f60333          	add	t1,a2,a5
     5c0:	00b05463          	blez	a1,5c8 <player_update+0x7c>
     5c4:	00770893          	addi	a7,a4,7
     5c8:	00030813          	mv	a6,t1
     5cc:	00f05463          	blez	a5,5d4 <player_update+0x88>
     5d0:	00730813          	addi	a6,t1,7
     5d4:	41f8d513          	srai	a0,a7,0x1f
     5d8:	41f6d793          	srai	a5,a3,0x1f
     5dc:	00757513          	andi	a0,a0,7
     5e0:	0077f793          	andi	a5,a5,7
     5e4:	41f85593          	srai	a1,a6,0x1f
     5e8:	01150533          	add	a0,a0,a7
     5ec:	00d787b3          	add	a5,a5,a3
     5f0:	0075f593          	andi	a1,a1,7
     5f4:	010585b3          	add	a1,a1,a6
     5f8:	40355513          	srai	a0,a0,0x3
     5fc:	4037d793          	srai	a5,a5,0x3
     600:	4035d593          	srai	a1,a1,0x3
     604:	04a79663          	bne	a5,a0,650 <player_update+0x104>
     608:	41f65793          	srai	a5,a2,0x1f
     60c:	0077f793          	andi	a5,a5,7
     610:	00c787b3          	add	a5,a5,a2
     614:	4037d793          	srai	a5,a5,0x3
     618:	02b79c63          	bne	a5,a1,650 <player_update+0x104>
     61c:	ff800793          	li	a5,-8
     620:	02f75063          	bge	a4,a5,640 <player_update+0xf4>
     624:	13800713          	li	a4,312
     628:	00e42023          	sw	a4,0(s0)
     62c:	00642223          	sw	t1,4(s0)
     630:	02c12083          	lw	ra,44(sp)
     634:	02812403          	lw	s0,40(sp)
     638:	03010113          	addi	sp,sp,48
     63c:	00008067          	ret
     640:	14000793          	li	a5,320
     644:	fee7d2e3          	bge	a5,a4,628 <player_update+0xdc>
     648:	ff900713          	li	a4,-7
     64c:	fddff06f          	j	628 <player_update+0xdc>
     650:	00612623          	sw	t1,12(sp)
     654:	00e12423          	sw	a4,8(sp)
     658:	3b4010ef          	jal	1a0c <can_move_to>
     65c:	00812703          	lw	a4,8(sp)
     660:	00c12303          	lw	t1,12(sp)
     664:	fa051ce3          	bnez	a0,61c <player_update+0xd0>
     668:	fff00793          	li	a5,-1
     66c:	02c12083          	lw	ra,44(sp)
     670:	00f42823          	sw	a5,16(s0)
     674:	02812403          	lw	s0,40(sp)
     678:	03010113          	addi	sp,sp,48
     67c:	00008067          	ret
     680:	fff70693          	addi	a3,a4,-1
     684:	13e00593          	li	a1,318
     688:	01c10613          	addi	a2,sp,28
     68c:	01810713          	addi	a4,sp,24
     690:	f0d5e0e3          	bltu	a1,a3,590 <player_update+0x44>
     694:	00070593          	mv	a1,a4
     698:	00078513          	mv	a0,a5
     69c:	00c12623          	sw	a2,12(sp)
     6a0:	00e12423          	sw	a4,8(sp)
     6a4:	310010ef          	jal	19b4 <dir_to_movement>
     6a8:	00442883          	lw	a7,4(s0)
     6ac:	00042803          	lw	a6,0(s0)
     6b0:	01c12583          	lw	a1,28(sp)
     6b4:	41f8d693          	srai	a3,a7,0x1f
     6b8:	41f85793          	srai	a5,a6,0x1f
     6bc:	01812503          	lw	a0,24(sp)
     6c0:	0076f693          	andi	a3,a3,7
     6c4:	0077f793          	andi	a5,a5,7
     6c8:	011686b3          	add	a3,a3,a7
     6cc:	010787b3          	add	a5,a5,a6
     6d0:	4036d693          	srai	a3,a3,0x3
     6d4:	4037d793          	srai	a5,a5,0x3
     6d8:	00b685b3          	add	a1,a3,a1
     6dc:	00a78533          	add	a0,a5,a0
     6e0:	32c010ef          	jal	1a0c <can_move_to>
     6e4:	00812703          	lw	a4,8(sp)
     6e8:	00c12603          	lw	a2,12(sp)
     6ec:	00051663          	bnez	a0,6f8 <player_update+0x1ac>
     6f0:	01042503          	lw	a0,16(s0)
     6f4:	e9dff06f          	j	590 <player_update+0x44>
     6f8:	01442503          	lw	a0,20(s0)
     6fc:	00a42823          	sw	a0,16(s0)
     700:	e91ff06f          	j	590 <player_update+0x44>

00000704 <player_render>:
     704:	ff010113          	addi	sp,sp,-16
     708:	00812423          	sw	s0,8(sp)
     70c:	01052603          	lw	a2,16(a0)
     710:	00050413          	mv	s0,a0
     714:	00452583          	lw	a1,4(a0)
     718:	00052503          	lw	a0,0(a0)
     71c:	00112623          	sw	ra,12(sp)
     720:	078010ef          	jal	1798 <redraw_tile>
     724:	00442583          	lw	a1,4(s0)
     728:	00042503          	lw	a0,0(s0)
     72c:	00812403          	lw	s0,8(sp)
     730:	00c12083          	lw	ra,12(sp)
     734:	0fc00613          	li	a2,252
     738:	01010113          	addi	sp,sp,16
     73c:	7e50006f          	j	1720 <draw_character>

00000740 <vga_init>:
     740:	00013537          	lui	a0,0x13
     744:	d4050513          	addi	a0,a0,-704 # 12d40 <__global_pointer+0xf6c0>
     748:	14000693          	li	a3,320
     74c:	00000593          	li	a1,0
     750:	00003637          	lui	a2,0x3
     754:	00058793          	mv	a5,a1
     758:	e8062703          	lw	a4,-384(a2) # 2e80 <vga_buffer>
     75c:	00f70733          	add	a4,a4,a5
     760:	00070023          	sb	zero,0(a4)
     764:	00178793          	addi	a5,a5,1
     768:	fed798e3          	bne	a5,a3,758 <vga_init+0x18>
     76c:	14078693          	addi	a3,a5,320
     770:	14058593          	addi	a1,a1,320
     774:	fea690e3          	bne	a3,a0,754 <vga_init+0x14>
     778:	00008067          	ret

0000077c <set_pixel>:
     77c:	00259793          	slli	a5,a1,0x2
     780:	00003737          	lui	a4,0x3
     784:	00b785b3          	add	a1,a5,a1
     788:	e8072783          	lw	a5,-384(a4) # 2e80 <vga_buffer>
     78c:	00659593          	slli	a1,a1,0x6
     790:	00a585b3          	add	a1,a1,a0
     794:	00b787b3          	add	a5,a5,a1
     798:	00c78023          	sb	a2,0(a5)
     79c:	00008067          	ret

000007a0 <draw_tile>:
     7a0:	00600693          	li	a3,6
     7a4:	76c6ece3          	bltu	a3,a2,171c <__heap_size+0xf1c>
     7a8:	000036b7          	lui	a3,0x3
     7ac:	ecc68693          	addi	a3,a3,-308 # 2ecc <game_state+0x4>
     7b0:	00261613          	slli	a2,a2,0x2
     7b4:	00d60633          	add	a2,a2,a3
     7b8:	00062683          	lw	a3,0(a2)
     7bc:	fc010113          	addi	sp,sp,-64
     7c0:	00058893          	mv	a7,a1
     7c4:	00351793          	slli	a5,a0,0x3
     7c8:	00359713          	slli	a4,a1,0x3
     7cc:	00068067          	jr	a3
     7d0:	00170713          	addi	a4,a4,1
     7d4:	000036b7          	lui	a3,0x3
     7d8:	00271613          	slli	a2,a4,0x2
     7dc:	e806a583          	lw	a1,-384(a3) # 2e80 <vga_buffer>
     7e0:	00e60633          	add	a2,a2,a4
     7e4:	00661613          	slli	a2,a2,0x6
     7e8:	00c78733          	add	a4,a5,a2
     7ec:	02812e23          	sw	s0,60(sp)
     7f0:	03212a23          	sw	s2,52(sp)
     7f4:	03312823          	sw	s3,48(sp)
     7f8:	03412623          	sw	s4,44(sp)
     7fc:	03512423          	sw	s5,40(sp)
     800:	03612223          	sw	s6,36(sp)
     804:	03712023          	sw	s7,32(sp)
     808:	01812e23          	sw	s8,28(sp)
     80c:	01912c23          	sw	s9,24(sp)
     810:	01a12a23          	sw	s10,20(sp)
     814:	01b12823          	sw	s11,16(sp)
     818:	00070913          	mv	s2,a4
     81c:	00e585b3          	add	a1,a1,a4
     820:	01f00713          	li	a4,31
     824:	28e581a3          	sb	a4,643(a1)
     828:	e806a583          	lw	a1,-384(a3)
     82c:	00c78e33          	add	t3,a5,a2
     830:	000e0993          	mv	s3,t3
     834:	01c585b3          	add	a1,a1,t3
     838:	28e58223          	sb	a4,644(a1)
     83c:	e806ae03          	lw	t3,-384(a3)
     840:	00c783b3          	add	t2,a5,a2
     844:	00678e93          	addi	t4,a5,6
     848:	007e0e33          	add	t3,t3,t2
     84c:	28ee02a3          	sb	a4,645(t3)
     850:	e806ae03          	lw	t3,-384(a3)
     854:	000e8d93          	mv	s11,t4
     858:	01d60eb3          	add	t4,a2,t4
     85c:	01de0e33          	add	t3,t3,t4
     860:	28ee0023          	sb	a4,640(t3)
     864:	e806ae03          	lw	t3,-384(a3)
     868:	00f60f33          	add	t5,a2,a5
     86c:	00f60333          	add	t1,a2,a5
     870:	01ee0e33          	add	t3,t3,t5
     874:	28ee03a3          	sb	a4,647(t3)
     878:	e806ae03          	lw	t3,-384(a3)
     87c:	00c78b33          	add	s6,a5,a2
     880:	00c78bb3          	add	s7,a5,a2
     884:	006e0333          	add	t1,t3,t1
     888:	28e30423          	sb	a4,648(t1)
     88c:	00289313          	slli	t1,a7,0x2
     890:	011308b3          	add	a7,t1,a7
     894:	e806a303          	lw	t1,-384(a3)
     898:	00989893          	slli	a7,a7,0x9
     89c:	01178e33          	add	t3,a5,a7
     8a0:	01c30333          	add	t1,t1,t3
     8a4:	00e301a3          	sb	a4,3(t1)
     8a8:	e806a303          	lw	t1,-384(a3)
     8ac:	000e0a13          	mv	s4,t3
     8b0:	01178e33          	add	t3,a5,a7
     8b4:	01c30333          	add	t1,t1,t3
     8b8:	00e30223          	sb	a4,4(t1)
     8bc:	e806a303          	lw	t1,-384(a3)
     8c0:	011788b3          	add	a7,a5,a7
     8c4:	00c78c33          	add	s8,a5,a2
     8c8:	01130333          	add	t1,t1,a7
     8cc:	00e302a3          	sb	a4,5(t1)
     8d0:	e806a303          	lw	t1,-384(a3)
     8d4:	00c78cb3          	add	s9,a5,a2
     8d8:	00c78d33          	add	s10,a5,a2
     8dc:	01630333          	add	t1,t1,s6
     8e0:	00e301a3          	sb	a4,3(t1)
     8e4:	e806a303          	lw	t1,-384(a3)
     8e8:	000e0a93          	mv	s5,t3
     8ec:	00c78e33          	add	t3,a5,a2
     8f0:	01730333          	add	t1,t1,s7
     8f4:	00e30223          	sb	a4,4(t1)
     8f8:	e806af03          	lw	t5,-384(a3)
     8fc:	3c060313          	addi	t1,a2,960
     900:	50060613          	addi	a2,a2,1280
     904:	018f0f33          	add	t5,t5,s8
     908:	00ef02a3          	sb	a4,5(t5)
     90c:	e806af03          	lw	t5,-384(a3)
     910:	006782b3          	add	t0,a5,t1
     914:	00678fb3          	add	t6,a5,t1
     918:	019f0f33          	add	t5,t5,s9
     91c:	14ef01a3          	sb	a4,323(t5)
     920:	e806a403          	lw	s0,-384(a3)
     924:	00678f33          	add	t5,a5,t1
     928:	00c78833          	add	a6,a5,a2
     92c:	01a40433          	add	s0,s0,s10
     930:	14e40223          	sb	a4,324(s0)
     934:	e806a403          	lw	s0,-384(a3)
     938:	00c78533          	add	a0,a5,a2
     93c:	00c785b3          	add	a1,a5,a2
     940:	01c40433          	add	s0,s0,t3
     944:	14e402a3          	sb	a4,325(s0)
     948:	006d8433          	add	s0,s11,t1
     94c:	00812423          	sw	s0,8(sp)
     950:	e806a403          	lw	s0,-384(a3)
     954:	00c78eb3          	add	t4,a5,a2
     958:	01240433          	add	s0,s0,s2
     95c:	28e401a3          	sb	a4,643(s0)
     960:	00cd8433          	add	s0,s11,a2
     964:	00812623          	sw	s0,12(sp)
     968:	00678433          	add	s0,a5,t1
     96c:	00040d93          	mv	s11,s0
     970:	e806a403          	lw	s0,-384(a3)
     974:	00678333          	add	t1,a5,t1
     978:	00c78633          	add	a2,a5,a2
     97c:	01340433          	add	s0,s0,s3
     980:	28e40223          	sb	a4,644(s0)
     984:	e806a783          	lw	a5,-384(a3)
     988:	007787b3          	add	a5,a5,t2
     98c:	28e782a3          	sb	a4,645(a5)
     990:	e806a783          	lw	a5,-384(a3)
     994:	005787b3          	add	a5,a5,t0
     998:	00e781a3          	sb	a4,3(a5)
     99c:	e806a783          	lw	a5,-384(a3)
     9a0:	01f787b3          	add	a5,a5,t6
     9a4:	00e78223          	sb	a4,4(a5)
     9a8:	e806a783          	lw	a5,-384(a3)
     9ac:	01e787b3          	add	a5,a5,t5
     9b0:	00e782a3          	sb	a4,5(a5)
     9b4:	e806a783          	lw	a5,-384(a3)
     9b8:	010787b3          	add	a5,a5,a6
     9bc:	00e781a3          	sb	a4,3(a5)
     9c0:	e806a783          	lw	a5,-384(a3)
     9c4:	00a787b3          	add	a5,a5,a0
     9c8:	00e78223          	sb	a4,4(a5)
     9cc:	e806a783          	lw	a5,-384(a3)
     9d0:	00b787b3          	add	a5,a5,a1
     9d4:	00e782a3          	sb	a4,5(a5)
     9d8:	e806a783          	lw	a5,-384(a3)
     9dc:	005787b3          	add	a5,a5,t0
     9e0:	00e781a3          	sb	a4,3(a5)
     9e4:	e806a783          	lw	a5,-384(a3)
     9e8:	01f787b3          	add	a5,a5,t6
     9ec:	00e78223          	sb	a4,4(a5)
     9f0:	e806a783          	lw	a5,-384(a3)
     9f4:	00812403          	lw	s0,8(sp)
     9f8:	01e787b3          	add	a5,a5,t5
     9fc:	00e782a3          	sb	a4,5(a5)
     a00:	e806a783          	lw	a5,-384(a3)
     a04:	008787b3          	add	a5,a5,s0
     a08:	00e78023          	sb	a4,0(a5)
     a0c:	e806a783          	lw	a5,-384(a3)
     a10:	01b787b3          	add	a5,a5,s11
     a14:	00e783a3          	sb	a4,7(a5)
     a18:	e806a783          	lw	a5,-384(a3)
     a1c:	006787b3          	add	a5,a5,t1
     a20:	00e78423          	sb	a4,8(a5)
     a24:	e806a783          	lw	a5,-384(a3)
     a28:	014787b3          	add	a5,a5,s4
     a2c:	00e781a3          	sb	a4,3(a5)
     a30:	e806a783          	lw	a5,-384(a3)
     a34:	015787b3          	add	a5,a5,s5
     a38:	00e78223          	sb	a4,4(a5)
     a3c:	e806a783          	lw	a5,-384(a3)
     a40:	011787b3          	add	a5,a5,a7
     a44:	00e782a3          	sb	a4,5(a5)
     a48:	e806a783          	lw	a5,-384(a3)
     a4c:	016787b3          	add	a5,a5,s6
     a50:	00e781a3          	sb	a4,3(a5)
     a54:	e806a783          	lw	a5,-384(a3)
     a58:	017787b3          	add	a5,a5,s7
     a5c:	00e78223          	sb	a4,4(a5)
     a60:	e806a783          	lw	a5,-384(a3)
     a64:	018787b3          	add	a5,a5,s8
     a68:	00e782a3          	sb	a4,5(a5)
     a6c:	e806a783          	lw	a5,-384(a3)
     a70:	019787b3          	add	a5,a5,s9
     a74:	14e781a3          	sb	a4,323(a5)
     a78:	e806a783          	lw	a5,-384(a3)
     a7c:	01a787b3          	add	a5,a5,s10
     a80:	14e78223          	sb	a4,324(a5)
     a84:	e806a783          	lw	a5,-384(a3)
     a88:	01c787b3          	add	a5,a5,t3
     a8c:	14e782a3          	sb	a4,325(a5)
     a90:	e806a783          	lw	a5,-384(a3)
     a94:	012787b3          	add	a5,a5,s2
     a98:	28e781a3          	sb	a4,643(a5)
     a9c:	e806a783          	lw	a5,-384(a3)
     aa0:	013787b3          	add	a5,a5,s3
     aa4:	28e78223          	sb	a4,644(a5)
     aa8:	e806a783          	lw	a5,-384(a3)
     aac:	007787b3          	add	a5,a5,t2
     ab0:	28e782a3          	sb	a4,645(a5)
     ab4:	e806a783          	lw	a5,-384(a3)
     ab8:	00c12303          	lw	t1,12(sp)
     abc:	005787b3          	add	a5,a5,t0
     ac0:	00e781a3          	sb	a4,3(a5)
     ac4:	e806a783          	lw	a5,-384(a3)
     ac8:	01f787b3          	add	a5,a5,t6
     acc:	00e78223          	sb	a4,4(a5)
     ad0:	e806a783          	lw	a5,-384(a3)
     ad4:	01e787b3          	add	a5,a5,t5
     ad8:	00e782a3          	sb	a4,5(a5)
     adc:	e806a783          	lw	a5,-384(a3)
     ae0:	010787b3          	add	a5,a5,a6
     ae4:	00e781a3          	sb	a4,3(a5)
     ae8:	e806a783          	lw	a5,-384(a3)
     aec:	00a787b3          	add	a5,a5,a0
     af0:	00e78223          	sb	a4,4(a5)
     af4:	e806a783          	lw	a5,-384(a3)
     af8:	00b787b3          	add	a5,a5,a1
     afc:	00e782a3          	sb	a4,5(a5)
     b00:	e806a783          	lw	a5,-384(a3)
     b04:	010787b3          	add	a5,a5,a6
     b08:	00e781a3          	sb	a4,3(a5)
     b0c:	e806a783          	lw	a5,-384(a3)
     b10:	00a787b3          	add	a5,a5,a0
     b14:	00e78223          	sb	a4,4(a5)
     b18:	e806a783          	lw	a5,-384(a3)
     b1c:	00b787b3          	add	a5,a5,a1
     b20:	00e782a3          	sb	a4,5(a5)
     b24:	e806a783          	lw	a5,-384(a3)
     b28:	006787b3          	add	a5,a5,t1
     b2c:	00e78023          	sb	a4,0(a5)
     b30:	e806a783          	lw	a5,-384(a3)
     b34:	01d787b3          	add	a5,a5,t4
     b38:	00e783a3          	sb	a4,7(a5)
     b3c:	e806a783          	lw	a5,-384(a3)
     b40:	00c787b3          	add	a5,a5,a2
     b44:	00e78423          	sb	a4,8(a5)
     b48:	e806a783          	lw	a5,-384(a3)
     b4c:	014787b3          	add	a5,a5,s4
     b50:	00e781a3          	sb	a4,3(a5)
     b54:	e806a783          	lw	a5,-384(a3)
     b58:	015787b3          	add	a5,a5,s5
     b5c:	00e78223          	sb	a4,4(a5)
     b60:	e806a783          	lw	a5,-384(a3)
     b64:	011787b3          	add	a5,a5,a7
     b68:	00e782a3          	sb	a4,5(a5)
     b6c:	e806a783          	lw	a5,-384(a3)
     b70:	016787b3          	add	a5,a5,s6
     b74:	00e781a3          	sb	a4,3(a5)
     b78:	e806a783          	lw	a5,-384(a3)
     b7c:	017787b3          	add	a5,a5,s7
     b80:	00e78223          	sb	a4,4(a5)
     b84:	e806a783          	lw	a5,-384(a3)
     b88:	018787b3          	add	a5,a5,s8
     b8c:	00e782a3          	sb	a4,5(a5)
     b90:	e806a783          	lw	a5,-384(a3)
     b94:	019787b3          	add	a5,a5,s9
     b98:	14e781a3          	sb	a4,323(a5)
     b9c:	e806a783          	lw	a5,-384(a3)
     ba0:	01a787b3          	add	a5,a5,s10
     ba4:	14e78223          	sb	a4,324(a5)
     ba8:	e806a783          	lw	a5,-384(a3)
     bac:	01c787b3          	add	a5,a5,t3
     bb0:	14e782a3          	sb	a4,325(a5)
     bb4:	e806a783          	lw	a5,-384(a3)
     bb8:	012787b3          	add	a5,a5,s2
     bbc:	28e781a3          	sb	a4,643(a5)
     bc0:	e806a783          	lw	a5,-384(a3)
     bc4:	013787b3          	add	a5,a5,s3
     bc8:	28e78223          	sb	a4,644(a5)
     bcc:	e806a783          	lw	a5,-384(a3)
     bd0:	007787b3          	add	a5,a5,t2
     bd4:	28e782a3          	sb	a4,645(a5)
     bd8:	e806a783          	lw	a5,-384(a3)
     bdc:	005787b3          	add	a5,a5,t0
     be0:	00e781a3          	sb	a4,3(a5)
     be4:	e806a783          	lw	a5,-384(a3)
     be8:	01f787b3          	add	a5,a5,t6
     bec:	00e78223          	sb	a4,4(a5)
     bf0:	e806a783          	lw	a5,-384(a3)
     bf4:	01e787b3          	add	a5,a5,t5
     bf8:	00e782a3          	sb	a4,5(a5)
     bfc:	e806a783          	lw	a5,-384(a3)
     c00:	010787b3          	add	a5,a5,a6
     c04:	00e781a3          	sb	a4,3(a5)
     c08:	e806a783          	lw	a5,-384(a3)
     c0c:	00a787b3          	add	a5,a5,a0
     c10:	00e78223          	sb	a4,4(a5)
     c14:	e806a783          	lw	a5,-384(a3)
     c18:	00b787b3          	add	a5,a5,a1
     c1c:	00e782a3          	sb	a4,5(a5)
     c20:	03c12403          	lw	s0,60(sp)
     c24:	03412903          	lw	s2,52(sp)
     c28:	03012983          	lw	s3,48(sp)
     c2c:	02c12a03          	lw	s4,44(sp)
     c30:	02812a83          	lw	s5,40(sp)
     c34:	02412b03          	lw	s6,36(sp)
     c38:	02012b83          	lw	s7,32(sp)
     c3c:	01c12c03          	lw	s8,28(sp)
     c40:	01812c83          	lw	s9,24(sp)
     c44:	01412d03          	lw	s10,20(sp)
     c48:	01012d83          	lw	s11,16(sp)
     c4c:	04010113          	addi	sp,sp,64
     c50:	00008067          	ret
     c54:	00370713          	addi	a4,a4,3
     c58:	000036b7          	lui	a3,0x3
     c5c:	00271613          	slli	a2,a4,0x2
     c60:	e806a583          	lw	a1,-384(a3) # 2e80 <vga_buffer>
     c64:	00e60633          	add	a2,a2,a4
     c68:	00661613          	slli	a2,a2,0x6
     c6c:	00c78733          	add	a4,a5,a2
     c70:	02812e23          	sw	s0,60(sp)
     c74:	02912c23          	sw	s1,56(sp)
     c78:	03212a23          	sw	s2,52(sp)
     c7c:	03312823          	sw	s3,48(sp)
     c80:	03412623          	sw	s4,44(sp)
     c84:	00e585b3          	add	a1,a1,a4
     c88:	01f00713          	li	a4,31
     c8c:	00e58023          	sb	a4,0(a1)
     c90:	e806a583          	lw	a1,-384(a3)
     c94:	00c78533          	add	a0,a5,a2
     c98:	00c783b3          	add	t2,a5,a2
     c9c:	00a585b3          	add	a1,a1,a0
     ca0:	00e580a3          	sb	a4,1(a1)
     ca4:	e806a583          	lw	a1,-384(a3)
     ca8:	00c78533          	add	a0,a5,a2
     cac:	00c78833          	add	a6,a5,a2
     cb0:	00a585b3          	add	a1,a1,a0
     cb4:	00e58123          	sb	a4,2(a1)
     cb8:	e806a583          	lw	a1,-384(a3)
     cbc:	00c78533          	add	a0,a5,a2
     cc0:	00050493          	mv	s1,a0
     cc4:	00a585b3          	add	a1,a1,a0
     cc8:	00e581a3          	sb	a4,3(a1)
     ccc:	e806a503          	lw	a0,-384(a3)
     cd0:	00080913          	mv	s2,a6
     cd4:	00c78333          	add	t1,a5,a2
     cd8:	00750533          	add	a0,a0,t2
     cdc:	00e50223          	sb	a4,4(a0)
     ce0:	e806a503          	lw	a0,-384(a3)
     ce4:	00c78f33          	add	t5,a5,a2
     ce8:	00c789b3          	add	s3,a5,a2
     cec:	01050533          	add	a0,a0,a6
     cf0:	00e502a3          	sb	a4,5(a0)
     cf4:	e806a803          	lw	a6,-384(a3)
     cf8:	00078293          	mv	t0,a5
     cfc:	00078f93          	mv	t6,a5
     d00:	00680833          	add	a6,a6,t1
     d04:	14e80023          	sb	a4,320(a6)
     d08:	e806a803          	lw	a6,-384(a3)
     d0c:	00c78333          	add	t1,a5,a2
     d10:	01f60a33          	add	s4,a2,t6
     d14:	01e80833          	add	a6,a6,t5
     d18:	14e800a3          	sb	a4,321(a6)
     d1c:	e806a803          	lw	a6,-384(a3)
     d20:	00c78f33          	add	t5,a5,a2
     d24:	00078e93          	mv	t4,a5
     d28:	00680833          	add	a6,a6,t1
     d2c:	14e80123          	sb	a4,322(a6)
     d30:	e806a503          	lw	a0,-384(a3)
     d34:	00c78333          	add	t1,a5,a2
     d38:	00078593          	mv	a1,a5
     d3c:	01350533          	add	a0,a0,s3
     d40:	14e501a3          	sb	a4,323(a0)
     d44:	00560533          	add	a0,a2,t0
     d48:	e806a283          	lw	t0,-384(a3)
     d4c:	00078e13          	mv	t3,a5
     d50:	00c787b3          	add	a5,a5,a2
     d54:	01e282b3          	add	t0,t0,t5
     d58:	14e28223          	sb	a4,324(t0)
     d5c:	01f602b3          	add	t0,a2,t6
     d60:	e806af83          	lw	t6,-384(a3)
     d64:	01d60433          	add	s0,a2,t4
     d68:	01d60833          	add	a6,a2,t4
     d6c:	006f8fb3          	add	t6,t6,t1
     d70:	14ef82a3          	sb	a4,325(t6)
     d74:	e806af83          	lw	t6,-384(a3)
     d78:	00ff87b3          	add	a5,t6,a5
     d7c:	28e78023          	sb	a4,640(a5)
     d80:	e806a783          	lw	a5,-384(a3)
     d84:	00a787b3          	add	a5,a5,a0
     d88:	28e780a3          	sb	a4,641(a5)
     d8c:	e806a783          	lw	a5,-384(a3)
     d90:	00289513          	slli	a0,a7,0x2
     d94:	01150533          	add	a0,a0,a7
     d98:	014787b3          	add	a5,a5,s4
     d9c:	28e78123          	sb	a4,642(a5)
     da0:	e806a783          	lw	a5,-384(a3)
     da4:	00951513          	slli	a0,a0,0x9
     da8:	00ae8fb3          	add	t6,t4,a0
     dac:	005787b3          	add	a5,a5,t0
     db0:	28e781a3          	sb	a4,643(a5)
     db4:	e806a783          	lw	a5,-384(a3)
     db8:	00ae8a33          	add	s4,t4,a0
     dbc:	00ae8533          	add	a0,t4,a0
     dc0:	008787b3          	add	a5,a5,s0
     dc4:	28e78223          	sb	a4,644(a5)
     dc8:	e806a883          	lw	a7,-384(a3)
     dcc:	010888b3          	add	a7,a7,a6
     dd0:	28e882a3          	sb	a4,645(a7)
     dd4:	e806a883          	lw	a7,-384(a3)
     dd8:	01f888b3          	add	a7,a7,t6
     ddc:	00e881a3          	sb	a4,3(a7)
     de0:	e806a883          	lw	a7,-384(a3)
     de4:	014888b3          	add	a7,a7,s4
     de8:	00e88223          	sb	a4,4(a7)
     dec:	e806a883          	lw	a7,-384(a3)
     df0:	00ce8a33          	add	s4,t4,a2
     df4:	00ce8eb3          	add	t4,t4,a2
     df8:	00a88533          	add	a0,a7,a0
     dfc:	00e502a3          	sb	a4,5(a0)
     e00:	e806af83          	lw	t6,-384(a3)
     e04:	00c588b3          	add	a7,a1,a2
     e08:	00c58533          	add	a0,a1,a2
     e0c:	014f87b3          	add	a5,t6,s4
     e10:	d8e781a3          	sb	a4,-637(a5)
     e14:	e806af83          	lw	t6,-384(a3)
     e18:	00c585b3          	add	a1,a1,a2
     e1c:	00ce07b3          	add	a5,t3,a2
     e20:	011f8633          	add	a2,t6,a7
     e24:	d8e60223          	sb	a4,-636(a2)
     e28:	e806a603          	lw	a2,-384(a3)
     e2c:	00a60633          	add	a2,a2,a0
     e30:	d8e602a3          	sb	a4,-635(a2)
     e34:	e806a603          	lw	a2,-384(a3)
     e38:	01d60633          	add	a2,a2,t4
     e3c:	ece601a3          	sb	a4,-317(a2)
     e40:	e806a603          	lw	a2,-384(a3)
     e44:	00b60633          	add	a2,a2,a1
     e48:	ece60223          	sb	a4,-316(a2)
     e4c:	e806a603          	lw	a2,-384(a3)
     e50:	00f607b3          	add	a5,a2,a5
     e54:	ece782a3          	sb	a4,-315(a5)
     e58:	e806a783          	lw	a5,-384(a3)
     e5c:	009787b3          	add	a5,a5,s1
     e60:	00e781a3          	sb	a4,3(a5)
     e64:	e806a783          	lw	a5,-384(a3)
     e68:	007787b3          	add	a5,a5,t2
     e6c:	00e78223          	sb	a4,4(a5)
     e70:	e806a783          	lw	a5,-384(a3)
     e74:	012787b3          	add	a5,a5,s2
     e78:	00e782a3          	sb	a4,5(a5)
     e7c:	e806a783          	lw	a5,-384(a3)
     e80:	013787b3          	add	a5,a5,s3
     e84:	14e781a3          	sb	a4,323(a5)
     e88:	e806a783          	lw	a5,-384(a3)
     e8c:	01e787b3          	add	a5,a5,t5
     e90:	14e78223          	sb	a4,324(a5)
     e94:	e806a783          	lw	a5,-384(a3)
     e98:	006787b3          	add	a5,a5,t1
     e9c:	14e782a3          	sb	a4,325(a5)
     ea0:	e806a783          	lw	a5,-384(a3)
     ea4:	005787b3          	add	a5,a5,t0
     ea8:	28e781a3          	sb	a4,643(a5)
     eac:	e806a783          	lw	a5,-384(a3)
     eb0:	008787b3          	add	a5,a5,s0
     eb4:	28e78223          	sb	a4,644(a5)
     eb8:	e806a783          	lw	a5,-384(a3)
     ebc:	010787b3          	add	a5,a5,a6
     ec0:	28e782a3          	sb	a4,645(a5)
     ec4:	03c12403          	lw	s0,60(sp)
     ec8:	03812483          	lw	s1,56(sp)
     ecc:	03412903          	lw	s2,52(sp)
     ed0:	03012983          	lw	s3,48(sp)
     ed4:	02c12a03          	lw	s4,44(sp)
     ed8:	04010113          	addi	sp,sp,64
     edc:	00008067          	ret
     ee0:	00259793          	slli	a5,a1,0x2
     ee4:	00b787b3          	add	a5,a5,a1
     ee8:	00679793          	slli	a5,a5,0x6
     eec:	00a787b3          	add	a5,a5,a0
     ef0:	14078313          	addi	t1,a5,320
     ef4:	00331313          	slli	t1,t1,0x3
     ef8:	00379793          	slli	a5,a5,0x3
     efc:	00003737          	lui	a4,0x3
     f00:	e8072683          	lw	a3,-384(a4) # 2e80 <vga_buffer>
     f04:	00078593          	mv	a1,a5
     f08:	00f686b3          	add	a3,a3,a5
     f0c:	00068023          	sb	zero,0(a3)
     f10:	e8072683          	lw	a3,-384(a4)
     f14:	00f686b3          	add	a3,a3,a5
     f18:	000680a3          	sb	zero,1(a3)
     f1c:	e8072683          	lw	a3,-384(a4)
     f20:	00f686b3          	add	a3,a3,a5
     f24:	00068123          	sb	zero,2(a3)
     f28:	e8072683          	lw	a3,-384(a4)
     f2c:	14078793          	addi	a5,a5,320
     f30:	00b686b3          	add	a3,a3,a1
     f34:	000681a3          	sb	zero,3(a3)
     f38:	e8072683          	lw	a3,-384(a4)
     f3c:	00b686b3          	add	a3,a3,a1
     f40:	00068223          	sb	zero,4(a3)
     f44:	e8072683          	lw	a3,-384(a4)
     f48:	00b686b3          	add	a3,a3,a1
     f4c:	000682a3          	sb	zero,5(a3)
     f50:	e8072683          	lw	a3,-384(a4)
     f54:	00b686b3          	add	a3,a3,a1
     f58:	00068323          	sb	zero,6(a3)
     f5c:	e8072683          	lw	a3,-384(a4)
     f60:	00b686b3          	add	a3,a3,a1
     f64:	000683a3          	sb	zero,7(a3)
     f68:	f8679ce3          	bne	a5,t1,f00 <__heap_size+0x700>
     f6c:	04010113          	addi	sp,sp,64
     f70:	00008067          	ret
     f74:	00003637          	lui	a2,0x3
     f78:	00259693          	slli	a3,a1,0x2
     f7c:	00b686b3          	add	a3,a3,a1
     f80:	e8062583          	lw	a1,-384(a2) # 2e80 <vga_buffer>
     f84:	00969813          	slli	a6,a3,0x9
     f88:	010786b3          	add	a3,a5,a6
     f8c:	00d585b3          	add	a1,a1,a3
     f90:	01f00693          	li	a3,31
     f94:	00d581a3          	sb	a3,3(a1)
     f98:	e8062883          	lw	a7,-384(a2)
     f9c:	01078333          	add	t1,a5,a6
     fa0:	01078833          	add	a6,a5,a6
     fa4:	006888b3          	add	a7,a7,t1
     fa8:	00d88223          	sb	a3,4(a7)
     fac:	e8062883          	lw	a7,-384(a2)
     fb0:	01088833          	add	a6,a7,a6
     fb4:	00d802a3          	sb	a3,5(a6)
     fb8:	00170813          	addi	a6,a4,1
     fbc:	00281713          	slli	a4,a6,0x2
     fc0:	01070733          	add	a4,a4,a6
     fc4:	e8062803          	lw	a6,-384(a2)
     fc8:	00671713          	slli	a4,a4,0x6
     fcc:	00e788b3          	add	a7,a5,a4
     fd0:	01180833          	add	a6,a6,a7
     fd4:	00d801a3          	sb	a3,3(a6)
     fd8:	e8062803          	lw	a6,-384(a2)
     fdc:	00e788b3          	add	a7,a5,a4
     fe0:	00e78333          	add	t1,a5,a4
     fe4:	01180833          	add	a6,a6,a7
     fe8:	00d80223          	sb	a3,4(a6)
     fec:	e8062883          	lw	a7,-384(a2)
     ff0:	00e78e33          	add	t3,a5,a4
     ff4:	00e78eb3          	add	t4,a5,a4
     ff8:	006888b3          	add	a7,a7,t1
     ffc:	00d882a3          	sb	a3,5(a7)
    1000:	e8062303          	lw	t1,-384(a2)
    1004:	00e788b3          	add	a7,a5,a4
    1008:	00e78fb3          	add	t6,a5,a4
    100c:	01c30833          	add	a6,t1,t3
    1010:	14d801a3          	sb	a3,323(a6)
    1014:	e8062303          	lw	t1,-384(a2)
    1018:	00e78e33          	add	t3,a5,a4
    101c:	00e78833          	add	a6,a5,a4
    1020:	01d30333          	add	t1,t1,t4
    1024:	14d30223          	sb	a3,324(t1)
    1028:	e8062303          	lw	t1,-384(a2)
    102c:	00e78f33          	add	t5,a5,a4
    1030:	00f70eb3          	add	t4,a4,a5
    1034:	011308b3          	add	a7,t1,a7
    1038:	14d882a3          	sb	a3,325(a7)
    103c:	e8062883          	lw	a7,-384(a2)
    1040:	00e782b3          	add	t0,a5,a4
    1044:	00e78533          	add	a0,a5,a4
    1048:	01c888b3          	add	a7,a7,t3
    104c:	28d881a3          	sb	a3,643(a7)
    1050:	e8062883          	lw	a7,-384(a2)
    1054:	00f70e33          	add	t3,a4,a5
    1058:	00f705b3          	add	a1,a4,a5
    105c:	01f888b3          	add	a7,a7,t6
    1060:	28d88223          	sb	a3,644(a7)
    1064:	e8062303          	lw	t1,-384(a2)
    1068:	00f70fb3          	add	t6,a4,a5
    106c:	00f708b3          	add	a7,a4,a5
    1070:	01030833          	add	a6,t1,a6
    1074:	28d802a3          	sb	a3,645(a6)
    1078:	e8062803          	lw	a6,-384(a2)
    107c:	00f70333          	add	t1,a4,a5
    1080:	01e80833          	add	a6,a6,t5
    1084:	3cd801a3          	sb	a3,963(a6)
    1088:	e8062803          	lw	a6,-384(a2)
    108c:	00f70f33          	add	t5,a4,a5
    1090:	01d80833          	add	a6,a6,t4
    1094:	3cd80223          	sb	a3,964(a6)
    1098:	e8062803          	lw	a6,-384(a2)
    109c:	00f70eb3          	add	t4,a4,a5
    10a0:	00f70733          	add	a4,a4,a5
    10a4:	01c80833          	add	a6,a6,t3
    10a8:	3cd802a3          	sb	a3,965(a6)
    10ac:	e8062803          	lw	a6,-384(a2)
    10b0:	00580833          	add	a6,a6,t0
    10b4:	50d801a3          	sb	a3,1283(a6)
    10b8:	e8062803          	lw	a6,-384(a2)
    10bc:	01f807b3          	add	a5,a6,t6
    10c0:	50d78223          	sb	a3,1284(a5)
    10c4:	e8062783          	lw	a5,-384(a2)
    10c8:	006787b3          	add	a5,a5,t1
    10cc:	50d782a3          	sb	a3,1285(a5)
    10d0:	e8062783          	lw	a5,-384(a2)
    10d4:	01e787b3          	add	a5,a5,t5
    10d8:	64d781a3          	sb	a3,1603(a5)
    10dc:	e8062783          	lw	a5,-384(a2)
    10e0:	01d787b3          	add	a5,a5,t4
    10e4:	64d78223          	sb	a3,1604(a5)
    10e8:	e8062783          	lw	a5,-384(a2)
    10ec:	011787b3          	add	a5,a5,a7
    10f0:	64d782a3          	sb	a3,1605(a5)
    10f4:	e8062783          	lw	a5,-384(a2)
    10f8:	00a787b3          	add	a5,a5,a0
    10fc:	78d781a3          	sb	a3,1923(a5)
    1100:	e8062783          	lw	a5,-384(a2)
    1104:	00b787b3          	add	a5,a5,a1
    1108:	78d78223          	sb	a3,1924(a5)
    110c:	e8062783          	lw	a5,-384(a2)
    1110:	00e787b3          	add	a5,a5,a4
    1114:	78d782a3          	sb	a3,1925(a5)
    1118:	04010113          	addi	sp,sp,64
    111c:	00008067          	ret
    1120:	00370693          	addi	a3,a4,3
    1124:	00003637          	lui	a2,0x3
    1128:	00269713          	slli	a4,a3,0x2
    112c:	e8062583          	lw	a1,-384(a2) # 2e80 <vga_buffer>
    1130:	00d70733          	add	a4,a4,a3
    1134:	00671713          	slli	a4,a4,0x6
    1138:	00f706b3          	add	a3,a4,a5
    113c:	00d585b3          	add	a1,a1,a3
    1140:	01f00693          	li	a3,31
    1144:	00d58023          	sb	a3,0(a1)
    1148:	e8062583          	lw	a1,-384(a2)
    114c:	00f70533          	add	a0,a4,a5
    1150:	00f70f33          	add	t5,a4,a5
    1154:	00a585b3          	add	a1,a1,a0
    1158:	00d580a3          	sb	a3,1(a1)
    115c:	e8062583          	lw	a1,-384(a2)
    1160:	00f70533          	add	a0,a4,a5
    1164:	00f70fb3          	add	t6,a4,a5
    1168:	00a585b3          	add	a1,a1,a0
    116c:	00d58123          	sb	a3,2(a1)
    1170:	e8062583          	lw	a1,-384(a2)
    1174:	00f70533          	add	a0,a4,a5
    1178:	00e782b3          	add	t0,a5,a4
    117c:	00a585b3          	add	a1,a1,a0
    1180:	00d581a3          	sb	a3,3(a1)
    1184:	e8062583          	lw	a1,-384(a2)
    1188:	00f70533          	add	a0,a4,a5
    118c:	00078e93          	mv	t4,a5
    1190:	00a585b3          	add	a1,a1,a0
    1194:	00d58223          	sb	a3,4(a1)
    1198:	e8062583          	lw	a1,-384(a2)
    119c:	00f70533          	add	a0,a4,a5
    11a0:	00078e13          	mv	t3,a5
    11a4:	00a585b3          	add	a1,a1,a0
    11a8:	00d582a3          	sb	a3,5(a1)
    11ac:	e8062583          	lw	a1,-384(a2)
    11b0:	00078313          	mv	t1,a5
    11b4:	00078893          	mv	a7,a5
    11b8:	01e585b3          	add	a1,a1,t5
    11bc:	00d58323          	sb	a3,6(a1)
    11c0:	e8062583          	lw	a1,-384(a2)
    11c4:	00078813          	mv	a6,a5
    11c8:	00078513          	mv	a0,a5
    11cc:	01f585b3          	add	a1,a1,t6
    11d0:	00d583a3          	sb	a3,7(a1)
    11d4:	e8062f83          	lw	t6,-384(a2)
    11d8:	011705b3          	add	a1,a4,a7
    11dc:	00078f13          	mv	t5,a5
    11e0:	005f8fb3          	add	t6,t6,t0
    11e4:	14df8023          	sb	a3,320(t6)
    11e8:	e8062f83          	lw	t6,-384(a2)
    11ec:	00f702b3          	add	t0,a4,a5
    11f0:	00e80833          	add	a6,a6,a4
    11f4:	005f8fb3          	add	t6,t6,t0
    11f8:	14df80a3          	sb	a3,321(t6)
    11fc:	e8062f83          	lw	t6,-384(a2)
    1200:	00f702b3          	add	t0,a4,a5
    1204:	00e787b3          	add	a5,a5,a4
    1208:	005f8fb3          	add	t6,t6,t0
    120c:	14df8123          	sb	a3,322(t6)
    1210:	e8062f83          	lw	t6,-384(a2)
    1214:	01d702b3          	add	t0,a4,t4
    1218:	00ee8eb3          	add	t4,t4,a4
    121c:	005f8fb3          	add	t6,t6,t0
    1220:	14df81a3          	sb	a3,323(t6)
    1224:	e8062f83          	lw	t6,-384(a2)
    1228:	01c702b3          	add	t0,a4,t3
    122c:	00ee0e33          	add	t3,t3,a4
    1230:	005f8fb3          	add	t6,t6,t0
    1234:	14df8223          	sb	a3,324(t6)
    1238:	e8062f83          	lw	t6,-384(a2)
    123c:	00e302b3          	add	t0,t1,a4
    1240:	00e30333          	add	t1,t1,a4
    1244:	005f8fb3          	add	t6,t6,t0
    1248:	14df82a3          	sb	a3,325(t6)
    124c:	e8062f83          	lw	t6,-384(a2)
    1250:	011702b3          	add	t0,a4,a7
    1254:	00e888b3          	add	a7,a7,a4
    1258:	005f8fb3          	add	t6,t6,t0
    125c:	14df8323          	sb	a3,326(t6)
    1260:	e8062f83          	lw	t6,-384(a2)
    1264:	00a70533          	add	a0,a4,a0
    1268:	01e70733          	add	a4,a4,t5
    126c:	00bf85b3          	add	a1,t6,a1
    1270:	14d583a3          	sb	a3,327(a1)
    1274:	e8062583          	lw	a1,-384(a2)
    1278:	00f587b3          	add	a5,a1,a5
    127c:	28d78023          	sb	a3,640(a5)
    1280:	e8062783          	lw	a5,-384(a2)
    1284:	01d787b3          	add	a5,a5,t4
    1288:	28d780a3          	sb	a3,641(a5)
    128c:	e8062783          	lw	a5,-384(a2)
    1290:	01c787b3          	add	a5,a5,t3
    1294:	28d78123          	sb	a3,642(a5)
    1298:	e8062783          	lw	a5,-384(a2)
    129c:	006787b3          	add	a5,a5,t1
    12a0:	28d781a3          	sb	a3,643(a5)
    12a4:	e8062783          	lw	a5,-384(a2)
    12a8:	011787b3          	add	a5,a5,a7
    12ac:	28d78223          	sb	a3,644(a5)
    12b0:	e8062783          	lw	a5,-384(a2)
    12b4:	010787b3          	add	a5,a5,a6
    12b8:	28d782a3          	sb	a3,645(a5)
    12bc:	e8062783          	lw	a5,-384(a2)
    12c0:	00a787b3          	add	a5,a5,a0
    12c4:	28d78323          	sb	a3,646(a5)
    12c8:	e8062783          	lw	a5,-384(a2)
    12cc:	00e787b3          	add	a5,a5,a4
    12d0:	28d783a3          	sb	a3,647(a5)
    12d4:	04010113          	addi	sp,sp,64
    12d8:	00008067          	ret
    12dc:	00370693          	addi	a3,a4,3
    12e0:	00003637          	lui	a2,0x3
    12e4:	00269593          	slli	a1,a3,0x2
    12e8:	e8062803          	lw	a6,-384(a2) # 2e80 <vga_buffer>
    12ec:	00d585b3          	add	a1,a1,a3
    12f0:	00659593          	slli	a1,a1,0x6
    12f4:	00f586b3          	add	a3,a1,a5
    12f8:	02812e23          	sw	s0,60(sp)
    12fc:	02912c23          	sw	s1,56(sp)
    1300:	00d80833          	add	a6,a6,a3
    1304:	01f00693          	li	a3,31
    1308:	00d801a3          	sb	a3,3(a6)
    130c:	e8062803          	lw	a6,-384(a2)
    1310:	00b788b3          	add	a7,a5,a1
    1314:	00b78fb3          	add	t6,a5,a1
    1318:	01180833          	add	a6,a6,a7
    131c:	00d80223          	sb	a3,4(a6)
    1320:	e8062803          	lw	a6,-384(a2)
    1324:	00f588b3          	add	a7,a1,a5
    1328:	00b782b3          	add	t0,a5,a1
    132c:	01180833          	add	a6,a6,a7
    1330:	00d802a3          	sb	a3,5(a6)
    1334:	e8062803          	lw	a6,-384(a2)
    1338:	00f588b3          	add	a7,a1,a5
    133c:	00b783b3          	add	t2,a5,a1
    1340:	01180833          	add	a6,a6,a7
    1344:	00d80323          	sb	a3,6(a6)
    1348:	e8062803          	lw	a6,-384(a2)
    134c:	00f588b3          	add	a7,a1,a5
    1350:	00078513          	mv	a0,a5
    1354:	01180833          	add	a6,a6,a7
    1358:	00d803a3          	sb	a3,7(a6)
    135c:	e8062803          	lw	a6,-384(a2)
    1360:	00f588b3          	add	a7,a1,a5
    1364:	00f58f33          	add	t5,a1,a5
    1368:	01180833          	add	a6,a6,a7
    136c:	00d80423          	sb	a3,8(a6)
    1370:	e8062883          	lw	a7,-384(a2)
    1374:	00b78833          	add	a6,a5,a1
    1378:	00f58eb3          	add	t4,a1,a5
    137c:	01f888b3          	add	a7,a7,t6
    1380:	14d881a3          	sb	a3,323(a7)
    1384:	e8062883          	lw	a7,-384(a2)
    1388:	00b78fb3          	add	t6,a5,a1
    138c:	00078313          	mv	t1,a5
    1390:	005888b3          	add	a7,a7,t0
    1394:	14d88223          	sb	a3,324(a7)
    1398:	e8062883          	lw	a7,-384(a2)
    139c:	00870293          	addi	t0,a4,8
    13a0:	00a58433          	add	s0,a1,a0
    13a4:	01f88733          	add	a4,a7,t6
    13a8:	14d702a3          	sb	a3,325(a4)
    13ac:	e8062703          	lw	a4,-384(a2)
    13b0:	00b78fb3          	add	t6,a5,a1
    13b4:	00a588b3          	add	a7,a1,a0
    13b8:	00770733          	add	a4,a4,t2
    13bc:	14d70323          	sb	a3,326(a4)
    13c0:	e8062703          	lw	a4,-384(a2)
    13c4:	00f583b3          	add	t2,a1,a5
    13c8:	00b504b3          	add	s1,a0,a1
    13cc:	01f70733          	add	a4,a4,t6
    13d0:	14d703a3          	sb	a3,327(a4)
    13d4:	e8062703          	lw	a4,-384(a2)
    13d8:	00b78fb3          	add	t6,a5,a1
    13dc:	00f587b3          	add	a5,a1,a5
    13e0:	01070733          	add	a4,a4,a6
    13e4:	14d70423          	sb	a3,328(a4)
    13e8:	e8062703          	lw	a4,-384(a2)
    13ec:	00a58833          	add	a6,a1,a0
    13f0:	00770733          	add	a4,a4,t2
    13f4:	28d701a3          	sb	a3,643(a4)
    13f8:	e8062703          	lw	a4,-384(a2)
    13fc:	01f70733          	add	a4,a4,t6
    1400:	28d70223          	sb	a3,644(a4)
    1404:	e8062703          	lw	a4,-384(a2)
    1408:	01170733          	add	a4,a4,a7
    140c:	28d702a3          	sb	a3,645(a4)
    1410:	e8062703          	lw	a4,-384(a2)
    1414:	01e70733          	add	a4,a4,t5
    1418:	28d70323          	sb	a3,646(a4)
    141c:	e8062703          	lw	a4,-384(a2)
    1420:	00a58f33          	add	t5,a1,a0
    1424:	01d70733          	add	a4,a4,t4
    1428:	28d703a3          	sb	a3,647(a4)
    142c:	e8062703          	lw	a4,-384(a2)
    1430:	00b50eb3          	add	t4,a0,a1
    1434:	00a585b3          	add	a1,a1,a0
    1438:	00f707b3          	add	a5,a4,a5
    143c:	28d78423          	sb	a3,648(a5)
    1440:	e8062783          	lw	a5,-384(a2)
    1444:	007787b3          	add	a5,a5,t2
    1448:	28d781a3          	sb	a3,643(a5)
    144c:	e8062783          	lw	a5,-384(a2)
    1450:	01f787b3          	add	a5,a5,t6
    1454:	28d78223          	sb	a3,644(a5)
    1458:	e8062703          	lw	a4,-384(a2)
    145c:	00229793          	slli	a5,t0,0x2
    1460:	005787b3          	add	a5,a5,t0
    1464:	01170733          	add	a4,a4,a7
    1468:	28d702a3          	sb	a3,645(a4)
    146c:	e8062703          	lw	a4,-384(a2)
    1470:	00679793          	slli	a5,a5,0x6
    1474:	00a78533          	add	a0,a5,a0
    1478:	00870733          	add	a4,a4,s0
    147c:	3cd701a3          	sb	a3,963(a4)
    1480:	e8062883          	lw	a7,-384(a2)
    1484:	00f30733          	add	a4,t1,a5
    1488:	006787b3          	add	a5,a5,t1
    148c:	009888b3          	add	a7,a7,s1
    1490:	3cd88223          	sb	a3,964(a7)
    1494:	e8062883          	lw	a7,-384(a2)
    1498:	01088833          	add	a6,a7,a6
    149c:	3cd802a3          	sb	a3,965(a6)
    14a0:	e8062803          	lw	a6,-384(a2)
    14a4:	01e80833          	add	a6,a6,t5
    14a8:	50d801a3          	sb	a3,1283(a6)
    14ac:	e8062803          	lw	a6,-384(a2)
    14b0:	01d80833          	add	a6,a6,t4
    14b4:	50d80223          	sb	a3,1284(a6)
    14b8:	e8062803          	lw	a6,-384(a2)
    14bc:	00b805b3          	add	a1,a6,a1
    14c0:	50d582a3          	sb	a3,1285(a1)
    14c4:	e8062583          	lw	a1,-384(a2)
    14c8:	00a585b3          	add	a1,a1,a0
    14cc:	00d581a3          	sb	a3,3(a1)
    14d0:	e8062583          	lw	a1,-384(a2)
    14d4:	00e58733          	add	a4,a1,a4
    14d8:	00d70223          	sb	a3,4(a4)
    14dc:	e8062703          	lw	a4,-384(a2)
    14e0:	00f707b3          	add	a5,a4,a5
    14e4:	00d782a3          	sb	a3,5(a5)
    14e8:	03c12403          	lw	s0,60(sp)
    14ec:	03812483          	lw	s1,56(sp)
    14f0:	04010113          	addi	sp,sp,64
    14f4:	00008067          	ret
    14f8:	00370693          	addi	a3,a4,3
    14fc:	00003637          	lui	a2,0x3
    1500:	00269593          	slli	a1,a3,0x2
    1504:	e8062503          	lw	a0,-384(a2) # 2e80 <vga_buffer>
    1508:	00d585b3          	add	a1,a1,a3
    150c:	00659593          	slli	a1,a1,0x6
    1510:	00b786b3          	add	a3,a5,a1
    1514:	02812e23          	sw	s0,60(sp)
    1518:	02912c23          	sw	s1,56(sp)
    151c:	00d50533          	add	a0,a0,a3
    1520:	01f00693          	li	a3,31
    1524:	00d50023          	sb	a3,0(a0)
    1528:	e8062503          	lw	a0,-384(a2)
    152c:	00b78833          	add	a6,a5,a1
    1530:	00b788b3          	add	a7,a5,a1
    1534:	01050533          	add	a0,a0,a6
    1538:	00d500a3          	sb	a3,1(a0)
    153c:	e8062503          	lw	a0,-384(a2)
    1540:	00b78833          	add	a6,a5,a1
    1544:	00b78fb3          	add	t6,a5,a1
    1548:	01050533          	add	a0,a0,a6
    154c:	00d50123          	sb	a3,2(a0)
    1550:	e8062803          	lw	a6,-384(a2)
    1554:	00b782b3          	add	t0,a5,a1
    1558:	00b783b3          	add	t2,a5,a1
    155c:	01180833          	add	a6,a6,a7
    1560:	00d801a3          	sb	a3,3(a6)
    1564:	e8062803          	lw	a6,-384(a2)
    1568:	00b788b3          	add	a7,a5,a1
    156c:	00078513          	mv	a0,a5
    1570:	01180833          	add	a6,a6,a7
    1574:	00d80223          	sb	a3,4(a6)
    1578:	e8062803          	lw	a6,-384(a2)
    157c:	00b788b3          	add	a7,a5,a1
    1580:	00078313          	mv	t1,a5
    1584:	01180833          	add	a6,a6,a7
    1588:	00d802a3          	sb	a3,5(a6)
    158c:	e8062883          	lw	a7,-384(a2)
    1590:	00b78833          	add	a6,a5,a1
    1594:	00078f13          	mv	t5,a5
    1598:	01f888b3          	add	a7,a7,t6
    159c:	14d88023          	sb	a3,320(a7)
    15a0:	e8062883          	lw	a7,-384(a2)
    15a4:	00b78fb3          	add	t6,a5,a1
    15a8:	00078e93          	mv	t4,a5
    15ac:	01f888b3          	add	a7,a7,t6
    15b0:	14d880a3          	sb	a3,321(a7)
    15b4:	e8062883          	lw	a7,-384(a2)
    15b8:	00870f93          	addi	t6,a4,8
    15bc:	01e58f33          	add	t5,a1,t5
    15c0:	00588733          	add	a4,a7,t0
    15c4:	14d70123          	sb	a3,322(a4)
    15c8:	e8062703          	lw	a4,-384(a2)
    15cc:	00b782b3          	add	t0,a5,a1
    15d0:	00b787b3          	add	a5,a5,a1
    15d4:	00770733          	add	a4,a4,t2
    15d8:	14d701a3          	sb	a3,323(a4)
    15dc:	e8062703          	lw	a4,-384(a2)
    15e0:	01d58eb3          	add	t4,a1,t4
    15e4:	00a583b3          	add	t2,a1,a0
    15e8:	00570733          	add	a4,a4,t0
    15ec:	14d70223          	sb	a3,324(a4)
    15f0:	e8062703          	lw	a4,-384(a2)
    15f4:	00a582b3          	add	t0,a1,a0
    15f8:	00a588b3          	add	a7,a1,a0
    15fc:	01070733          	add	a4,a4,a6
    1600:	14d702a3          	sb	a3,325(a4)
    1604:	e8062703          	lw	a4,-384(a2)
    1608:	00b50433          	add	s0,a0,a1
    160c:	00b504b3          	add	s1,a0,a1
    1610:	00f707b3          	add	a5,a4,a5
    1614:	28d78023          	sb	a3,640(a5)
    1618:	e8062783          	lw	a5,-384(a2)
    161c:	00b50833          	add	a6,a0,a1
    1620:	01e787b3          	add	a5,a5,t5
    1624:	28d780a3          	sb	a3,641(a5)
    1628:	e8062703          	lw	a4,-384(a2)
    162c:	00b50f33          	add	t5,a0,a1
    1630:	00b507b3          	add	a5,a0,a1
    1634:	01d70733          	add	a4,a4,t4
    1638:	28d70123          	sb	a3,642(a4)
    163c:	e8062703          	lw	a4,-384(a2)
    1640:	00b50eb3          	add	t4,a0,a1
    1644:	00770733          	add	a4,a4,t2
    1648:	28d701a3          	sb	a3,643(a4)
    164c:	e8062703          	lw	a4,-384(a2)
    1650:	00570733          	add	a4,a4,t0
    1654:	28d70223          	sb	a3,644(a4)
    1658:	e8062703          	lw	a4,-384(a2)
    165c:	01170733          	add	a4,a4,a7
    1660:	28d702a3          	sb	a3,645(a4)
    1664:	e8062583          	lw	a1,-384(a2)
    1668:	002f9713          	slli	a4,t6,0x2
    166c:	01f70733          	add	a4,a4,t6
    1670:	007585b3          	add	a1,a1,t2
    1674:	28d581a3          	sb	a3,643(a1)
    1678:	e8062583          	lw	a1,-384(a2)
    167c:	00671713          	slli	a4,a4,0x6
    1680:	00a70533          	add	a0,a4,a0
    1684:	005585b3          	add	a1,a1,t0
    1688:	28d58223          	sb	a3,644(a1)
    168c:	e8062583          	lw	a1,-384(a2)
    1690:	011585b3          	add	a1,a1,a7
    1694:	28d582a3          	sb	a3,645(a1)
    1698:	e8062583          	lw	a1,-384(a2)
    169c:	008585b3          	add	a1,a1,s0
    16a0:	3cd581a3          	sb	a3,963(a1)
    16a4:	e8062883          	lw	a7,-384(a2)
    16a8:	006705b3          	add	a1,a4,t1
    16ac:	00670733          	add	a4,a4,t1
    16b0:	009888b3          	add	a7,a7,s1
    16b4:	3cd88223          	sb	a3,964(a7)
    16b8:	e8062883          	lw	a7,-384(a2)
    16bc:	01088833          	add	a6,a7,a6
    16c0:	3cd802a3          	sb	a3,965(a6)
    16c4:	e8062803          	lw	a6,-384(a2)
    16c8:	01e80833          	add	a6,a6,t5
    16cc:	50d801a3          	sb	a3,1283(a6)
    16d0:	e8062803          	lw	a6,-384(a2)
    16d4:	01d80833          	add	a6,a6,t4
    16d8:	50d80223          	sb	a3,1284(a6)
    16dc:	e8062803          	lw	a6,-384(a2)
    16e0:	00f807b3          	add	a5,a6,a5
    16e4:	50d782a3          	sb	a3,1285(a5)
    16e8:	e8062783          	lw	a5,-384(a2)
    16ec:	00a787b3          	add	a5,a5,a0
    16f0:	00d781a3          	sb	a3,3(a5)
    16f4:	e8062783          	lw	a5,-384(a2)
    16f8:	00b787b3          	add	a5,a5,a1
    16fc:	00d78223          	sb	a3,4(a5)
    1700:	e8062783          	lw	a5,-384(a2)
    1704:	00e787b3          	add	a5,a5,a4
    1708:	00d782a3          	sb	a3,5(a5)
    170c:	03c12403          	lw	s0,60(sp)
    1710:	03812483          	lw	s1,56(sp)
    1714:	04010113          	addi	sp,sp,64
    1718:	00008067          	ret
    171c:	00008067          	ret

00001720 <draw_character>:
    1720:	00858713          	addi	a4,a1,8
    1724:	0f000793          	li	a5,240
    1728:	00e7d463          	bge	a5,a4,1730 <draw_character+0x10>
    172c:	00078713          	mv	a4,a5
    1730:	04e5de63          	bge	a1,a4,178c <draw_character+0x6c>
    1734:	00850313          	addi	t1,a0,8
    1738:	14000793          	li	a5,320
    173c:	0467ca63          	blt	a5,t1,1790 <draw_character+0x70>
    1740:	04655663          	bge	a0,t1,178c <draw_character+0x6c>
    1744:	00259793          	slli	a5,a1,0x2
    1748:	00271893          	slli	a7,a4,0x2
    174c:	00b787b3          	add	a5,a5,a1
    1750:	00e888b3          	add	a7,a7,a4
    1754:	00679813          	slli	a6,a5,0x6
    1758:	00689893          	slli	a7,a7,0x6
    175c:	006806b3          	add	a3,a6,t1
    1760:	006888b3          	add	a7,a7,t1
    1764:	000035b7          	lui	a1,0x3
    1768:	010507b3          	add	a5,a0,a6
    176c:	e805a703          	lw	a4,-384(a1) # 2e80 <vga_buffer>
    1770:	00f70733          	add	a4,a4,a5
    1774:	00c70023          	sb	a2,0(a4)
    1778:	00178793          	addi	a5,a5,1
    177c:	fed798e3          	bne	a5,a3,176c <draw_character+0x4c>
    1780:	14068693          	addi	a3,a3,320
    1784:	14080813          	addi	a6,a6,320
    1788:	ff1690e3          	bne	a3,a7,1768 <draw_character+0x48>
    178c:	00008067          	ret
    1790:	00078313          	mv	t1,a5
    1794:	fadff06f          	j	1740 <draw_character+0x20>

00001798 <redraw_tile>:
    1798:	00200793          	li	a5,2
    179c:	14f60e63          	beq	a2,a5,18f8 <redraw_tile+0x160>
    17a0:	0ac7c463          	blt	a5,a2,1848 <redraw_tile+0xb0>
    17a4:	14060663          	beqz	a2,18f0 <redraw_tile+0x158>
    17a8:	00100793          	li	a5,1
    17ac:	fff58593          	addi	a1,a1,-1
    17b0:	16f61063          	bne	a2,a5,1910 <redraw_tile+0x178>
    17b4:	00003737          	lui	a4,0x3
    17b8:	00259793          	slli	a5,a1,0x2
    17bc:	e8072683          	lw	a3,-384(a4) # 2e80 <vga_buffer>
    17c0:	00b787b3          	add	a5,a5,a1
    17c4:	00679793          	slli	a5,a5,0x6
    17c8:	00f50633          	add	a2,a0,a5
    17cc:	00c686b3          	add	a3,a3,a2
    17d0:	00068023          	sb	zero,0(a3)
    17d4:	e8072683          	lw	a3,-384(a4)
    17d8:	00f50633          	add	a2,a0,a5
    17dc:	00c686b3          	add	a3,a3,a2
    17e0:	000680a3          	sb	zero,1(a3)
    17e4:	e8072683          	lw	a3,-384(a4)
    17e8:	00f50633          	add	a2,a0,a5
    17ec:	00c686b3          	add	a3,a3,a2
    17f0:	00068123          	sb	zero,2(a3)
    17f4:	e8072683          	lw	a3,-384(a4)
    17f8:	00f50633          	add	a2,a0,a5
    17fc:	00c686b3          	add	a3,a3,a2
    1800:	000681a3          	sb	zero,3(a3)
    1804:	e8072683          	lw	a3,-384(a4)
    1808:	00f50633          	add	a2,a0,a5
    180c:	00c686b3          	add	a3,a3,a2
    1810:	00068223          	sb	zero,4(a3)
    1814:	e8072683          	lw	a3,-384(a4)
    1818:	00f50633          	add	a2,a0,a5
    181c:	00c686b3          	add	a3,a3,a2
    1820:	000682a3          	sb	zero,5(a3)
    1824:	e8072683          	lw	a3,-384(a4)
    1828:	00f50633          	add	a2,a0,a5
    182c:	00f50533          	add	a0,a0,a5
    1830:	00c686b3          	add	a3,a3,a2
    1834:	00068323          	sb	zero,6(a3)
    1838:	e8072703          	lw	a4,-384(a4)
    183c:	00a70733          	add	a4,a4,a0
    1840:	000703a3          	sb	zero,7(a4)
    1844:	00008067          	ret
    1848:	00300793          	li	a5,3
    184c:	fef61ce3          	bne	a2,a5,1844 <redraw_tile+0xac>
    1850:	00259793          	slli	a5,a1,0x2
    1854:	00b785b3          	add	a1,a5,a1
    1858:	000037b7          	lui	a5,0x3
    185c:	e807a703          	lw	a4,-384(a5) # 2e80 <vga_buffer>
    1860:	fff50513          	addi	a0,a0,-1
    1864:	00659593          	slli	a1,a1,0x6
    1868:	00b506b3          	add	a3,a0,a1
    186c:	00d70733          	add	a4,a4,a3
    1870:	00070023          	sb	zero,0(a4)
    1874:	e807a703          	lw	a4,-384(a5)
    1878:	00a586b3          	add	a3,a1,a0
    187c:	00d70733          	add	a4,a4,a3
    1880:	14070023          	sb	zero,320(a4)
    1884:	e807a703          	lw	a4,-384(a5)
    1888:	00a586b3          	add	a3,a1,a0
    188c:	00d70733          	add	a4,a4,a3
    1890:	28070023          	sb	zero,640(a4)
    1894:	e807a703          	lw	a4,-384(a5)
    1898:	00a586b3          	add	a3,a1,a0
    189c:	00d70733          	add	a4,a4,a3
    18a0:	3c070023          	sb	zero,960(a4)
    18a4:	e807a703          	lw	a4,-384(a5)
    18a8:	00a586b3          	add	a3,a1,a0
    18ac:	00d70733          	add	a4,a4,a3
    18b0:	50070023          	sb	zero,1280(a4)
    18b4:	e807a703          	lw	a4,-384(a5)
    18b8:	00a586b3          	add	a3,a1,a0
    18bc:	00d70733          	add	a4,a4,a3
    18c0:	64070023          	sb	zero,1600(a4)
    18c4:	e807a703          	lw	a4,-384(a5)
    18c8:	00a586b3          	add	a3,a1,a0
    18cc:	7ff58593          	addi	a1,a1,2047
    18d0:	00d70733          	add	a4,a4,a3
    18d4:	78070023          	sb	zero,1920(a4)
    18d8:	e807a783          	lw	a5,-384(a5)
    18dc:	0c158593          	addi	a1,a1,193
    18e0:	00a585b3          	add	a1,a1,a0
    18e4:	00b787b3          	add	a5,a5,a1
    18e8:	00078023          	sb	zero,0(a5)
    18ec:	00008067          	ret
    18f0:	00858593          	addi	a1,a1,8
    18f4:	ec1ff06f          	j	17b4 <redraw_tile+0x1c>
    18f8:	00259793          	slli	a5,a1,0x2
    18fc:	00b785b3          	add	a1,a5,a1
    1900:	000037b7          	lui	a5,0x3
    1904:	e807a703          	lw	a4,-384(a5) # 2e80 <vga_buffer>
    1908:	00850513          	addi	a0,a0,8
    190c:	f59ff06f          	j	1864 <redraw_tile+0xcc>
    1910:	00008067          	ret

00001914 <fill_display>:
    1914:	00013837          	lui	a6,0x13
    1918:	00050613          	mv	a2,a0
    191c:	d4080813          	addi	a6,a6,-704 # 12d40 <__global_pointer+0xf6c0>
    1920:	14000693          	li	a3,320
    1924:	00000513          	li	a0,0
    1928:	000035b7          	lui	a1,0x3
    192c:	00050793          	mv	a5,a0
    1930:	e805a703          	lw	a4,-384(a1) # 2e80 <vga_buffer>
    1934:	00f70733          	add	a4,a4,a5
    1938:	00c70023          	sb	a2,0(a4)
    193c:	00178793          	addi	a5,a5,1
    1940:	fed798e3          	bne	a5,a3,1930 <fill_display+0x1c>
    1944:	14078693          	addi	a3,a5,320
    1948:	14050513          	addi	a0,a0,320
    194c:	ff0690e3          	bne	a3,a6,192c <fill_display+0x18>
    1950:	00008067          	ret

00001954 <get_random>:
    1954:	ff010113          	addi	sp,sp,-16
    1958:	00003737          	lui	a4,0x3
    195c:	00812423          	sw	s0,8(sp)
    1960:	e8472403          	lw	s0,-380(a4) # 2e84 <next_random>
    1964:	41c657b7          	lui	a5,0x41c65
    1968:	e6d78793          	addi	a5,a5,-403 # 41c64e6d <_stack_end+0x41b61f85>
    196c:	02f40433          	mul	s0,s0,a5
    1970:	000037b7          	lui	a5,0x3
    1974:	03978793          	addi	a5,a5,57 # 3039 <game_state+0x171>
    1978:	00912223          	sw	s1,4(sp)
    197c:	00112623          	sw	ra,12(sp)
    1980:	00050493          	mv	s1,a0
    1984:	00f40433          	add	s0,s0,a5
    1988:	e8872223          	sw	s0,-380(a4)
    198c:	134000ef          	jal	1ac0 <get_sw>
    1990:	00141793          	slli	a5,s0,0x1
    1994:	0117d413          	srli	s0,a5,0x11
    1998:	00c12083          	lw	ra,12(sp)
    199c:	00a40533          	add	a0,s0,a0
    19a0:	00812403          	lw	s0,8(sp)
    19a4:	02957533          	remu	a0,a0,s1
    19a8:	00412483          	lw	s1,4(sp)
    19ac:	01010113          	addi	sp,sp,16
    19b0:	00008067          	ret

000019b4 <dir_to_movement>:
    19b4:	00200793          	li	a5,2
    19b8:	04f50063          	beq	a0,a5,19f8 <dir_to_movement+0x44>
    19bc:	02a7c263          	blt	a5,a0,19e0 <dir_to_movement+0x2c>
    19c0:	fff00793          	li	a5,-1
    19c4:	00050863          	beqz	a0,19d4 <dir_to_movement+0x20>
    19c8:	00f50533          	add	a0,a0,a5
    19cc:	00153793          	seqz	a5,a0
    19d0:	00000513          	li	a0,0
    19d4:	00a5a023          	sw	a0,0(a1)
    19d8:	00f62023          	sw	a5,0(a2)
    19dc:	00008067          	ret
    19e0:	ffd50513          	addi	a0,a0,-3
    19e4:	00153513          	seqz	a0,a0
    19e8:	00000793          	li	a5,0
    19ec:	00a5a023          	sw	a0,0(a1)
    19f0:	00f62023          	sw	a5,0(a2)
    19f4:	00008067          	ret
    19f8:	fff00513          	li	a0,-1
    19fc:	00000793          	li	a5,0
    1a00:	00a5a023          	sw	a0,0(a1)
    1a04:	00f62023          	sw	a5,0(a2)
    1a08:	00008067          	ret

00001a0c <can_move_to>:
    1a0c:	01d00793          	li	a5,29
    1a10:	04b7e463          	bltu	a5,a1,1a58 <can_move_to+0x4c>
    1a14:	02853793          	sltiu	a5,a0,40
    1a18:	00079863          	bnez	a5,1a28 <can_move_to+0x1c>
    1a1c:	ff258713          	addi	a4,a1,-14
    1a20:	00100793          	li	a5,1
    1a24:	02070663          	beqz	a4,1a50 <can_move_to+0x44>
    1a28:	00259793          	slli	a5,a1,0x2
    1a2c:	00b787b3          	add	a5,a5,a1
    1a30:	00379793          	slli	a5,a5,0x3
    1a34:	00a787b3          	add	a5,a5,a0
    1a38:	00002737          	lui	a4,0x2
    1a3c:	00279793          	slli	a5,a5,0x2
    1a40:	bc070713          	addi	a4,a4,-1088 # 1bc0 <map>
    1a44:	00f707b3          	add	a5,a4,a5
    1a48:	0007a783          	lw	a5,0(a5)
    1a4c:	0017b793          	seqz	a5,a5
    1a50:	00078513          	mv	a0,a5
    1a54:	00008067          	ret
    1a58:	00000793          	li	a5,0
    1a5c:	00078513          	mv	a0,a5
    1a60:	00008067          	ret

00001a64 <timer_init>:
    1a64:	000037b7          	lui	a5,0x3
    1a68:	e8c7a783          	lw	a5,-372(a5) # 2e8c <CLOCK_SPEED>
    1a6c:	00003737          	lui	a4,0x3
    1a70:	02a7c533          	div	a0,a5,a0
    1a74:	e8872783          	lw	a5,-376(a4) # 2e88 <timer>
    1a78:	00700713          	li	a4,7
    1a7c:	01051693          	slli	a3,a0,0x10
    1a80:	0106d693          	srli	a3,a3,0x10
    1a84:	00d7a423          	sw	a3,8(a5)
    1a88:	41055513          	srai	a0,a0,0x10
    1a8c:	00a7a623          	sw	a0,12(a5)
    1a90:	00e7a223          	sw	a4,4(a5)
    1a94:	eecfe06f          	j	180 <enable_interrupt>

00001a98 <interrupt_handler>:
    1a98:	000037b7          	lui	a5,0x3
    1a9c:	e887a703          	lw	a4,-376(a5) # 2e88 <timer>
    1aa0:	00072783          	lw	a5,0(a4)
    1aa4:	0017f793          	andi	a5,a5,1
    1aa8:	00079463          	bnez	a5,1ab0 <interrupt_handler+0x18>
    1aac:	00008067          	ret
    1ab0:	00072783          	lw	a5,0(a4)
    1ab4:	ffe7f793          	andi	a5,a5,-2
    1ab8:	00f72023          	sw	a5,0(a4)
    1abc:	f1cfe06f          	j	1d8 <game_update>

00001ac0 <get_sw>:
    1ac0:	040007b7          	lui	a5,0x4000
    1ac4:	0107a503          	lw	a0,16(a5) # 4000010 <_stack_end+0x3efd128>
    1ac8:	00757513          	andi	a0,a0,7
    1acc:	00008067          	ret

00001ad0 <handle_input>:
    1ad0:	040007b7          	lui	a5,0x4000
    1ad4:	01078793          	addi	a5,a5,16 # 4000010 <_stack_end+0x3efd128>
    1ad8:	0007a783          	lw	a5,0(a5)
    1adc:	00200713          	li	a4,2
    1ae0:	0077f793          	andi	a5,a5,7
    1ae4:	02e78063          	beq	a5,a4,1b04 <handle_input+0x34>
    1ae8:	00f74a63          	blt	a4,a5,1afc <handle_input+0x2c>
    1aec:	02078063          	beqz	a5,1b0c <handle_input+0x3c>
    1af0:	00100793          	li	a5,1
    1af4:	00f52a23          	sw	a5,20(a0)
    1af8:	00008067          	ret
    1afc:	00300713          	li	a4,3
    1b00:	00e79a63          	bne	a5,a4,1b14 <handle_input+0x44>
    1b04:	00f52a23          	sw	a5,20(a0)
    1b08:	00008067          	ret
    1b0c:	00052a23          	sw	zero,20(a0)
    1b10:	00008067          	ret
    1b14:	00008067          	ret

00001b18 <main>:
    1b18:	ff010113          	addi	sp,sp,-16
    1b1c:	00112623          	sw	ra,12(sp)
    1b20:	c21fe0ef          	jal	740 <vga_init>
    1b24:	e74fe0ef          	jal	198 <game_init>
    1b28:	0000006f          	j	1b28 <main+0x10>

Disassembly of section .data:

00001b2c <welcome_msg>:
    1b2c:	3d3d                	.insn	2, 0x3d3d
    1b2e:	3d3d                	.insn	2, 0x3d3d
    1b30:	3d3d                	.insn	2, 0x3d3d
    1b32:	3d3d                	.insn	2, 0x3d3d
    1b34:	3d3d                	.insn	2, 0x3d3d
    1b36:	3d3d                	.insn	2, 0x3d3d
    1b38:	3d3d                	.insn	2, 0x3d3d
    1b3a:	3d3d                	.insn	2, 0x3d3d
    1b3c:	3d3d                	.insn	2, 0x3d3d
    1b3e:	3d3d                	.insn	2, 0x3d3d
    1b40:	3d3d                	.insn	2, 0x3d3d
    1b42:	3d3d                	.insn	2, 0x3d3d
    1b44:	3d3d                	.insn	2, 0x3d3d
    1b46:	3d3d                	.insn	2, 0x3d3d
    1b48:	3d3d                	.insn	2, 0x3d3d
    1b4a:	3d3d                	.insn	2, 0x3d3d
    1b4c:	3d3d                	.insn	2, 0x3d3d
    1b4e:	3d3d                	.insn	2, 0x3d3d
    1b50:	3d3d                	.insn	2, 0x3d3d
    1b52:	3d3d                	.insn	2, 0x3d3d
    1b54:	3d3d                	.insn	2, 0x3d3d
    1b56:	3d3d                	.insn	2, 0x3d3d
    1b58:	3d3d                	.insn	2, 0x3d3d
    1b5a:	3d3d                	.insn	2, 0x3d3d
    1b5c:	3d0a                	.insn	2, 0x3d0a
    1b5e:	3d3d                	.insn	2, 0x3d3d
    1b60:	3d3d                	.insn	2, 0x3d3d
    1b62:	5220                	.insn	2, 0x5220
    1b64:	5349                	.insn	2, 0x5349
    1b66:	20562d43          	.insn	4, 0x20562d43
    1b6a:	6f42                	.insn	2, 0x6f42
    1b6c:	552d746f          	jal	s0,d90be <__global_pointer+0xd5a3e>
    1b70:	2070                	.insn	2, 0x2070
    1b72:	7250                	.insn	2, 0x7250
    1b74:	7365636f          	jal	t1,582aa <__global_pointer+0x54c2a>
    1b78:	6f4e2073          	csrs	0x6f4,t3
    1b7c:	6f432077          	.insn	4, 0x6f432077
    1b80:	706d                	.insn	2, 0x706d
    1b82:	656c                	.insn	2, 0x656c
    1b84:	6574                	.insn	2, 0x6574
    1b86:	3d20                	.insn	2, 0x3d20
    1b88:	3d3d                	.insn	2, 0x3d3d
    1b8a:	3d3d                	.insn	2, 0x3d3d
    1b8c:	0a3d                	.insn	2, 0x0a3d
    1b8e:	3d3d                	.insn	2, 0x3d3d
    1b90:	3d3d                	.insn	2, 0x3d3d
    1b92:	3d3d                	.insn	2, 0x3d3d
    1b94:	3d3d                	.insn	2, 0x3d3d
    1b96:	3d3d                	.insn	2, 0x3d3d
    1b98:	3d3d                	.insn	2, 0x3d3d
    1b9a:	3d3d                	.insn	2, 0x3d3d
    1b9c:	3d3d                	.insn	2, 0x3d3d
    1b9e:	3d3d                	.insn	2, 0x3d3d
    1ba0:	3d3d                	.insn	2, 0x3d3d
    1ba2:	3d3d                	.insn	2, 0x3d3d
    1ba4:	3d3d                	.insn	2, 0x3d3d
    1ba6:	3d3d                	.insn	2, 0x3d3d
    1ba8:	3d3d                	.insn	2, 0x3d3d
    1baa:	3d3d                	.insn	2, 0x3d3d
    1bac:	3d3d                	.insn	2, 0x3d3d
    1bae:	3d3d                	.insn	2, 0x3d3d
    1bb0:	3d3d                	.insn	2, 0x3d3d
    1bb2:	3d3d                	.insn	2, 0x3d3d
    1bb4:	3d3d                	.insn	2, 0x3d3d
    1bb6:	3d3d                	.insn	2, 0x3d3d
    1bb8:	3d3d                	.insn	2, 0x3d3d
    1bba:	3d3d                	.insn	2, 0x3d3d
    1bbc:	3d3d                	.insn	2, 0x3d3d
    1bbe:	000a                	.insn	2, 0x000a

00001bc0 <map>:
	...
    1c78:	00000003          	lb	zero,0(zero) # 0 <_isr_handler>
    1c7c:	0002                	.insn	2, 0x0002
    1c7e:	0000                	.insn	2, 0x0000
    1c80:	0002                	.insn	2, 0x0002
    1c82:	0000                	.insn	2, 0x0000
    1c84:	0002                	.insn	2, 0x0002
    1c86:	0000                	.insn	2, 0x0000
    1c88:	0002                	.insn	2, 0x0002
    1c8a:	0000                	.insn	2, 0x0000
    1c8c:	0002                	.insn	2, 0x0002
    1c8e:	0000                	.insn	2, 0x0000
    1c90:	0002                	.insn	2, 0x0002
    1c92:	0000                	.insn	2, 0x0000
    1c94:	0002                	.insn	2, 0x0002
    1c96:	0000                	.insn	2, 0x0000
    1c98:	0002                	.insn	2, 0x0002
    1c9a:	0000                	.insn	2, 0x0000
    1c9c:	0002                	.insn	2, 0x0002
    1c9e:	0000                	.insn	2, 0x0000
    1ca0:	0002                	.insn	2, 0x0002
    1ca2:	0000                	.insn	2, 0x0000
    1ca4:	0002                	.insn	2, 0x0002
    1ca6:	0000                	.insn	2, 0x0000
    1ca8:	0002                	.insn	2, 0x0002
    1caa:	0000                	.insn	2, 0x0000
    1cac:	0004                	.insn	2, 0x0004
    1cae:	0000                	.insn	2, 0x0000
    1cb0:	00000003          	lb	zero,0(zero) # 0 <_isr_handler>
    1cb4:	0002                	.insn	2, 0x0002
    1cb6:	0000                	.insn	2, 0x0000
    1cb8:	0002                	.insn	2, 0x0002
    1cba:	0000                	.insn	2, 0x0000
    1cbc:	0002                	.insn	2, 0x0002
    1cbe:	0000                	.insn	2, 0x0000
    1cc0:	0002                	.insn	2, 0x0002
    1cc2:	0000                	.insn	2, 0x0000
    1cc4:	0002                	.insn	2, 0x0002
    1cc6:	0000                	.insn	2, 0x0000
    1cc8:	0002                	.insn	2, 0x0002
    1cca:	0000                	.insn	2, 0x0000
    1ccc:	0002                	.insn	2, 0x0002
    1cce:	0000                	.insn	2, 0x0000
    1cd0:	0002                	.insn	2, 0x0002
    1cd2:	0000                	.insn	2, 0x0000
    1cd4:	0002                	.insn	2, 0x0002
    1cd6:	0000                	.insn	2, 0x0000
    1cd8:	0002                	.insn	2, 0x0002
    1cda:	0000                	.insn	2, 0x0000
    1cdc:	0002                	.insn	2, 0x0002
    1cde:	0000                	.insn	2, 0x0000
    1ce0:	0002                	.insn	2, 0x0002
    1ce2:	0000                	.insn	2, 0x0000
    1ce4:	0004                	.insn	2, 0x0004
	...
    1d16:	0000                	.insn	2, 0x0000
    1d18:	0001                	.insn	2, 0x0001
	...
    1d4a:	0000                	.insn	2, 0x0000
    1d4c:	0001                	.insn	2, 0x0001
    1d4e:	0000                	.insn	2, 0x0000
    1d50:	0001                	.insn	2, 0x0001
	...
    1d82:	0000                	.insn	2, 0x0000
    1d84:	0001                	.insn	2, 0x0001
	...
    1db6:	0000                	.insn	2, 0x0000
    1db8:	0001                	.insn	2, 0x0001
    1dba:	0000                	.insn	2, 0x0000
    1dbc:	0000                	.insn	2, 0x0000
    1dbe:	0000                	.insn	2, 0x0000
    1dc0:	00000003          	lb	zero,0(zero) # 0 <_isr_handler>
    1dc4:	0002                	.insn	2, 0x0002
    1dc6:	0000                	.insn	2, 0x0000
    1dc8:	0002                	.insn	2, 0x0002
    1dca:	0000                	.insn	2, 0x0000
    1dcc:	0004                	.insn	2, 0x0004
    1dce:	0000                	.insn	2, 0x0000
    1dd0:	0000                	.insn	2, 0x0000
    1dd2:	0000                	.insn	2, 0x0000
    1dd4:	00000003          	lb	zero,0(zero) # 0 <_isr_handler>
    1dd8:	0002                	.insn	2, 0x0002
    1dda:	0000                	.insn	2, 0x0000
    1ddc:	0002                	.insn	2, 0x0002
    1dde:	0000                	.insn	2, 0x0000
    1de0:	0002                	.insn	2, 0x0002
    1de2:	0000                	.insn	2, 0x0000
    1de4:	0004                	.insn	2, 0x0004
    1de6:	0000                	.insn	2, 0x0000
    1de8:	0000                	.insn	2, 0x0000
    1dea:	0000                	.insn	2, 0x0000
    1dec:	0001                	.insn	2, 0x0001
    1dee:	0000                	.insn	2, 0x0000
    1df0:	0001                	.insn	2, 0x0001
    1df2:	0000                	.insn	2, 0x0000
    1df4:	0000                	.insn	2, 0x0000
    1df6:	0000                	.insn	2, 0x0000
    1df8:	00000003          	lb	zero,0(zero) # 0 <_isr_handler>
    1dfc:	0002                	.insn	2, 0x0002
    1dfe:	0000                	.insn	2, 0x0000
    1e00:	0002                	.insn	2, 0x0002
    1e02:	0000                	.insn	2, 0x0000
    1e04:	0002                	.insn	2, 0x0002
    1e06:	0000                	.insn	2, 0x0000
    1e08:	0004                	.insn	2, 0x0004
    1e0a:	0000                	.insn	2, 0x0000
    1e0c:	0000                	.insn	2, 0x0000
    1e0e:	0000                	.insn	2, 0x0000
    1e10:	00000003          	lb	zero,0(zero) # 0 <_isr_handler>
    1e14:	0002                	.insn	2, 0x0002
    1e16:	0000                	.insn	2, 0x0000
    1e18:	0002                	.insn	2, 0x0002
    1e1a:	0000                	.insn	2, 0x0000
    1e1c:	0004                	.insn	2, 0x0004
    1e1e:	0000                	.insn	2, 0x0000
    1e20:	0000                	.insn	2, 0x0000
    1e22:	0000                	.insn	2, 0x0000
    1e24:	0001                	.insn	2, 0x0001
	...
    1e56:	0000                	.insn	2, 0x0000
    1e58:	0001                	.insn	2, 0x0001
    1e5a:	0000                	.insn	2, 0x0000
    1e5c:	0000                	.insn	2, 0x0000
    1e5e:	0000                	.insn	2, 0x0000
    1e60:	0005                	.insn	2, 0x0005
    1e62:	0000                	.insn	2, 0x0000
    1e64:	0002                	.insn	2, 0x0002
    1e66:	0000                	.insn	2, 0x0000
    1e68:	0002                	.insn	2, 0x0002
    1e6a:	0000                	.insn	2, 0x0000
    1e6c:	0006                	.insn	2, 0x0006
    1e6e:	0000                	.insn	2, 0x0000
    1e70:	0000                	.insn	2, 0x0000
    1e72:	0000                	.insn	2, 0x0000
    1e74:	0005                	.insn	2, 0x0005
    1e76:	0000                	.insn	2, 0x0000
    1e78:	0002                	.insn	2, 0x0002
    1e7a:	0000                	.insn	2, 0x0000
    1e7c:	0002                	.insn	2, 0x0002
    1e7e:	0000                	.insn	2, 0x0000
    1e80:	0002                	.insn	2, 0x0002
    1e82:	0000                	.insn	2, 0x0000
    1e84:	0006                	.insn	2, 0x0006
    1e86:	0000                	.insn	2, 0x0000
    1e88:	0000                	.insn	2, 0x0000
    1e8a:	0000                	.insn	2, 0x0000
    1e8c:	0005                	.insn	2, 0x0005
    1e8e:	0000                	.insn	2, 0x0000
    1e90:	0006                	.insn	2, 0x0006
    1e92:	0000                	.insn	2, 0x0000
    1e94:	0000                	.insn	2, 0x0000
    1e96:	0000                	.insn	2, 0x0000
    1e98:	0005                	.insn	2, 0x0005
    1e9a:	0000                	.insn	2, 0x0000
    1e9c:	0002                	.insn	2, 0x0002
    1e9e:	0000                	.insn	2, 0x0000
    1ea0:	0002                	.insn	2, 0x0002
    1ea2:	0000                	.insn	2, 0x0000
    1ea4:	0002                	.insn	2, 0x0002
    1ea6:	0000                	.insn	2, 0x0000
    1ea8:	0006                	.insn	2, 0x0006
    1eaa:	0000                	.insn	2, 0x0000
    1eac:	0000                	.insn	2, 0x0000
    1eae:	0000                	.insn	2, 0x0000
    1eb0:	0005                	.insn	2, 0x0005
    1eb2:	0000                	.insn	2, 0x0000
    1eb4:	0002                	.insn	2, 0x0002
    1eb6:	0000                	.insn	2, 0x0000
    1eb8:	0002                	.insn	2, 0x0002
    1eba:	0000                	.insn	2, 0x0000
    1ebc:	0006                	.insn	2, 0x0006
    1ebe:	0000                	.insn	2, 0x0000
    1ec0:	0000                	.insn	2, 0x0000
    1ec2:	0000                	.insn	2, 0x0000
    1ec4:	0001                	.insn	2, 0x0001
	...
    1ef6:	0000                	.insn	2, 0x0000
    1ef8:	0001                	.insn	2, 0x0001
	...
    1f62:	0000                	.insn	2, 0x0000
    1f64:	0001                	.insn	2, 0x0001
	...
    1f96:	0000                	.insn	2, 0x0000
    1f98:	0001                	.insn	2, 0x0001
    1f9a:	0000                	.insn	2, 0x0000
    1f9c:	0000                	.insn	2, 0x0000
    1f9e:	0000                	.insn	2, 0x0000
    1fa0:	00000003          	lb	zero,0(zero) # 0 <_isr_handler>
    1fa4:	0002                	.insn	2, 0x0002
    1fa6:	0000                	.insn	2, 0x0000
    1fa8:	0002                	.insn	2, 0x0002
    1faa:	0000                	.insn	2, 0x0000
    1fac:	0004                	.insn	2, 0x0004
	...
    1fbe:	0000                	.insn	2, 0x0000
    1fc0:	00000003          	lb	zero,0(zero) # 0 <_isr_handler>
    1fc4:	0002                	.insn	2, 0x0002
    1fc6:	0000                	.insn	2, 0x0000
    1fc8:	0002                	.insn	2, 0x0002
    1fca:	0000                	.insn	2, 0x0000
    1fcc:	0002                	.insn	2, 0x0002
    1fce:	0000                	.insn	2, 0x0000
    1fd0:	0002                	.insn	2, 0x0002
    1fd2:	0000                	.insn	2, 0x0000
    1fd4:	0002                	.insn	2, 0x0002
    1fd6:	0000                	.insn	2, 0x0000
    1fd8:	0002                	.insn	2, 0x0002
    1fda:	0000                	.insn	2, 0x0000
    1fdc:	0004                	.insn	2, 0x0004
    1fde:	0000                	.insn	2, 0x0000
    1fe0:	0000                	.insn	2, 0x0000
    1fe2:	0000                	.insn	2, 0x0000
    1fe4:	00000003          	lb	zero,0(zero) # 0 <_isr_handler>
    1fe8:	0004                	.insn	2, 0x0004
    1fea:	0000                	.insn	2, 0x0000
    1fec:	0000                	.insn	2, 0x0000
    1fee:	0000                	.insn	2, 0x0000
    1ff0:	00000003          	lb	zero,0(zero) # 0 <_isr_handler>
    1ff4:	0002                	.insn	2, 0x0002
    1ff6:	0000                	.insn	2, 0x0000
    1ff8:	0002                	.insn	2, 0x0002
    1ffa:	0000                	.insn	2, 0x0000
    1ffc:	0004                	.insn	2, 0x0004
    1ffe:	0000                	.insn	2, 0x0000
    2000:	0000                	.insn	2, 0x0000
    2002:	0000                	.insn	2, 0x0000
    2004:	0001                	.insn	2, 0x0001
	...
    2036:	0000                	.insn	2, 0x0000
    2038:	0001                	.insn	2, 0x0001
    203a:	0000                	.insn	2, 0x0000
    203c:	0000                	.insn	2, 0x0000
    203e:	0000                	.insn	2, 0x0000
    2040:	0001                	.insn	2, 0x0001
	...
    204a:	0000                	.insn	2, 0x0000
    204c:	0001                	.insn	2, 0x0001
    204e:	0000                	.insn	2, 0x0000
    2050:	0000                	.insn	2, 0x0000
    2052:	0000                	.insn	2, 0x0000
    2054:	00000003          	lb	zero,0(zero) # 0 <_isr_handler>
    2058:	0004                	.insn	2, 0x0004
    205a:	0000                	.insn	2, 0x0000
    205c:	0000                	.insn	2, 0x0000
    205e:	0000                	.insn	2, 0x0000
    2060:	0005                	.insn	2, 0x0005
    2062:	0000                	.insn	2, 0x0000
    2064:	0002                	.insn	2, 0x0002
    2066:	0000                	.insn	2, 0x0000
    2068:	0002                	.insn	2, 0x0002
    206a:	0000                	.insn	2, 0x0000
    206c:	0004                	.insn	2, 0x0004
    206e:	0000                	.insn	2, 0x0000
    2070:	00000003          	lb	zero,0(zero) # 0 <_isr_handler>
    2074:	0002                	.insn	2, 0x0002
    2076:	0000                	.insn	2, 0x0000
    2078:	0002                	.insn	2, 0x0002
    207a:	0000                	.insn	2, 0x0000
    207c:	0006                	.insn	2, 0x0006
    207e:	0000                	.insn	2, 0x0000
    2080:	0000                	.insn	2, 0x0000
    2082:	0000                	.insn	2, 0x0000
    2084:	0001                	.insn	2, 0x0001
    2086:	0000                	.insn	2, 0x0000
    2088:	0001                	.insn	2, 0x0001
    208a:	0000                	.insn	2, 0x0000
    208c:	0000                	.insn	2, 0x0000
    208e:	0000                	.insn	2, 0x0000
    2090:	0001                	.insn	2, 0x0001
	...
    209a:	0000                	.insn	2, 0x0000
    209c:	0001                	.insn	2, 0x0001
    209e:	0000                	.insn	2, 0x0000
    20a0:	0000                	.insn	2, 0x0000
    20a2:	0000                	.insn	2, 0x0000
    20a4:	0001                	.insn	2, 0x0001
	...
    20d6:	0000                	.insn	2, 0x0000
    20d8:	0001                	.insn	2, 0x0001
    20da:	0000                	.insn	2, 0x0000
    20dc:	0000                	.insn	2, 0x0000
    20de:	0000                	.insn	2, 0x0000
    20e0:	0005                	.insn	2, 0x0005
    20e2:	0000                	.insn	2, 0x0000
    20e4:	0002                	.insn	2, 0x0002
    20e6:	0000                	.insn	2, 0x0000
    20e8:	0002                	.insn	2, 0x0002
    20ea:	0000                	.insn	2, 0x0000
    20ec:	0006                	.insn	2, 0x0006
    20ee:	0000                	.insn	2, 0x0000
    20f0:	0000                	.insn	2, 0x0000
    20f2:	0000                	.insn	2, 0x0000
    20f4:	0001                	.insn	2, 0x0001
    20f6:	0000                	.insn	2, 0x0000
    20f8:	0001                	.insn	2, 0x0001
	...
    210a:	0000                	.insn	2, 0x0000
    210c:	0001                	.insn	2, 0x0001
    210e:	0000                	.insn	2, 0x0000
    2110:	0001                	.insn	2, 0x0001
	...
    2122:	0000                	.insn	2, 0x0000
    2124:	0001                	.insn	2, 0x0001
    2126:	0000                	.insn	2, 0x0000
    2128:	0001                	.insn	2, 0x0001
    212a:	0000                	.insn	2, 0x0000
    212c:	0000                	.insn	2, 0x0000
    212e:	0000                	.insn	2, 0x0000
    2130:	0005                	.insn	2, 0x0005
    2132:	0000                	.insn	2, 0x0000
    2134:	0002                	.insn	2, 0x0002
    2136:	0000                	.insn	2, 0x0000
    2138:	0002                	.insn	2, 0x0002
    213a:	0000                	.insn	2, 0x0000
    213c:	0006                	.insn	2, 0x0006
    213e:	0000                	.insn	2, 0x0000
    2140:	0000                	.insn	2, 0x0000
    2142:	0000                	.insn	2, 0x0000
    2144:	0001                	.insn	2, 0x0001
	...
    2176:	0000                	.insn	2, 0x0000
    2178:	0001                	.insn	2, 0x0001
	...
    2192:	0000                	.insn	2, 0x0000
    2194:	0001                	.insn	2, 0x0001
    2196:	0000                	.insn	2, 0x0000
    2198:	0001                	.insn	2, 0x0001
	...
    21aa:	0000                	.insn	2, 0x0000
    21ac:	0001                	.insn	2, 0x0001
    21ae:	0000                	.insn	2, 0x0000
    21b0:	0001                	.insn	2, 0x0001
    21b2:	0000                	.insn	2, 0x0000
    21b4:	0000                	.insn	2, 0x0000
    21b6:	0000                	.insn	2, 0x0000
    21b8:	00000003          	lb	zero,0(zero) # 0 <_isr_handler>
    21bc:	0002                	.insn	2, 0x0002
    21be:	0000                	.insn	2, 0x0000
    21c0:	0002                	.insn	2, 0x0002
    21c2:	0000                	.insn	2, 0x0000
    21c4:	0006                	.insn	2, 0x0006
    21c6:	0000                	.insn	2, 0x0000
    21c8:	0001                	.insn	2, 0x0001
	...
    21e2:	0000                	.insn	2, 0x0000
    21e4:	0001                	.insn	2, 0x0001
	...
    2216:	0000                	.insn	2, 0x0000
    2218:	0005                	.insn	2, 0x0005
    221a:	0000                	.insn	2, 0x0000
    221c:	0002                	.insn	2, 0x0002
    221e:	0000                	.insn	2, 0x0000
    2220:	0002                	.insn	2, 0x0002
    2222:	0000                	.insn	2, 0x0000
    2224:	0002                	.insn	2, 0x0002
    2226:	0000                	.insn	2, 0x0000
    2228:	0002                	.insn	2, 0x0002
    222a:	0000                	.insn	2, 0x0000
    222c:	0004                	.insn	2, 0x0004
    222e:	0000                	.insn	2, 0x0000
    2230:	0000                	.insn	2, 0x0000
    2232:	0000                	.insn	2, 0x0000
    2234:	0001                	.insn	2, 0x0001
    2236:	0000                	.insn	2, 0x0000
    2238:	0005                	.insn	2, 0x0005
    223a:	0000                	.insn	2, 0x0000
    223c:	0002                	.insn	2, 0x0002
    223e:	0000                	.insn	2, 0x0000
    2240:	0002                	.insn	2, 0x0002
    2242:	0000                	.insn	2, 0x0000
    2244:	0004                	.insn	2, 0x0004
    2246:	0000                	.insn	2, 0x0000
    2248:	0000                	.insn	2, 0x0000
    224a:	0000                	.insn	2, 0x0000
    224c:	0005                	.insn	2, 0x0005
    224e:	0000                	.insn	2, 0x0000
    2250:	0006                	.insn	2, 0x0006
    2252:	0000                	.insn	2, 0x0000
    2254:	0000                	.insn	2, 0x0000
    2256:	0000                	.insn	2, 0x0000
    2258:	0005                	.insn	2, 0x0005
    225a:	0000                	.insn	2, 0x0000
    225c:	0002                	.insn	2, 0x0002
    225e:	0000                	.insn	2, 0x0000
    2260:	0002                	.insn	2, 0x0002
    2262:	0000                	.insn	2, 0x0000
    2264:	0004                	.insn	2, 0x0004
    2266:	0000                	.insn	2, 0x0000
    2268:	0001                	.insn	2, 0x0001
    226a:	0000                	.insn	2, 0x0000
    226c:	0000                	.insn	2, 0x0000
    226e:	0000                	.insn	2, 0x0000
    2270:	00000003          	lb	zero,0(zero) # 0 <_isr_handler>
    2274:	0002                	.insn	2, 0x0002
    2276:	0000                	.insn	2, 0x0000
    2278:	0002                	.insn	2, 0x0002
    227a:	0000                	.insn	2, 0x0000
    227c:	0002                	.insn	2, 0x0002
    227e:	0000                	.insn	2, 0x0000
    2280:	0002                	.insn	2, 0x0002
    2282:	0000                	.insn	2, 0x0000
    2284:	0006                	.insn	2, 0x0006
	...
    22ca:	0000                	.insn	2, 0x0000
    22cc:	0001                	.insn	2, 0x0001
    22ce:	0000                	.insn	2, 0x0000
    22d0:	0000                	.insn	2, 0x0000
    22d2:	0000                	.insn	2, 0x0000
    22d4:	0001                	.insn	2, 0x0001
    22d6:	0000                	.insn	2, 0x0000
    22d8:	00000003          	lb	zero,0(zero) # 0 <_isr_handler>
    22dc:	0002                	.insn	2, 0x0002
    22de:	0000                	.insn	2, 0x0000
    22e0:	0002                	.insn	2, 0x0002
    22e2:	0000                	.insn	2, 0x0000
    22e4:	0006                	.insn	2, 0x0006
	...
    2302:	0000                	.insn	2, 0x0000
    2304:	0001                	.insn	2, 0x0001
    2306:	0000                	.insn	2, 0x0000
    2308:	0001                	.insn	2, 0x0001
    230a:	0000                	.insn	2, 0x0000
    230c:	0000                	.insn	2, 0x0000
    230e:	0000                	.insn	2, 0x0000
    2310:	0001                	.insn	2, 0x0001
	...
    236a:	0000                	.insn	2, 0x0000
    236c:	0001                	.insn	2, 0x0001
    236e:	0000                	.insn	2, 0x0000
    2370:	0000                	.insn	2, 0x0000
    2372:	0000                	.insn	2, 0x0000
    2374:	0001                	.insn	2, 0x0001
    2376:	0000                	.insn	2, 0x0000
    2378:	0001                	.insn	2, 0x0001
	...
    23a2:	0000                	.insn	2, 0x0000
    23a4:	0001                	.insn	2, 0x0001
    23a6:	0000                	.insn	2, 0x0000
    23a8:	0001                	.insn	2, 0x0001
    23aa:	0000                	.insn	2, 0x0000
    23ac:	0000                	.insn	2, 0x0000
    23ae:	0000                	.insn	2, 0x0000
    23b0:	0001                	.insn	2, 0x0001
	...
    23de:	0000                	.insn	2, 0x0000
    23e0:	0002                	.insn	2, 0x0002
    23e2:	0000                	.insn	2, 0x0000
    23e4:	0002                	.insn	2, 0x0002
    23e6:	0000                	.insn	2, 0x0000
    23e8:	0002                	.insn	2, 0x0002
    23ea:	0000                	.insn	2, 0x0000
    23ec:	0002                	.insn	2, 0x0002
    23ee:	0000                	.insn	2, 0x0000
    23f0:	0002                	.insn	2, 0x0002
    23f2:	0000                	.insn	2, 0x0000
    23f4:	0002                	.insn	2, 0x0002
    23f6:	0000                	.insn	2, 0x0000
    23f8:	0002                	.insn	2, 0x0002
    23fa:	0000                	.insn	2, 0x0000
    23fc:	0002                	.insn	2, 0x0002
    23fe:	0000                	.insn	2, 0x0000
    2400:	0002                	.insn	2, 0x0002
    2402:	0000                	.insn	2, 0x0000
    2404:	0002                	.insn	2, 0x0002
    2406:	0000                	.insn	2, 0x0000
    2408:	0002                	.insn	2, 0x0002
    240a:	0000                	.insn	2, 0x0000
    240c:	0006                	.insn	2, 0x0006
    240e:	0000                	.insn	2, 0x0000
    2410:	0000                	.insn	2, 0x0000
    2412:	0000                	.insn	2, 0x0000
    2414:	0005                	.insn	2, 0x0005
    2416:	0000                	.insn	2, 0x0000
    2418:	0006                	.insn	2, 0x0006
    241a:	0000                	.insn	2, 0x0000
    241c:	0000                	.insn	2, 0x0000
    241e:	0000                	.insn	2, 0x0000
    2420:	00000003          	lb	zero,0(zero) # 0 <_isr_handler>
    2424:	0002                	.insn	2, 0x0002
    2426:	0000                	.insn	2, 0x0000
    2428:	0002                	.insn	2, 0x0002
    242a:	0000                	.insn	2, 0x0000
    242c:	0002                	.insn	2, 0x0002
    242e:	0000                	.insn	2, 0x0000
    2430:	0002                	.insn	2, 0x0002
    2432:	0000                	.insn	2, 0x0000
    2434:	0002                	.insn	2, 0x0002
    2436:	0000                	.insn	2, 0x0000
    2438:	0002                	.insn	2, 0x0002
    243a:	0000                	.insn	2, 0x0000
    243c:	0004                	.insn	2, 0x0004
    243e:	0000                	.insn	2, 0x0000
    2440:	0000                	.insn	2, 0x0000
    2442:	0000                	.insn	2, 0x0000
    2444:	0005                	.insn	2, 0x0005
    2446:	0000                	.insn	2, 0x0000
    2448:	0006                	.insn	2, 0x0006
    244a:	0000                	.insn	2, 0x0000
    244c:	0000                	.insn	2, 0x0000
    244e:	0000                	.insn	2, 0x0000
    2450:	0005                	.insn	2, 0x0005
    2452:	0000                	.insn	2, 0x0000
    2454:	0002                	.insn	2, 0x0002
    2456:	0000                	.insn	2, 0x0000
    2458:	0002                	.insn	2, 0x0002
    245a:	0000                	.insn	2, 0x0000
    245c:	0002                	.insn	2, 0x0002
    245e:	0000                	.insn	2, 0x0000
    2460:	0002                	.insn	2, 0x0002
    2462:	0000                	.insn	2, 0x0000
    2464:	0002                	.insn	2, 0x0002
    2466:	0000                	.insn	2, 0x0000
    2468:	0002                	.insn	2, 0x0002
    246a:	0000                	.insn	2, 0x0000
    246c:	0002                	.insn	2, 0x0002
    246e:	0000                	.insn	2, 0x0000
    2470:	0002                	.insn	2, 0x0002
    2472:	0000                	.insn	2, 0x0000
    2474:	0002                	.insn	2, 0x0002
    2476:	0000                	.insn	2, 0x0000
    2478:	0002                	.insn	2, 0x0002
    247a:	0000                	.insn	2, 0x0000
    247c:	0002                	.insn	2, 0x0002
	...
    24be:	0000                	.insn	2, 0x0000
    24c0:	0001                	.insn	2, 0x0001
	...
    24da:	0000                	.insn	2, 0x0000
    24dc:	0001                	.insn	2, 0x0001
	...
    251e:	0000                	.insn	2, 0x0000
    2520:	0002                	.insn	2, 0x0002
    2522:	0000                	.insn	2, 0x0000
    2524:	0002                	.insn	2, 0x0002
    2526:	0000                	.insn	2, 0x0000
    2528:	0002                	.insn	2, 0x0002
    252a:	0000                	.insn	2, 0x0000
    252c:	0002                	.insn	2, 0x0002
    252e:	0000                	.insn	2, 0x0000
    2530:	0002                	.insn	2, 0x0002
    2532:	0000                	.insn	2, 0x0000
    2534:	0002                	.insn	2, 0x0002
    2536:	0000                	.insn	2, 0x0000
    2538:	0002                	.insn	2, 0x0002
    253a:	0000                	.insn	2, 0x0000
    253c:	0002                	.insn	2, 0x0002
    253e:	0000                	.insn	2, 0x0000
    2540:	0002                	.insn	2, 0x0002
    2542:	0000                	.insn	2, 0x0000
    2544:	0002                	.insn	2, 0x0002
    2546:	0000                	.insn	2, 0x0000
    2548:	0002                	.insn	2, 0x0002
    254a:	0000                	.insn	2, 0x0000
    254c:	0004                	.insn	2, 0x0004
    254e:	0000                	.insn	2, 0x0000
    2550:	0000                	.insn	2, 0x0000
    2552:	0000                	.insn	2, 0x0000
    2554:	00000003          	lb	zero,0(zero) # 0 <_isr_handler>
    2558:	0004                	.insn	2, 0x0004
    255a:	0000                	.insn	2, 0x0000
    255c:	0000                	.insn	2, 0x0000
    255e:	0000                	.insn	2, 0x0000
    2560:	0005                	.insn	2, 0x0005
    2562:	0000                	.insn	2, 0x0000
    2564:	0002                	.insn	2, 0x0002
    2566:	0000                	.insn	2, 0x0000
    2568:	0002                	.insn	2, 0x0002
    256a:	0000                	.insn	2, 0x0000
    256c:	0002                	.insn	2, 0x0002
    256e:	0000                	.insn	2, 0x0000
    2570:	0002                	.insn	2, 0x0002
    2572:	0000                	.insn	2, 0x0000
    2574:	0002                	.insn	2, 0x0002
    2576:	0000                	.insn	2, 0x0000
    2578:	0002                	.insn	2, 0x0002
    257a:	0000                	.insn	2, 0x0000
    257c:	0006                	.insn	2, 0x0006
    257e:	0000                	.insn	2, 0x0000
    2580:	0000                	.insn	2, 0x0000
    2582:	0000                	.insn	2, 0x0000
    2584:	00000003          	lb	zero,0(zero) # 0 <_isr_handler>
    2588:	0004                	.insn	2, 0x0004
    258a:	0000                	.insn	2, 0x0000
    258c:	0000                	.insn	2, 0x0000
    258e:	0000                	.insn	2, 0x0000
    2590:	00000003          	lb	zero,0(zero) # 0 <_isr_handler>
    2594:	0002                	.insn	2, 0x0002
    2596:	0000                	.insn	2, 0x0000
    2598:	0002                	.insn	2, 0x0002
    259a:	0000                	.insn	2, 0x0000
    259c:	0002                	.insn	2, 0x0002
    259e:	0000                	.insn	2, 0x0000
    25a0:	0002                	.insn	2, 0x0002
    25a2:	0000                	.insn	2, 0x0000
    25a4:	0002                	.insn	2, 0x0002
    25a6:	0000                	.insn	2, 0x0000
    25a8:	0002                	.insn	2, 0x0002
    25aa:	0000                	.insn	2, 0x0000
    25ac:	0002                	.insn	2, 0x0002
    25ae:	0000                	.insn	2, 0x0000
    25b0:	0002                	.insn	2, 0x0002
    25b2:	0000                	.insn	2, 0x0000
    25b4:	0002                	.insn	2, 0x0002
    25b6:	0000                	.insn	2, 0x0000
    25b8:	0002                	.insn	2, 0x0002
    25ba:	0000                	.insn	2, 0x0000
    25bc:	0002                	.insn	2, 0x0002
	...
    25ea:	0000                	.insn	2, 0x0000
    25ec:	0001                	.insn	2, 0x0001
    25ee:	0000                	.insn	2, 0x0000
    25f0:	0000                	.insn	2, 0x0000
    25f2:	0000                	.insn	2, 0x0000
    25f4:	0001                	.insn	2, 0x0001
    25f6:	0000                	.insn	2, 0x0000
    25f8:	0001                	.insn	2, 0x0001
	...
    2622:	0000                	.insn	2, 0x0000
    2624:	0001                	.insn	2, 0x0001
    2626:	0000                	.insn	2, 0x0000
    2628:	0001                	.insn	2, 0x0001
    262a:	0000                	.insn	2, 0x0000
    262c:	0000                	.insn	2, 0x0000
    262e:	0000                	.insn	2, 0x0000
    2630:	0001                	.insn	2, 0x0001
	...
    268a:	0000                	.insn	2, 0x0000
    268c:	0001                	.insn	2, 0x0001
    268e:	0000                	.insn	2, 0x0000
    2690:	0000                	.insn	2, 0x0000
    2692:	0000                	.insn	2, 0x0000
    2694:	0001                	.insn	2, 0x0001
    2696:	0000                	.insn	2, 0x0000
    2698:	0001                	.insn	2, 0x0001
    269a:	0000                	.insn	2, 0x0000
    269c:	0000                	.insn	2, 0x0000
    269e:	0000                	.insn	2, 0x0000
    26a0:	00000003          	lb	zero,0(zero) # 0 <_isr_handler>
    26a4:	0002                	.insn	2, 0x0002
    26a6:	0000                	.insn	2, 0x0000
    26a8:	0002                	.insn	2, 0x0002
    26aa:	0000                	.insn	2, 0x0000
    26ac:	0002                	.insn	2, 0x0002
    26ae:	0000                	.insn	2, 0x0000
    26b0:	0002                	.insn	2, 0x0002
    26b2:	0000                	.insn	2, 0x0000
    26b4:	0002                	.insn	2, 0x0002
    26b6:	0000                	.insn	2, 0x0000
    26b8:	0002                	.insn	2, 0x0002
    26ba:	0000                	.insn	2, 0x0000
    26bc:	0004                	.insn	2, 0x0004
    26be:	0000                	.insn	2, 0x0000
    26c0:	0000                	.insn	2, 0x0000
    26c2:	0000                	.insn	2, 0x0000
    26c4:	0001                	.insn	2, 0x0001
    26c6:	0000                	.insn	2, 0x0000
    26c8:	0001                	.insn	2, 0x0001
    26ca:	0000                	.insn	2, 0x0000
    26cc:	0000                	.insn	2, 0x0000
    26ce:	0000                	.insn	2, 0x0000
    26d0:	0001                	.insn	2, 0x0001
	...
    2716:	0000                	.insn	2, 0x0000
    2718:	00000003          	lb	zero,0(zero) # 0 <_isr_handler>
    271c:	0002                	.insn	2, 0x0002
    271e:	0000                	.insn	2, 0x0000
    2720:	0002                	.insn	2, 0x0002
    2722:	0000                	.insn	2, 0x0000
    2724:	0002                	.insn	2, 0x0002
    2726:	0000                	.insn	2, 0x0000
    2728:	0002                	.insn	2, 0x0002
    272a:	0000                	.insn	2, 0x0000
    272c:	0006                	.insn	2, 0x0006
    272e:	0000                	.insn	2, 0x0000
    2730:	0000                	.insn	2, 0x0000
    2732:	0000                	.insn	2, 0x0000
    2734:	0005                	.insn	2, 0x0005
    2736:	0000                	.insn	2, 0x0000
    2738:	0006                	.insn	2, 0x0006
    273a:	0000                	.insn	2, 0x0000
    273c:	0000                	.insn	2, 0x0000
    273e:	0000                	.insn	2, 0x0000
    2740:	0005                	.insn	2, 0x0005
    2742:	0000                	.insn	2, 0x0000
    2744:	0002                	.insn	2, 0x0002
    2746:	0000                	.insn	2, 0x0000
    2748:	0002                	.insn	2, 0x0002
    274a:	0000                	.insn	2, 0x0000
    274c:	0004                	.insn	2, 0x0004
    274e:	0000                	.insn	2, 0x0000
    2750:	00000003          	lb	zero,0(zero) # 0 <_isr_handler>
    2754:	0002                	.insn	2, 0x0002
    2756:	0000                	.insn	2, 0x0000
    2758:	0002                	.insn	2, 0x0002
    275a:	0000                	.insn	2, 0x0000
    275c:	0006                	.insn	2, 0x0006
    275e:	0000                	.insn	2, 0x0000
    2760:	0000                	.insn	2, 0x0000
    2762:	0000                	.insn	2, 0x0000
    2764:	0005                	.insn	2, 0x0005
    2766:	0000                	.insn	2, 0x0000
    2768:	0006                	.insn	2, 0x0006
    276a:	0000                	.insn	2, 0x0000
    276c:	0000                	.insn	2, 0x0000
    276e:	0000                	.insn	2, 0x0000
    2770:	0005                	.insn	2, 0x0005
    2772:	0000                	.insn	2, 0x0000
    2774:	0002                	.insn	2, 0x0002
    2776:	0000                	.insn	2, 0x0000
    2778:	0002                	.insn	2, 0x0002
    277a:	0000                	.insn	2, 0x0000
    277c:	0002                	.insn	2, 0x0002
    277e:	0000                	.insn	2, 0x0000
    2780:	0002                	.insn	2, 0x0002
    2782:	0000                	.insn	2, 0x0000
    2784:	0004                	.insn	2, 0x0004
	...
    27b6:	0000                	.insn	2, 0x0000
    27b8:	0001                	.insn	2, 0x0001
	...
    27ea:	0000                	.insn	2, 0x0000
    27ec:	0001                	.insn	2, 0x0001
    27ee:	0000                	.insn	2, 0x0000
    27f0:	0001                	.insn	2, 0x0001
	...
    2822:	0000                	.insn	2, 0x0000
    2824:	0001                	.insn	2, 0x0001
	...
    2856:	0000                	.insn	2, 0x0000
    2858:	0001                	.insn	2, 0x0001
    285a:	0000                	.insn	2, 0x0000
    285c:	0000                	.insn	2, 0x0000
    285e:	0000                	.insn	2, 0x0000
    2860:	00000003          	lb	zero,0(zero) # 0 <_isr_handler>
    2864:	0002                	.insn	2, 0x0002
    2866:	0000                	.insn	2, 0x0000
    2868:	0002                	.insn	2, 0x0002
    286a:	0000                	.insn	2, 0x0000
    286c:	0004                	.insn	2, 0x0004
    286e:	0000                	.insn	2, 0x0000
    2870:	0000                	.insn	2, 0x0000
    2872:	0000                	.insn	2, 0x0000
    2874:	00000003          	lb	zero,0(zero) # 0 <_isr_handler>
    2878:	0002                	.insn	2, 0x0002
    287a:	0000                	.insn	2, 0x0000
    287c:	0002                	.insn	2, 0x0002
    287e:	0000                	.insn	2, 0x0000
    2880:	0002                	.insn	2, 0x0002
    2882:	0000                	.insn	2, 0x0000
    2884:	0004                	.insn	2, 0x0004
    2886:	0000                	.insn	2, 0x0000
    2888:	0000                	.insn	2, 0x0000
    288a:	0000                	.insn	2, 0x0000
    288c:	0001                	.insn	2, 0x0001
    288e:	0000                	.insn	2, 0x0000
    2890:	0001                	.insn	2, 0x0001
    2892:	0000                	.insn	2, 0x0000
    2894:	0000                	.insn	2, 0x0000
    2896:	0000                	.insn	2, 0x0000
    2898:	00000003          	lb	zero,0(zero) # 0 <_isr_handler>
    289c:	0002                	.insn	2, 0x0002
    289e:	0000                	.insn	2, 0x0000
    28a0:	0002                	.insn	2, 0x0002
    28a2:	0000                	.insn	2, 0x0000
    28a4:	0002                	.insn	2, 0x0002
    28a6:	0000                	.insn	2, 0x0000
    28a8:	0004                	.insn	2, 0x0004
    28aa:	0000                	.insn	2, 0x0000
    28ac:	0000                	.insn	2, 0x0000
    28ae:	0000                	.insn	2, 0x0000
    28b0:	00000003          	lb	zero,0(zero) # 0 <_isr_handler>
    28b4:	0002                	.insn	2, 0x0002
    28b6:	0000                	.insn	2, 0x0000
    28b8:	0002                	.insn	2, 0x0002
    28ba:	0000                	.insn	2, 0x0000
    28bc:	0004                	.insn	2, 0x0004
    28be:	0000                	.insn	2, 0x0000
    28c0:	0000                	.insn	2, 0x0000
    28c2:	0000                	.insn	2, 0x0000
    28c4:	0001                	.insn	2, 0x0001
	...
    28f6:	0000                	.insn	2, 0x0000
    28f8:	0001                	.insn	2, 0x0001
    28fa:	0000                	.insn	2, 0x0000
    28fc:	0000                	.insn	2, 0x0000
    28fe:	0000                	.insn	2, 0x0000
    2900:	0005                	.insn	2, 0x0005
    2902:	0000                	.insn	2, 0x0000
    2904:	0002                	.insn	2, 0x0002
    2906:	0000                	.insn	2, 0x0000
    2908:	0004                	.insn	2, 0x0004
    290a:	0000                	.insn	2, 0x0000
    290c:	0001                	.insn	2, 0x0001
    290e:	0000                	.insn	2, 0x0000
    2910:	0000                	.insn	2, 0x0000
    2912:	0000                	.insn	2, 0x0000
    2914:	0005                	.insn	2, 0x0005
    2916:	0000                	.insn	2, 0x0000
    2918:	0002                	.insn	2, 0x0002
    291a:	0000                	.insn	2, 0x0000
    291c:	0002                	.insn	2, 0x0002
    291e:	0000                	.insn	2, 0x0000
    2920:	0002                	.insn	2, 0x0002
    2922:	0000                	.insn	2, 0x0000
    2924:	0006                	.insn	2, 0x0006
    2926:	0000                	.insn	2, 0x0000
    2928:	0000                	.insn	2, 0x0000
    292a:	0000                	.insn	2, 0x0000
    292c:	0005                	.insn	2, 0x0005
    292e:	0000                	.insn	2, 0x0000
    2930:	0006                	.insn	2, 0x0006
    2932:	0000                	.insn	2, 0x0000
    2934:	0000                	.insn	2, 0x0000
    2936:	0000                	.insn	2, 0x0000
    2938:	0005                	.insn	2, 0x0005
    293a:	0000                	.insn	2, 0x0000
    293c:	0002                	.insn	2, 0x0002
    293e:	0000                	.insn	2, 0x0000
    2940:	0002                	.insn	2, 0x0002
    2942:	0000                	.insn	2, 0x0000
    2944:	0002                	.insn	2, 0x0002
    2946:	0000                	.insn	2, 0x0000
    2948:	0006                	.insn	2, 0x0006
    294a:	0000                	.insn	2, 0x0000
    294c:	0000                	.insn	2, 0x0000
    294e:	0000                	.insn	2, 0x0000
    2950:	0001                	.insn	2, 0x0001
    2952:	0000                	.insn	2, 0x0000
    2954:	00000003          	lb	zero,0(zero) # 0 <_isr_handler>
    2958:	0002                	.insn	2, 0x0002
    295a:	0000                	.insn	2, 0x0000
    295c:	0006                	.insn	2, 0x0006
    295e:	0000                	.insn	2, 0x0000
    2960:	0000                	.insn	2, 0x0000
    2962:	0000                	.insn	2, 0x0000
    2964:	0001                	.insn	2, 0x0001
	...
    2996:	0000                	.insn	2, 0x0000
    2998:	0001                	.insn	2, 0x0001
	...
    29a6:	0000                	.insn	2, 0x0000
    29a8:	0001                	.insn	2, 0x0001
    29aa:	0000                	.insn	2, 0x0000
    29ac:	0001                	.insn	2, 0x0001
	...
    29ee:	0000                	.insn	2, 0x0000
    29f0:	0001                	.insn	2, 0x0001
    29f2:	0000                	.insn	2, 0x0000
    29f4:	0001                	.insn	2, 0x0001
	...
    2a02:	0000                	.insn	2, 0x0000
    2a04:	0001                	.insn	2, 0x0001
	...
    2a36:	0000                	.insn	2, 0x0000
    2a38:	0005                	.insn	2, 0x0005
    2a3a:	0000                	.insn	2, 0x0000
    2a3c:	0002                	.insn	2, 0x0002
    2a3e:	0000                	.insn	2, 0x0000
    2a40:	0004                	.insn	2, 0x0004
    2a42:	0000                	.insn	2, 0x0000
    2a44:	0000                	.insn	2, 0x0000
    2a46:	0000                	.insn	2, 0x0000
    2a48:	0001                	.insn	2, 0x0001
    2a4a:	0000                	.insn	2, 0x0000
    2a4c:	0001                	.insn	2, 0x0001
    2a4e:	0000                	.insn	2, 0x0000
    2a50:	0000                	.insn	2, 0x0000
    2a52:	0000                	.insn	2, 0x0000
    2a54:	00000003          	lb	zero,0(zero) # 0 <_isr_handler>
    2a58:	0004                	.insn	2, 0x0004
    2a5a:	0000                	.insn	2, 0x0000
    2a5c:	0000                	.insn	2, 0x0000
    2a5e:	0000                	.insn	2, 0x0000
    2a60:	00000003          	lb	zero,0(zero) # 0 <_isr_handler>
    2a64:	0002                	.insn	2, 0x0002
    2a66:	0000                	.insn	2, 0x0000
    2a68:	0002                	.insn	2, 0x0002
    2a6a:	0000                	.insn	2, 0x0000
    2a6c:	0002                	.insn	2, 0x0002
    2a6e:	0000                	.insn	2, 0x0000
    2a70:	0002                	.insn	2, 0x0002
    2a72:	0000                	.insn	2, 0x0000
    2a74:	0002                	.insn	2, 0x0002
    2a76:	0000                	.insn	2, 0x0000
    2a78:	0002                	.insn	2, 0x0002
    2a7a:	0000                	.insn	2, 0x0000
    2a7c:	0004                	.insn	2, 0x0004
    2a7e:	0000                	.insn	2, 0x0000
    2a80:	0000                	.insn	2, 0x0000
    2a82:	0000                	.insn	2, 0x0000
    2a84:	00000003          	lb	zero,0(zero) # 0 <_isr_handler>
    2a88:	0004                	.insn	2, 0x0004
    2a8a:	0000                	.insn	2, 0x0000
    2a8c:	0000                	.insn	2, 0x0000
    2a8e:	0000                	.insn	2, 0x0000
    2a90:	0001                	.insn	2, 0x0001
    2a92:	0000                	.insn	2, 0x0000
    2a94:	0001                	.insn	2, 0x0001
    2a96:	0000                	.insn	2, 0x0000
    2a98:	0000                	.insn	2, 0x0000
    2a9a:	0000                	.insn	2, 0x0000
    2a9c:	00000003          	lb	zero,0(zero) # 0 <_isr_handler>
    2aa0:	0002                	.insn	2, 0x0002
    2aa2:	0000                	.insn	2, 0x0000
    2aa4:	0006                	.insn	2, 0x0006
	...
    2ad6:	0000                	.insn	2, 0x0000
    2ad8:	00000003          	lb	zero,0(zero) # 0 <_isr_handler>
    2adc:	0002                	.insn	2, 0x0002
    2ade:	0000                	.insn	2, 0x0000
    2ae0:	0006                	.insn	2, 0x0006
    2ae2:	0000                	.insn	2, 0x0000
    2ae4:	0000                	.insn	2, 0x0000
    2ae6:	0000                	.insn	2, 0x0000
    2ae8:	0005                	.insn	2, 0x0005
    2aea:	0000                	.insn	2, 0x0000
    2aec:	0006                	.insn	2, 0x0006
    2aee:	0000                	.insn	2, 0x0000
    2af0:	0000                	.insn	2, 0x0000
    2af2:	0000                	.insn	2, 0x0000
    2af4:	0001                	.insn	2, 0x0001
    2af6:	0000                	.insn	2, 0x0000
    2af8:	0001                	.insn	2, 0x0001
    2afa:	0000                	.insn	2, 0x0000
    2afc:	0000                	.insn	2, 0x0000
    2afe:	0000                	.insn	2, 0x0000
    2b00:	0005                	.insn	2, 0x0005
    2b02:	0000                	.insn	2, 0x0000
    2b04:	0002                	.insn	2, 0x0002
    2b06:	0000                	.insn	2, 0x0000
    2b08:	0002                	.insn	2, 0x0002
    2b0a:	0000                	.insn	2, 0x0000
    2b0c:	0004                	.insn	2, 0x0004
    2b0e:	0000                	.insn	2, 0x0000
    2b10:	00000003          	lb	zero,0(zero) # 0 <_isr_handler>
    2b14:	0002                	.insn	2, 0x0002
    2b16:	0000                	.insn	2, 0x0000
    2b18:	0002                	.insn	2, 0x0002
    2b1a:	0000                	.insn	2, 0x0000
    2b1c:	0006                	.insn	2, 0x0006
    2b1e:	0000                	.insn	2, 0x0000
    2b20:	0000                	.insn	2, 0x0000
    2b22:	0000                	.insn	2, 0x0000
    2b24:	0001                	.insn	2, 0x0001
    2b26:	0000                	.insn	2, 0x0000
    2b28:	0001                	.insn	2, 0x0001
    2b2a:	0000                	.insn	2, 0x0000
    2b2c:	0000                	.insn	2, 0x0000
    2b2e:	0000                	.insn	2, 0x0000
    2b30:	0005                	.insn	2, 0x0005
    2b32:	0000                	.insn	2, 0x0000
    2b34:	0006                	.insn	2, 0x0006
    2b36:	0000                	.insn	2, 0x0000
    2b38:	0000                	.insn	2, 0x0000
    2b3a:	0000                	.insn	2, 0x0000
    2b3c:	0005                	.insn	2, 0x0005
    2b3e:	0000                	.insn	2, 0x0000
    2b40:	0002                	.insn	2, 0x0002
    2b42:	0000                	.insn	2, 0x0000
    2b44:	0004                	.insn	2, 0x0004
	...
    2b76:	0000                	.insn	2, 0x0000
    2b78:	0001                	.insn	2, 0x0001
	...
    2b92:	0000                	.insn	2, 0x0000
    2b94:	0001                	.insn	2, 0x0001
    2b96:	0000                	.insn	2, 0x0000
    2b98:	0001                	.insn	2, 0x0001
	...
    2baa:	0000                	.insn	2, 0x0000
    2bac:	0001                	.insn	2, 0x0001
    2bae:	0000                	.insn	2, 0x0000
    2bb0:	0001                	.insn	2, 0x0001
	...
    2bc2:	0000                	.insn	2, 0x0000
    2bc4:	0001                	.insn	2, 0x0001
    2bc6:	0000                	.insn	2, 0x0000
    2bc8:	0001                	.insn	2, 0x0001
	...
    2be2:	0000                	.insn	2, 0x0000
    2be4:	0001                	.insn	2, 0x0001
	...
    2c16:	0000                	.insn	2, 0x0000
    2c18:	0001                	.insn	2, 0x0001
    2c1a:	0000                	.insn	2, 0x0000
    2c1c:	0000                	.insn	2, 0x0000
    2c1e:	0000                	.insn	2, 0x0000
    2c20:	00000003          	lb	zero,0(zero) # 0 <_isr_handler>
    2c24:	0002                	.insn	2, 0x0002
    2c26:	0000                	.insn	2, 0x0000
    2c28:	0002                	.insn	2, 0x0002
    2c2a:	0000                	.insn	2, 0x0000
    2c2c:	0002                	.insn	2, 0x0002
    2c2e:	0000                	.insn	2, 0x0000
    2c30:	0002                	.insn	2, 0x0002
    2c32:	0000                	.insn	2, 0x0000
    2c34:	0006                	.insn	2, 0x0006
    2c36:	0000                	.insn	2, 0x0000
    2c38:	0005                	.insn	2, 0x0005
    2c3a:	0000                	.insn	2, 0x0000
    2c3c:	0002                	.insn	2, 0x0002
    2c3e:	0000                	.insn	2, 0x0000
    2c40:	0002                	.insn	2, 0x0002
    2c42:	0000                	.insn	2, 0x0000
    2c44:	0004                	.insn	2, 0x0004
    2c46:	0000                	.insn	2, 0x0000
    2c48:	0000                	.insn	2, 0x0000
    2c4a:	0000                	.insn	2, 0x0000
    2c4c:	0001                	.insn	2, 0x0001
    2c4e:	0000                	.insn	2, 0x0000
    2c50:	0001                	.insn	2, 0x0001
    2c52:	0000                	.insn	2, 0x0000
    2c54:	0000                	.insn	2, 0x0000
    2c56:	0000                	.insn	2, 0x0000
    2c58:	00000003          	lb	zero,0(zero) # 0 <_isr_handler>
    2c5c:	0002                	.insn	2, 0x0002
    2c5e:	0000                	.insn	2, 0x0000
    2c60:	0002                	.insn	2, 0x0002
    2c62:	0000                	.insn	2, 0x0000
    2c64:	0006                	.insn	2, 0x0006
    2c66:	0000                	.insn	2, 0x0000
    2c68:	0005                	.insn	2, 0x0005
    2c6a:	0000                	.insn	2, 0x0000
    2c6c:	0002                	.insn	2, 0x0002
    2c6e:	0000                	.insn	2, 0x0000
    2c70:	0002                	.insn	2, 0x0002
    2c72:	0000                	.insn	2, 0x0000
    2c74:	0002                	.insn	2, 0x0002
    2c76:	0000                	.insn	2, 0x0000
    2c78:	0002                	.insn	2, 0x0002
    2c7a:	0000                	.insn	2, 0x0000
    2c7c:	0004                	.insn	2, 0x0004
    2c7e:	0000                	.insn	2, 0x0000
    2c80:	0000                	.insn	2, 0x0000
    2c82:	0000                	.insn	2, 0x0000
    2c84:	0001                	.insn	2, 0x0001
	...
    2cb6:	0000                	.insn	2, 0x0000
    2cb8:	0001                	.insn	2, 0x0001
    2cba:	0000                	.insn	2, 0x0000
    2cbc:	0000                	.insn	2, 0x0000
    2cbe:	0000                	.insn	2, 0x0000
    2cc0:	0005                	.insn	2, 0x0005
    2cc2:	0000                	.insn	2, 0x0000
    2cc4:	0002                	.insn	2, 0x0002
    2cc6:	0000                	.insn	2, 0x0000
    2cc8:	0002                	.insn	2, 0x0002
    2cca:	0000                	.insn	2, 0x0000
    2ccc:	0002                	.insn	2, 0x0002
    2cce:	0000                	.insn	2, 0x0000
    2cd0:	0002                	.insn	2, 0x0002
    2cd2:	0000                	.insn	2, 0x0000
    2cd4:	0002                	.insn	2, 0x0002
    2cd6:	0000                	.insn	2, 0x0000
    2cd8:	0002                	.insn	2, 0x0002
    2cda:	0000                	.insn	2, 0x0000
    2cdc:	0002                	.insn	2, 0x0002
    2cde:	0000                	.insn	2, 0x0000
    2ce0:	0002                	.insn	2, 0x0002
    2ce2:	0000                	.insn	2, 0x0000
    2ce4:	0006                	.insn	2, 0x0006
    2ce6:	0000                	.insn	2, 0x0000
    2ce8:	0000                	.insn	2, 0x0000
    2cea:	0000                	.insn	2, 0x0000
    2cec:	0005                	.insn	2, 0x0005
    2cee:	0000                	.insn	2, 0x0000
    2cf0:	0006                	.insn	2, 0x0006
    2cf2:	0000                	.insn	2, 0x0000
    2cf4:	0000                	.insn	2, 0x0000
    2cf6:	0000                	.insn	2, 0x0000
    2cf8:	0005                	.insn	2, 0x0005
    2cfa:	0000                	.insn	2, 0x0000
    2cfc:	0002                	.insn	2, 0x0002
    2cfe:	0000                	.insn	2, 0x0000
    2d00:	0002                	.insn	2, 0x0002
    2d02:	0000                	.insn	2, 0x0000
    2d04:	0002                	.insn	2, 0x0002
    2d06:	0000                	.insn	2, 0x0000
    2d08:	0002                	.insn	2, 0x0002
    2d0a:	0000                	.insn	2, 0x0000
    2d0c:	0002                	.insn	2, 0x0002
    2d0e:	0000                	.insn	2, 0x0000
    2d10:	0002                	.insn	2, 0x0002
    2d12:	0000                	.insn	2, 0x0000
    2d14:	0002                	.insn	2, 0x0002
    2d16:	0000                	.insn	2, 0x0000
    2d18:	0002                	.insn	2, 0x0002
    2d1a:	0000                	.insn	2, 0x0000
    2d1c:	0006                	.insn	2, 0x0006
    2d1e:	0000                	.insn	2, 0x0000
    2d20:	0000                	.insn	2, 0x0000
    2d22:	0000                	.insn	2, 0x0000
    2d24:	0001                	.insn	2, 0x0001
	...
    2d56:	0000                	.insn	2, 0x0000
    2d58:	0001                	.insn	2, 0x0001
	...
    2dc2:	0000                	.insn	2, 0x0000
    2dc4:	0001                	.insn	2, 0x0001
	...
    2df6:	0000                	.insn	2, 0x0000
    2df8:	0005                	.insn	2, 0x0005
    2dfa:	0000                	.insn	2, 0x0000
    2dfc:	0002                	.insn	2, 0x0002
    2dfe:	0000                	.insn	2, 0x0000
    2e00:	0002                	.insn	2, 0x0002
    2e02:	0000                	.insn	2, 0x0000
    2e04:	0002                	.insn	2, 0x0002
    2e06:	0000                	.insn	2, 0x0000
    2e08:	0002                	.insn	2, 0x0002
    2e0a:	0000                	.insn	2, 0x0000
    2e0c:	0002                	.insn	2, 0x0002
    2e0e:	0000                	.insn	2, 0x0000
    2e10:	0002                	.insn	2, 0x0002
    2e12:	0000                	.insn	2, 0x0000
    2e14:	0002                	.insn	2, 0x0002
    2e16:	0000                	.insn	2, 0x0000
    2e18:	0002                	.insn	2, 0x0002
    2e1a:	0000                	.insn	2, 0x0000
    2e1c:	0002                	.insn	2, 0x0002
    2e1e:	0000                	.insn	2, 0x0000
    2e20:	0002                	.insn	2, 0x0002
    2e22:	0000                	.insn	2, 0x0000
    2e24:	0002                	.insn	2, 0x0002
    2e26:	0000                	.insn	2, 0x0000
    2e28:	0002                	.insn	2, 0x0002
    2e2a:	0000                	.insn	2, 0x0000
    2e2c:	0002                	.insn	2, 0x0002
    2e2e:	0000                	.insn	2, 0x0000
    2e30:	0002                	.insn	2, 0x0002
    2e32:	0000                	.insn	2, 0x0000
    2e34:	0002                	.insn	2, 0x0002
    2e36:	0000                	.insn	2, 0x0000
    2e38:	0002                	.insn	2, 0x0002
    2e3a:	0000                	.insn	2, 0x0000
    2e3c:	0002                	.insn	2, 0x0002
    2e3e:	0000                	.insn	2, 0x0000
    2e40:	0002                	.insn	2, 0x0002
    2e42:	0000                	.insn	2, 0x0000
    2e44:	0002                	.insn	2, 0x0002
    2e46:	0000                	.insn	2, 0x0000
    2e48:	0002                	.insn	2, 0x0002
    2e4a:	0000                	.insn	2, 0x0000
    2e4c:	0002                	.insn	2, 0x0002
    2e4e:	0000                	.insn	2, 0x0000
    2e50:	0002                	.insn	2, 0x0002
    2e52:	0000                	.insn	2, 0x0000
    2e54:	0002                	.insn	2, 0x0002
    2e56:	0000                	.insn	2, 0x0000
    2e58:	0002                	.insn	2, 0x0002
    2e5a:	0000                	.insn	2, 0x0000
    2e5c:	0002                	.insn	2, 0x0002
    2e5e:	0000                	.insn	2, 0x0000
    2e60:	0002                	.insn	2, 0x0002
    2e62:	0000                	.insn	2, 0x0000
    2e64:	0006                	.insn	2, 0x0006
	...

00002e80 <vga_buffer>:
    2e80:	0000                	.insn	2, 0x0000
    2e82:	0800                	.insn	2, 0x0800

00002e84 <next_random>:
    2e84:	0001                	.insn	2, 0x0001
	...

00002e88 <timer>:
    2e88:	0020                	.insn	2, 0x0020
    2e8a:	0400                	.insn	2, 0x0400

00002e8c <CLOCK_SPEED>:
    2e8c:	c380                	.insn	2, 0xc380
    2e8e:	01c9                	.insn	2, 0x01c9

Disassembly of section .rodata:

00002ecc <.rodata>:
    2ecc:	0ee0                	.insn	2, 0x0ee0
    2ece:	0000                	.insn	2, 0x0000
    2ed0:	0f74                	.insn	2, 0x0f74
    2ed2:	0000                	.insn	2, 0x0000
    2ed4:	1120                	.insn	2, 0x1120
    2ed6:	0000                	.insn	2, 0x0000
    2ed8:	12dc                	.insn	2, 0x12dc
    2eda:	0000                	.insn	2, 0x0000
    2edc:	14f8                	.insn	2, 0x14f8
    2ede:	0000                	.insn	2, 0x0000
    2ee0:	07d0                	.insn	2, 0x07d0
    2ee2:	0000                	.insn	2, 0x0000
    2ee4:	0c54                	.insn	2, 0x0c54
	...

Disassembly of section .comment:

00000000 <.comment>:
   0:	3a434347          	.insn	4, 0x3a434347
   4:	2820                	.insn	2, 0x2820
   6:	33623167          	.insn	4, 0x33623167
   a:	3630                	.insn	2, 0x3630
   c:	3330                	.insn	2, 0x3330
   e:	6139                	.insn	2, 0x6139
  10:	2029                	.insn	2, 0x2029
  12:	3531                	.insn	2, 0x3531
  14:	312e                	.insn	2, 0x312e
  16:	302e                	.insn	2, 0x302e
	...

Disassembly of section .riscv.attributes:

00000000 <.riscv.attributes>:
   0:	3641                	.insn	2, 0x3641
   2:	0000                	.insn	2, 0x0000
   4:	7200                	.insn	2, 0x7200
   6:	7369                	.insn	2, 0x7369
   8:	01007663          	bgeu	zero,a6,14 <_isr_routine+0xc>
   c:	002c                	.insn	2, 0x002c
   e:	0000                	.insn	2, 0x0000
  10:	1004                	.insn	2, 0x1004
  12:	7205                	.insn	2, 0x7205
  14:	3376                	.insn	2, 0x3376
  16:	6932                	.insn	2, 0x6932
  18:	7032                	.insn	2, 0x7032
  1a:	5f31                	.insn	2, 0x5f31
  1c:	326d                	.insn	2, 0x326d
  1e:	3070                	.insn	2, 0x3070
  20:	7a5f 6369 7273      	.insn	6, 0x727363697a5f
  26:	7032                	.insn	2, 0x7032
  28:	5f30                	.insn	2, 0x5f30
  2a:	6d7a                	.insn	2, 0x6d7a
  2c:	756d                	.insn	2, 0x756d
  2e:	316c                	.insn	2, 0x316c
  30:	3070                	.insn	2, 0x3070
  32:	0800                	.insn	2, 0x0800
  34:	0a01                	.insn	2, 0x0a01
  36:	0b                	.byte	0x0b
