
main.elf:     file format elf32-littleriscv


Disassembly of section .text:

00000000 <_isr_handler>:
       0:	0080006f          	j	8 <_isr_routine>
       4:	13c0006f          	j	140 <_start>

00000008 <_isr_routine>:
       8:	f8010113          	addi	sp,sp,-128
       c:	00112023          	sw	ra,0(sp)
      10:	00312423          	sw	gp,8(sp)
      14:	00412623          	sw	tp,12(sp)
      18:	00512823          	sw	t0,16(sp)
      1c:	00612a23          	sw	t1,20(sp)
      20:	00712c23          	sw	t2,24(sp)
      24:	00812e23          	sw	s0,28(sp)
      28:	02912023          	sw	s1,32(sp)
      2c:	02a12223          	sw	a0,36(sp)
      30:	02b12423          	sw	a1,40(sp)
      34:	02c12623          	sw	a2,44(sp)
      38:	02d12823          	sw	a3,48(sp)
      3c:	02e12a23          	sw	a4,52(sp)
      40:	02f12c23          	sw	a5,56(sp)
      44:	03012e23          	sw	a6,60(sp)
      48:	05112023          	sw	a7,64(sp)
      4c:	05212223          	sw	s2,68(sp)
      50:	05312423          	sw	s3,72(sp)
      54:	05412623          	sw	s4,76(sp)
      58:	05512823          	sw	s5,80(sp)
      5c:	05612a23          	sw	s6,84(sp)
      60:	05712c23          	sw	s7,88(sp)
      64:	05812e23          	sw	s8,92(sp)
      68:	07912023          	sw	s9,96(sp)
      6c:	07a12223          	sw	s10,100(sp)
      70:	07b12423          	sw	s11,104(sp)
      74:	07c12623          	sw	t3,108(sp)
      78:	07d12823          	sw	t4,112(sp)
      7c:	07e12a23          	sw	t5,116(sp)
      80:	07f12c23          	sw	t6,120(sp)
      84:	342022f3          	csrr	t0,mcause
      88:	80000337          	lui	t1,0x80000
      8c:	02536263          	bltu	t1,t0,b0 <external_irq>
      90:	00028833          	add	a6,t0,zero
      94:	00b00313          	li	t1,11
      98:	00628463          	beq	t0,t1,a0 <skip_init_args>
      9c:	34102573          	csrr	a0,mepc

000000a0 <skip_init_args>:
      a0:	341022f3          	csrr	t0,mepc
      a4:	00428293          	addi	t0,t0,4
      a8:	34129073          	csrw	mepc,t0
      ac:	0140006f          	j	c0 <restore>

000000b0 <external_irq>:
      b0:	800002b7          	lui	t0,0x80000
      b4:	fff28293          	addi	t0,t0,-1 # 7fffffff <_stack_end+0x7fefda4f>
      b8:	34202373          	csrr	t1,mcause
      bc:	0062f533          	and	a0,t0,t1

000000c0 <restore>:
      c0:	00012083          	lw	ra,0(sp)
      c4:	00812183          	lw	gp,8(sp)
      c8:	00c12203          	lw	tp,12(sp)
      cc:	01012283          	lw	t0,16(sp)
      d0:	01412303          	lw	t1,20(sp)
      d4:	01812383          	lw	t2,24(sp)
      d8:	01c12403          	lw	s0,28(sp)
      dc:	02012483          	lw	s1,32(sp)
      e0:	02412503          	lw	a0,36(sp)
      e4:	02812583          	lw	a1,40(sp)
      e8:	02c12603          	lw	a2,44(sp)
      ec:	03012683          	lw	a3,48(sp)
      f0:	03412703          	lw	a4,52(sp)
      f4:	03812783          	lw	a5,56(sp)
      f8:	03c12803          	lw	a6,60(sp)
      fc:	04012883          	lw	a7,64(sp)
     100:	04412903          	lw	s2,68(sp)
     104:	04812983          	lw	s3,72(sp)
     108:	04c12a03          	lw	s4,76(sp)
     10c:	05012a83          	lw	s5,80(sp)
     110:	05412b03          	lw	s6,84(sp)
     114:	05812b83          	lw	s7,88(sp)
     118:	05c12c03          	lw	s8,92(sp)
     11c:	06012c83          	lw	s9,96(sp)
     120:	06412d03          	lw	s10,100(sp)
     124:	06812d83          	lw	s11,104(sp)
     128:	06c12e03          	lw	t3,108(sp)
     12c:	07012e83          	lw	t4,112(sp)
     130:	07412f03          	lw	t5,116(sp)
     134:	07812f83          	lw	t6,120(sp)
     138:	08010113          	addi	sp,sp,128
     13c:	30200073          	mret

00000140 <_start>:
     140:	30401073          	csrw	mie,zero
     144:	00102117          	auipc	sp,0x102
     148:	46c10113          	addi	sp,sp,1132 # 1025b0 <_stack_end>
     14c:	00003197          	auipc	gp,0x3
     150:	c4418193          	addi	gp,gp,-956 # 2d90 <__global_pointer>
     154:	00001517          	auipc	a0,0x1
     158:	0e850513          	addi	a0,a0,232 # 123c <welcome_msg>
     15c:	00400893          	li	a7,4
     160:	00000073          	ecall
     164:	0c4010ef          	jal	1228 <main>

00000168 <loop>:
     168:	0000006f          	j	168 <loop>

0000016c <enable_interrupt>:
     16c:	30486073          	csrsi	mie,16
     170:	3001e073          	csrsi	mstatus,3
     174:	00008067          	ret

00000178 <set_gamemap>:
     178:	fe010113          	addi	sp,sp,-32
     17c:	01412423          	sw	s4,8(sp)
     180:	01512223          	sw	s5,4(sp)
     184:	00001a37          	lui	s4,0x1
     188:	00001ab7          	lui	s5,0x1
     18c:	2d0a0a13          	addi	s4,s4,720 # 12d0 <map>
     190:	2c0a8a93          	addi	s5,s5,704 # 12c0 <welcome_msg+0x84>
     194:	01212823          	sw	s2,16(sp)
     198:	01312623          	sw	s3,12(sp)
     19c:	00112e23          	sw	ra,28(sp)
     1a0:	00812c23          	sw	s0,24(sp)
     1a4:	00912a23          	sw	s1,20(sp)
     1a8:	015a0ab3          	add	s5,s4,s5
     1ac:	00000913          	li	s2,0
     1b0:	02800993          	li	s3,40
     1b4:	000a0493          	mv	s1,s4
     1b8:	00000413          	li	s0,0
     1bc:	0004a603          	lw	a2,0(s1)
     1c0:	00040513          	mv	a0,s0
     1c4:	00090593          	mv	a1,s2
     1c8:	00140413          	addi	s0,s0,1
     1cc:	09c000ef          	jal	268 <draw_tile>
     1d0:	00448493          	addi	s1,s1,4
     1d4:	ff3414e3          	bne	s0,s3,1bc <set_gamemap+0x44>
     1d8:	0a0a0a13          	addi	s4,s4,160
     1dc:	00190913          	addi	s2,s2,1
     1e0:	fd5a1ae3          	bne	s4,s5,1b4 <set_gamemap+0x3c>
     1e4:	01c12083          	lw	ra,28(sp)
     1e8:	01812403          	lw	s0,24(sp)
     1ec:	01412483          	lw	s1,20(sp)
     1f0:	01012903          	lw	s2,16(sp)
     1f4:	00c12983          	lw	s3,12(sp)
     1f8:	00812a03          	lw	s4,8(sp)
     1fc:	00412a83          	lw	s5,4(sp)
     200:	02010113          	addi	sp,sp,32
     204:	00008067          	ret

00000208 <vga_init>:
     208:	00013537          	lui	a0,0x13
     20c:	d4050513          	addi	a0,a0,-704 # 12d40 <__global_pointer+0xffb0>
     210:	14000693          	li	a3,320
     214:	00000593          	li	a1,0
     218:	00002637          	lui	a2,0x2
     21c:	00058793          	mv	a5,a1
     220:	59062703          	lw	a4,1424(a2) # 2590 <vga_buffer>
     224:	00f70733          	add	a4,a4,a5
     228:	00070023          	sb	zero,0(a4)
     22c:	00178793          	addi	a5,a5,1
     230:	fed798e3          	bne	a5,a3,220 <vga_init+0x18>
     234:	14078693          	addi	a3,a5,320
     238:	14058593          	addi	a1,a1,320
     23c:	fea690e3          	bne	a3,a0,21c <vga_init+0x14>
     240:	00008067          	ret

00000244 <set_pixel>:
     244:	00259793          	slli	a5,a1,0x2
     248:	00002737          	lui	a4,0x2
     24c:	00b785b3          	add	a1,a5,a1
     250:	59072783          	lw	a5,1424(a4) # 2590 <vga_buffer>
     254:	00659593          	slli	a1,a1,0x6
     258:	00a585b3          	add	a1,a1,a0
     25c:	00b787b3          	add	a5,a5,a1
     260:	00c78023          	sb	a2,0(a5)
     264:	00008067          	ret

00000268 <draw_tile>:
     268:	00600693          	li	a3,6
     26c:	76c6ece3          	bltu	a3,a2,11e4 <__heap_size+0x9e4>
     270:	000026b7          	lui	a3,0x2
     274:	59468693          	addi	a3,a3,1428 # 2594 <vga_buffer+0x4>
     278:	00261613          	slli	a2,a2,0x2
     27c:	00d60633          	add	a2,a2,a3
     280:	00062683          	lw	a3,0(a2)
     284:	fc010113          	addi	sp,sp,-64
     288:	00058893          	mv	a7,a1
     28c:	00351793          	slli	a5,a0,0x3
     290:	00359713          	slli	a4,a1,0x3
     294:	00068067          	jr	a3
     298:	00170713          	addi	a4,a4,1
     29c:	000026b7          	lui	a3,0x2
     2a0:	00271613          	slli	a2,a4,0x2
     2a4:	5906a583          	lw	a1,1424(a3) # 2590 <vga_buffer>
     2a8:	00e60633          	add	a2,a2,a4
     2ac:	00661613          	slli	a2,a2,0x6
     2b0:	00c78733          	add	a4,a5,a2
     2b4:	02812e23          	sw	s0,60(sp)
     2b8:	03212a23          	sw	s2,52(sp)
     2bc:	03312823          	sw	s3,48(sp)
     2c0:	03412623          	sw	s4,44(sp)
     2c4:	03512423          	sw	s5,40(sp)
     2c8:	03612223          	sw	s6,36(sp)
     2cc:	03712023          	sw	s7,32(sp)
     2d0:	01812e23          	sw	s8,28(sp)
     2d4:	01912c23          	sw	s9,24(sp)
     2d8:	01a12a23          	sw	s10,20(sp)
     2dc:	01b12823          	sw	s11,16(sp)
     2e0:	00070913          	mv	s2,a4
     2e4:	00e585b3          	add	a1,a1,a4
     2e8:	01f00713          	li	a4,31
     2ec:	28e581a3          	sb	a4,643(a1)
     2f0:	5906a583          	lw	a1,1424(a3)
     2f4:	00c78e33          	add	t3,a5,a2
     2f8:	000e0993          	mv	s3,t3
     2fc:	01c585b3          	add	a1,a1,t3
     300:	28e58223          	sb	a4,644(a1)
     304:	5906ae03          	lw	t3,1424(a3)
     308:	00c783b3          	add	t2,a5,a2
     30c:	00678e93          	addi	t4,a5,6
     310:	007e0e33          	add	t3,t3,t2
     314:	28ee02a3          	sb	a4,645(t3)
     318:	5906ae03          	lw	t3,1424(a3)
     31c:	000e8d93          	mv	s11,t4
     320:	01d60eb3          	add	t4,a2,t4
     324:	01de0e33          	add	t3,t3,t4
     328:	28ee0023          	sb	a4,640(t3)
     32c:	5906ae03          	lw	t3,1424(a3)
     330:	00f60f33          	add	t5,a2,a5
     334:	00f60333          	add	t1,a2,a5
     338:	01ee0e33          	add	t3,t3,t5
     33c:	28ee03a3          	sb	a4,647(t3)
     340:	5906ae03          	lw	t3,1424(a3)
     344:	00c78b33          	add	s6,a5,a2
     348:	00c78bb3          	add	s7,a5,a2
     34c:	006e0333          	add	t1,t3,t1
     350:	28e30423          	sb	a4,648(t1) # 80000288 <_stack_end+0x7fefdcd8>
     354:	00289313          	slli	t1,a7,0x2
     358:	011308b3          	add	a7,t1,a7
     35c:	5906a303          	lw	t1,1424(a3)
     360:	00989893          	slli	a7,a7,0x9
     364:	01178e33          	add	t3,a5,a7
     368:	01c30333          	add	t1,t1,t3
     36c:	00e301a3          	sb	a4,3(t1)
     370:	5906a303          	lw	t1,1424(a3)
     374:	000e0a13          	mv	s4,t3
     378:	01178e33          	add	t3,a5,a7
     37c:	01c30333          	add	t1,t1,t3
     380:	00e30223          	sb	a4,4(t1)
     384:	5906a303          	lw	t1,1424(a3)
     388:	011788b3          	add	a7,a5,a7
     38c:	00c78c33          	add	s8,a5,a2
     390:	01130333          	add	t1,t1,a7
     394:	00e302a3          	sb	a4,5(t1)
     398:	5906a303          	lw	t1,1424(a3)
     39c:	00c78cb3          	add	s9,a5,a2
     3a0:	00c78d33          	add	s10,a5,a2
     3a4:	01630333          	add	t1,t1,s6
     3a8:	00e301a3          	sb	a4,3(t1)
     3ac:	5906a303          	lw	t1,1424(a3)
     3b0:	000e0a93          	mv	s5,t3
     3b4:	00c78e33          	add	t3,a5,a2
     3b8:	01730333          	add	t1,t1,s7
     3bc:	00e30223          	sb	a4,4(t1)
     3c0:	5906af03          	lw	t5,1424(a3)
     3c4:	3c060313          	addi	t1,a2,960
     3c8:	50060613          	addi	a2,a2,1280
     3cc:	018f0f33          	add	t5,t5,s8
     3d0:	00ef02a3          	sb	a4,5(t5)
     3d4:	5906af03          	lw	t5,1424(a3)
     3d8:	006782b3          	add	t0,a5,t1
     3dc:	00678fb3          	add	t6,a5,t1
     3e0:	019f0f33          	add	t5,t5,s9
     3e4:	14ef01a3          	sb	a4,323(t5)
     3e8:	5906a403          	lw	s0,1424(a3)
     3ec:	00678f33          	add	t5,a5,t1
     3f0:	00c78833          	add	a6,a5,a2
     3f4:	01a40433          	add	s0,s0,s10
     3f8:	14e40223          	sb	a4,324(s0)
     3fc:	5906a403          	lw	s0,1424(a3)
     400:	00c78533          	add	a0,a5,a2
     404:	00c785b3          	add	a1,a5,a2
     408:	01c40433          	add	s0,s0,t3
     40c:	14e402a3          	sb	a4,325(s0)
     410:	006d8433          	add	s0,s11,t1
     414:	00812423          	sw	s0,8(sp)
     418:	5906a403          	lw	s0,1424(a3)
     41c:	00c78eb3          	add	t4,a5,a2
     420:	01240433          	add	s0,s0,s2
     424:	28e401a3          	sb	a4,643(s0)
     428:	00cd8433          	add	s0,s11,a2
     42c:	00812623          	sw	s0,12(sp)
     430:	00678433          	add	s0,a5,t1
     434:	00040d93          	mv	s11,s0
     438:	5906a403          	lw	s0,1424(a3)
     43c:	00678333          	add	t1,a5,t1
     440:	00c78633          	add	a2,a5,a2
     444:	01340433          	add	s0,s0,s3
     448:	28e40223          	sb	a4,644(s0)
     44c:	5906a783          	lw	a5,1424(a3)
     450:	007787b3          	add	a5,a5,t2
     454:	28e782a3          	sb	a4,645(a5)
     458:	5906a783          	lw	a5,1424(a3)
     45c:	005787b3          	add	a5,a5,t0
     460:	00e781a3          	sb	a4,3(a5)
     464:	5906a783          	lw	a5,1424(a3)
     468:	01f787b3          	add	a5,a5,t6
     46c:	00e78223          	sb	a4,4(a5)
     470:	5906a783          	lw	a5,1424(a3)
     474:	01e787b3          	add	a5,a5,t5
     478:	00e782a3          	sb	a4,5(a5)
     47c:	5906a783          	lw	a5,1424(a3)
     480:	010787b3          	add	a5,a5,a6
     484:	00e781a3          	sb	a4,3(a5)
     488:	5906a783          	lw	a5,1424(a3)
     48c:	00a787b3          	add	a5,a5,a0
     490:	00e78223          	sb	a4,4(a5)
     494:	5906a783          	lw	a5,1424(a3)
     498:	00b787b3          	add	a5,a5,a1
     49c:	00e782a3          	sb	a4,5(a5)
     4a0:	5906a783          	lw	a5,1424(a3)
     4a4:	005787b3          	add	a5,a5,t0
     4a8:	00e781a3          	sb	a4,3(a5)
     4ac:	5906a783          	lw	a5,1424(a3)
     4b0:	01f787b3          	add	a5,a5,t6
     4b4:	00e78223          	sb	a4,4(a5)
     4b8:	5906a783          	lw	a5,1424(a3)
     4bc:	00812403          	lw	s0,8(sp)
     4c0:	01e787b3          	add	a5,a5,t5
     4c4:	00e782a3          	sb	a4,5(a5)
     4c8:	5906a783          	lw	a5,1424(a3)
     4cc:	008787b3          	add	a5,a5,s0
     4d0:	00e78023          	sb	a4,0(a5)
     4d4:	5906a783          	lw	a5,1424(a3)
     4d8:	01b787b3          	add	a5,a5,s11
     4dc:	00e783a3          	sb	a4,7(a5)
     4e0:	5906a783          	lw	a5,1424(a3)
     4e4:	006787b3          	add	a5,a5,t1
     4e8:	00e78423          	sb	a4,8(a5)
     4ec:	5906a783          	lw	a5,1424(a3)
     4f0:	014787b3          	add	a5,a5,s4
     4f4:	00e781a3          	sb	a4,3(a5)
     4f8:	5906a783          	lw	a5,1424(a3)
     4fc:	015787b3          	add	a5,a5,s5
     500:	00e78223          	sb	a4,4(a5)
     504:	5906a783          	lw	a5,1424(a3)
     508:	011787b3          	add	a5,a5,a7
     50c:	00e782a3          	sb	a4,5(a5)
     510:	5906a783          	lw	a5,1424(a3)
     514:	016787b3          	add	a5,a5,s6
     518:	00e781a3          	sb	a4,3(a5)
     51c:	5906a783          	lw	a5,1424(a3)
     520:	017787b3          	add	a5,a5,s7
     524:	00e78223          	sb	a4,4(a5)
     528:	5906a783          	lw	a5,1424(a3)
     52c:	018787b3          	add	a5,a5,s8
     530:	00e782a3          	sb	a4,5(a5)
     534:	5906a783          	lw	a5,1424(a3)
     538:	019787b3          	add	a5,a5,s9
     53c:	14e781a3          	sb	a4,323(a5)
     540:	5906a783          	lw	a5,1424(a3)
     544:	01a787b3          	add	a5,a5,s10
     548:	14e78223          	sb	a4,324(a5)
     54c:	5906a783          	lw	a5,1424(a3)
     550:	01c787b3          	add	a5,a5,t3
     554:	14e782a3          	sb	a4,325(a5)
     558:	5906a783          	lw	a5,1424(a3)
     55c:	012787b3          	add	a5,a5,s2
     560:	28e781a3          	sb	a4,643(a5)
     564:	5906a783          	lw	a5,1424(a3)
     568:	013787b3          	add	a5,a5,s3
     56c:	28e78223          	sb	a4,644(a5)
     570:	5906a783          	lw	a5,1424(a3)
     574:	007787b3          	add	a5,a5,t2
     578:	28e782a3          	sb	a4,645(a5)
     57c:	5906a783          	lw	a5,1424(a3)
     580:	00c12303          	lw	t1,12(sp)
     584:	005787b3          	add	a5,a5,t0
     588:	00e781a3          	sb	a4,3(a5)
     58c:	5906a783          	lw	a5,1424(a3)
     590:	01f787b3          	add	a5,a5,t6
     594:	00e78223          	sb	a4,4(a5)
     598:	5906a783          	lw	a5,1424(a3)
     59c:	01e787b3          	add	a5,a5,t5
     5a0:	00e782a3          	sb	a4,5(a5)
     5a4:	5906a783          	lw	a5,1424(a3)
     5a8:	010787b3          	add	a5,a5,a6
     5ac:	00e781a3          	sb	a4,3(a5)
     5b0:	5906a783          	lw	a5,1424(a3)
     5b4:	00a787b3          	add	a5,a5,a0
     5b8:	00e78223          	sb	a4,4(a5)
     5bc:	5906a783          	lw	a5,1424(a3)
     5c0:	00b787b3          	add	a5,a5,a1
     5c4:	00e782a3          	sb	a4,5(a5)
     5c8:	5906a783          	lw	a5,1424(a3)
     5cc:	010787b3          	add	a5,a5,a6
     5d0:	00e781a3          	sb	a4,3(a5)
     5d4:	5906a783          	lw	a5,1424(a3)
     5d8:	00a787b3          	add	a5,a5,a0
     5dc:	00e78223          	sb	a4,4(a5)
     5e0:	5906a783          	lw	a5,1424(a3)
     5e4:	00b787b3          	add	a5,a5,a1
     5e8:	00e782a3          	sb	a4,5(a5)
     5ec:	5906a783          	lw	a5,1424(a3)
     5f0:	006787b3          	add	a5,a5,t1
     5f4:	00e78023          	sb	a4,0(a5)
     5f8:	5906a783          	lw	a5,1424(a3)
     5fc:	01d787b3          	add	a5,a5,t4
     600:	00e783a3          	sb	a4,7(a5)
     604:	5906a783          	lw	a5,1424(a3)
     608:	00c787b3          	add	a5,a5,a2
     60c:	00e78423          	sb	a4,8(a5)
     610:	5906a783          	lw	a5,1424(a3)
     614:	014787b3          	add	a5,a5,s4
     618:	00e781a3          	sb	a4,3(a5)
     61c:	5906a783          	lw	a5,1424(a3)
     620:	015787b3          	add	a5,a5,s5
     624:	00e78223          	sb	a4,4(a5)
     628:	5906a783          	lw	a5,1424(a3)
     62c:	011787b3          	add	a5,a5,a7
     630:	00e782a3          	sb	a4,5(a5)
     634:	5906a783          	lw	a5,1424(a3)
     638:	016787b3          	add	a5,a5,s6
     63c:	00e781a3          	sb	a4,3(a5)
     640:	5906a783          	lw	a5,1424(a3)
     644:	017787b3          	add	a5,a5,s7
     648:	00e78223          	sb	a4,4(a5)
     64c:	5906a783          	lw	a5,1424(a3)
     650:	018787b3          	add	a5,a5,s8
     654:	00e782a3          	sb	a4,5(a5)
     658:	5906a783          	lw	a5,1424(a3)
     65c:	019787b3          	add	a5,a5,s9
     660:	14e781a3          	sb	a4,323(a5)
     664:	5906a783          	lw	a5,1424(a3)
     668:	01a787b3          	add	a5,a5,s10
     66c:	14e78223          	sb	a4,324(a5)
     670:	5906a783          	lw	a5,1424(a3)
     674:	01c787b3          	add	a5,a5,t3
     678:	14e782a3          	sb	a4,325(a5)
     67c:	5906a783          	lw	a5,1424(a3)
     680:	012787b3          	add	a5,a5,s2
     684:	28e781a3          	sb	a4,643(a5)
     688:	5906a783          	lw	a5,1424(a3)
     68c:	013787b3          	add	a5,a5,s3
     690:	28e78223          	sb	a4,644(a5)
     694:	5906a783          	lw	a5,1424(a3)
     698:	007787b3          	add	a5,a5,t2
     69c:	28e782a3          	sb	a4,645(a5)
     6a0:	5906a783          	lw	a5,1424(a3)
     6a4:	005787b3          	add	a5,a5,t0
     6a8:	00e781a3          	sb	a4,3(a5)
     6ac:	5906a783          	lw	a5,1424(a3)
     6b0:	01f787b3          	add	a5,a5,t6
     6b4:	00e78223          	sb	a4,4(a5)
     6b8:	5906a783          	lw	a5,1424(a3)
     6bc:	01e787b3          	add	a5,a5,t5
     6c0:	00e782a3          	sb	a4,5(a5)
     6c4:	5906a783          	lw	a5,1424(a3)
     6c8:	010787b3          	add	a5,a5,a6
     6cc:	00e781a3          	sb	a4,3(a5)
     6d0:	5906a783          	lw	a5,1424(a3)
     6d4:	00a787b3          	add	a5,a5,a0
     6d8:	00e78223          	sb	a4,4(a5)
     6dc:	5906a783          	lw	a5,1424(a3)
     6e0:	00b787b3          	add	a5,a5,a1
     6e4:	00e782a3          	sb	a4,5(a5)
     6e8:	03c12403          	lw	s0,60(sp)
     6ec:	03412903          	lw	s2,52(sp)
     6f0:	03012983          	lw	s3,48(sp)
     6f4:	02c12a03          	lw	s4,44(sp)
     6f8:	02812a83          	lw	s5,40(sp)
     6fc:	02412b03          	lw	s6,36(sp)
     700:	02012b83          	lw	s7,32(sp)
     704:	01c12c03          	lw	s8,28(sp)
     708:	01812c83          	lw	s9,24(sp)
     70c:	01412d03          	lw	s10,20(sp)
     710:	01012d83          	lw	s11,16(sp)
     714:	04010113          	addi	sp,sp,64
     718:	00008067          	ret
     71c:	00370713          	addi	a4,a4,3
     720:	000026b7          	lui	a3,0x2
     724:	00271613          	slli	a2,a4,0x2
     728:	5906a583          	lw	a1,1424(a3) # 2590 <vga_buffer>
     72c:	00e60633          	add	a2,a2,a4
     730:	00661613          	slli	a2,a2,0x6
     734:	00c78733          	add	a4,a5,a2
     738:	02812e23          	sw	s0,60(sp)
     73c:	02912c23          	sw	s1,56(sp)
     740:	03212a23          	sw	s2,52(sp)
     744:	03312823          	sw	s3,48(sp)
     748:	03412623          	sw	s4,44(sp)
     74c:	00e585b3          	add	a1,a1,a4
     750:	01f00713          	li	a4,31
     754:	00e58023          	sb	a4,0(a1)
     758:	5906a583          	lw	a1,1424(a3)
     75c:	00c78533          	add	a0,a5,a2
     760:	00c783b3          	add	t2,a5,a2
     764:	00a585b3          	add	a1,a1,a0
     768:	00e580a3          	sb	a4,1(a1)
     76c:	5906a583          	lw	a1,1424(a3)
     770:	00c78533          	add	a0,a5,a2
     774:	00c78833          	add	a6,a5,a2
     778:	00a585b3          	add	a1,a1,a0
     77c:	00e58123          	sb	a4,2(a1)
     780:	5906a583          	lw	a1,1424(a3)
     784:	00c78533          	add	a0,a5,a2
     788:	00050493          	mv	s1,a0
     78c:	00a585b3          	add	a1,a1,a0
     790:	00e581a3          	sb	a4,3(a1)
     794:	5906a503          	lw	a0,1424(a3)
     798:	00080913          	mv	s2,a6
     79c:	00c78333          	add	t1,a5,a2
     7a0:	00750533          	add	a0,a0,t2
     7a4:	00e50223          	sb	a4,4(a0)
     7a8:	5906a503          	lw	a0,1424(a3)
     7ac:	00c78f33          	add	t5,a5,a2
     7b0:	00c789b3          	add	s3,a5,a2
     7b4:	01050533          	add	a0,a0,a6
     7b8:	00e502a3          	sb	a4,5(a0)
     7bc:	5906a803          	lw	a6,1424(a3)
     7c0:	00078293          	mv	t0,a5
     7c4:	00078f93          	mv	t6,a5
     7c8:	00680833          	add	a6,a6,t1
     7cc:	14e80023          	sb	a4,320(a6)
     7d0:	5906a803          	lw	a6,1424(a3)
     7d4:	00c78333          	add	t1,a5,a2
     7d8:	01f60a33          	add	s4,a2,t6
     7dc:	01e80833          	add	a6,a6,t5
     7e0:	14e800a3          	sb	a4,321(a6)
     7e4:	5906a803          	lw	a6,1424(a3)
     7e8:	00c78f33          	add	t5,a5,a2
     7ec:	00078e93          	mv	t4,a5
     7f0:	00680833          	add	a6,a6,t1
     7f4:	14e80123          	sb	a4,322(a6)
     7f8:	5906a503          	lw	a0,1424(a3)
     7fc:	00c78333          	add	t1,a5,a2
     800:	00078593          	mv	a1,a5
     804:	01350533          	add	a0,a0,s3
     808:	14e501a3          	sb	a4,323(a0)
     80c:	00560533          	add	a0,a2,t0
     810:	5906a283          	lw	t0,1424(a3)
     814:	00078e13          	mv	t3,a5
     818:	00c787b3          	add	a5,a5,a2
     81c:	01e282b3          	add	t0,t0,t5
     820:	14e28223          	sb	a4,324(t0)
     824:	01f602b3          	add	t0,a2,t6
     828:	5906af83          	lw	t6,1424(a3)
     82c:	01d60433          	add	s0,a2,t4
     830:	01d60833          	add	a6,a2,t4
     834:	006f8fb3          	add	t6,t6,t1
     838:	14ef82a3          	sb	a4,325(t6)
     83c:	5906af83          	lw	t6,1424(a3)
     840:	00ff87b3          	add	a5,t6,a5
     844:	28e78023          	sb	a4,640(a5)
     848:	5906a783          	lw	a5,1424(a3)
     84c:	00a787b3          	add	a5,a5,a0
     850:	28e780a3          	sb	a4,641(a5)
     854:	5906a783          	lw	a5,1424(a3)
     858:	00289513          	slli	a0,a7,0x2
     85c:	01150533          	add	a0,a0,a7
     860:	014787b3          	add	a5,a5,s4
     864:	28e78123          	sb	a4,642(a5)
     868:	5906a783          	lw	a5,1424(a3)
     86c:	00951513          	slli	a0,a0,0x9
     870:	00ae8fb3          	add	t6,t4,a0
     874:	005787b3          	add	a5,a5,t0
     878:	28e781a3          	sb	a4,643(a5)
     87c:	5906a783          	lw	a5,1424(a3)
     880:	00ae8a33          	add	s4,t4,a0
     884:	00ae8533          	add	a0,t4,a0
     888:	008787b3          	add	a5,a5,s0
     88c:	28e78223          	sb	a4,644(a5)
     890:	5906a883          	lw	a7,1424(a3)
     894:	010888b3          	add	a7,a7,a6
     898:	28e882a3          	sb	a4,645(a7)
     89c:	5906a883          	lw	a7,1424(a3)
     8a0:	01f888b3          	add	a7,a7,t6
     8a4:	00e881a3          	sb	a4,3(a7)
     8a8:	5906a883          	lw	a7,1424(a3)
     8ac:	014888b3          	add	a7,a7,s4
     8b0:	00e88223          	sb	a4,4(a7)
     8b4:	5906a883          	lw	a7,1424(a3)
     8b8:	00ce8a33          	add	s4,t4,a2
     8bc:	00ce8eb3          	add	t4,t4,a2
     8c0:	00a88533          	add	a0,a7,a0
     8c4:	00e502a3          	sb	a4,5(a0)
     8c8:	5906af83          	lw	t6,1424(a3)
     8cc:	00c588b3          	add	a7,a1,a2
     8d0:	00c58533          	add	a0,a1,a2
     8d4:	014f87b3          	add	a5,t6,s4
     8d8:	d8e781a3          	sb	a4,-637(a5)
     8dc:	5906af83          	lw	t6,1424(a3)
     8e0:	00c585b3          	add	a1,a1,a2
     8e4:	00ce07b3          	add	a5,t3,a2
     8e8:	011f8633          	add	a2,t6,a7
     8ec:	d8e60223          	sb	a4,-636(a2)
     8f0:	5906a603          	lw	a2,1424(a3)
     8f4:	00a60633          	add	a2,a2,a0
     8f8:	d8e602a3          	sb	a4,-635(a2)
     8fc:	5906a603          	lw	a2,1424(a3)
     900:	01d60633          	add	a2,a2,t4
     904:	ece601a3          	sb	a4,-317(a2)
     908:	5906a603          	lw	a2,1424(a3)
     90c:	00b60633          	add	a2,a2,a1
     910:	ece60223          	sb	a4,-316(a2)
     914:	5906a603          	lw	a2,1424(a3)
     918:	00f607b3          	add	a5,a2,a5
     91c:	ece782a3          	sb	a4,-315(a5)
     920:	5906a783          	lw	a5,1424(a3)
     924:	009787b3          	add	a5,a5,s1
     928:	00e781a3          	sb	a4,3(a5)
     92c:	5906a783          	lw	a5,1424(a3)
     930:	007787b3          	add	a5,a5,t2
     934:	00e78223          	sb	a4,4(a5)
     938:	5906a783          	lw	a5,1424(a3)
     93c:	012787b3          	add	a5,a5,s2
     940:	00e782a3          	sb	a4,5(a5)
     944:	5906a783          	lw	a5,1424(a3)
     948:	013787b3          	add	a5,a5,s3
     94c:	14e781a3          	sb	a4,323(a5)
     950:	5906a783          	lw	a5,1424(a3)
     954:	01e787b3          	add	a5,a5,t5
     958:	14e78223          	sb	a4,324(a5)
     95c:	5906a783          	lw	a5,1424(a3)
     960:	006787b3          	add	a5,a5,t1
     964:	14e782a3          	sb	a4,325(a5)
     968:	5906a783          	lw	a5,1424(a3)
     96c:	005787b3          	add	a5,a5,t0
     970:	28e781a3          	sb	a4,643(a5)
     974:	5906a783          	lw	a5,1424(a3)
     978:	008787b3          	add	a5,a5,s0
     97c:	28e78223          	sb	a4,644(a5)
     980:	5906a783          	lw	a5,1424(a3)
     984:	010787b3          	add	a5,a5,a6
     988:	28e782a3          	sb	a4,645(a5)
     98c:	03c12403          	lw	s0,60(sp)
     990:	03812483          	lw	s1,56(sp)
     994:	03412903          	lw	s2,52(sp)
     998:	03012983          	lw	s3,48(sp)
     99c:	02c12a03          	lw	s4,44(sp)
     9a0:	04010113          	addi	sp,sp,64
     9a4:	00008067          	ret
     9a8:	00259793          	slli	a5,a1,0x2
     9ac:	00b787b3          	add	a5,a5,a1
     9b0:	00679793          	slli	a5,a5,0x6
     9b4:	00a787b3          	add	a5,a5,a0
     9b8:	14078313          	addi	t1,a5,320
     9bc:	00331313          	slli	t1,t1,0x3
     9c0:	00379793          	slli	a5,a5,0x3
     9c4:	00002737          	lui	a4,0x2
     9c8:	59072683          	lw	a3,1424(a4) # 2590 <vga_buffer>
     9cc:	00078593          	mv	a1,a5
     9d0:	00f686b3          	add	a3,a3,a5
     9d4:	00068023          	sb	zero,0(a3)
     9d8:	59072683          	lw	a3,1424(a4)
     9dc:	00f686b3          	add	a3,a3,a5
     9e0:	000680a3          	sb	zero,1(a3)
     9e4:	59072683          	lw	a3,1424(a4)
     9e8:	00f686b3          	add	a3,a3,a5
     9ec:	00068123          	sb	zero,2(a3)
     9f0:	59072683          	lw	a3,1424(a4)
     9f4:	14078793          	addi	a5,a5,320
     9f8:	00b686b3          	add	a3,a3,a1
     9fc:	000681a3          	sb	zero,3(a3)
     a00:	59072683          	lw	a3,1424(a4)
     a04:	00b686b3          	add	a3,a3,a1
     a08:	00068223          	sb	zero,4(a3)
     a0c:	59072683          	lw	a3,1424(a4)
     a10:	00b686b3          	add	a3,a3,a1
     a14:	000682a3          	sb	zero,5(a3)
     a18:	59072683          	lw	a3,1424(a4)
     a1c:	00b686b3          	add	a3,a3,a1
     a20:	00068323          	sb	zero,6(a3)
     a24:	59072683          	lw	a3,1424(a4)
     a28:	00b686b3          	add	a3,a3,a1
     a2c:	000683a3          	sb	zero,7(a3)
     a30:	f8679ce3          	bne	a5,t1,9c8 <__heap_size+0x1c8>
     a34:	04010113          	addi	sp,sp,64
     a38:	00008067          	ret
     a3c:	00002637          	lui	a2,0x2
     a40:	00259693          	slli	a3,a1,0x2
     a44:	00b686b3          	add	a3,a3,a1
     a48:	59062583          	lw	a1,1424(a2) # 2590 <vga_buffer>
     a4c:	00969813          	slli	a6,a3,0x9
     a50:	010786b3          	add	a3,a5,a6
     a54:	00d585b3          	add	a1,a1,a3
     a58:	01f00693          	li	a3,31
     a5c:	00d581a3          	sb	a3,3(a1)
     a60:	59062883          	lw	a7,1424(a2)
     a64:	01078333          	add	t1,a5,a6
     a68:	01078833          	add	a6,a5,a6
     a6c:	006888b3          	add	a7,a7,t1
     a70:	00d88223          	sb	a3,4(a7)
     a74:	59062883          	lw	a7,1424(a2)
     a78:	01088833          	add	a6,a7,a6
     a7c:	00d802a3          	sb	a3,5(a6)
     a80:	00170813          	addi	a6,a4,1
     a84:	00281713          	slli	a4,a6,0x2
     a88:	01070733          	add	a4,a4,a6
     a8c:	59062803          	lw	a6,1424(a2)
     a90:	00671713          	slli	a4,a4,0x6
     a94:	00e788b3          	add	a7,a5,a4
     a98:	01180833          	add	a6,a6,a7
     a9c:	00d801a3          	sb	a3,3(a6)
     aa0:	59062803          	lw	a6,1424(a2)
     aa4:	00e788b3          	add	a7,a5,a4
     aa8:	00e78333          	add	t1,a5,a4
     aac:	01180833          	add	a6,a6,a7
     ab0:	00d80223          	sb	a3,4(a6)
     ab4:	59062883          	lw	a7,1424(a2)
     ab8:	00e78e33          	add	t3,a5,a4
     abc:	00e78eb3          	add	t4,a5,a4
     ac0:	006888b3          	add	a7,a7,t1
     ac4:	00d882a3          	sb	a3,5(a7)
     ac8:	59062303          	lw	t1,1424(a2)
     acc:	00e788b3          	add	a7,a5,a4
     ad0:	00e78fb3          	add	t6,a5,a4
     ad4:	01c30833          	add	a6,t1,t3
     ad8:	14d801a3          	sb	a3,323(a6)
     adc:	59062303          	lw	t1,1424(a2)
     ae0:	00e78e33          	add	t3,a5,a4
     ae4:	00e78833          	add	a6,a5,a4
     ae8:	01d30333          	add	t1,t1,t4
     aec:	14d30223          	sb	a3,324(t1)
     af0:	59062303          	lw	t1,1424(a2)
     af4:	00e78f33          	add	t5,a5,a4
     af8:	00f70eb3          	add	t4,a4,a5
     afc:	011308b3          	add	a7,t1,a7
     b00:	14d882a3          	sb	a3,325(a7)
     b04:	59062883          	lw	a7,1424(a2)
     b08:	00e782b3          	add	t0,a5,a4
     b0c:	00e78533          	add	a0,a5,a4
     b10:	01c888b3          	add	a7,a7,t3
     b14:	28d881a3          	sb	a3,643(a7)
     b18:	59062883          	lw	a7,1424(a2)
     b1c:	00f70e33          	add	t3,a4,a5
     b20:	00f705b3          	add	a1,a4,a5
     b24:	01f888b3          	add	a7,a7,t6
     b28:	28d88223          	sb	a3,644(a7)
     b2c:	59062303          	lw	t1,1424(a2)
     b30:	00f70fb3          	add	t6,a4,a5
     b34:	00f708b3          	add	a7,a4,a5
     b38:	01030833          	add	a6,t1,a6
     b3c:	28d802a3          	sb	a3,645(a6)
     b40:	59062803          	lw	a6,1424(a2)
     b44:	00f70333          	add	t1,a4,a5
     b48:	01e80833          	add	a6,a6,t5
     b4c:	3cd801a3          	sb	a3,963(a6)
     b50:	59062803          	lw	a6,1424(a2)
     b54:	00f70f33          	add	t5,a4,a5
     b58:	01d80833          	add	a6,a6,t4
     b5c:	3cd80223          	sb	a3,964(a6)
     b60:	59062803          	lw	a6,1424(a2)
     b64:	00f70eb3          	add	t4,a4,a5
     b68:	00f70733          	add	a4,a4,a5
     b6c:	01c80833          	add	a6,a6,t3
     b70:	3cd802a3          	sb	a3,965(a6)
     b74:	59062803          	lw	a6,1424(a2)
     b78:	00580833          	add	a6,a6,t0
     b7c:	50d801a3          	sb	a3,1283(a6)
     b80:	59062803          	lw	a6,1424(a2)
     b84:	01f807b3          	add	a5,a6,t6
     b88:	50d78223          	sb	a3,1284(a5)
     b8c:	59062783          	lw	a5,1424(a2)
     b90:	006787b3          	add	a5,a5,t1
     b94:	50d782a3          	sb	a3,1285(a5)
     b98:	59062783          	lw	a5,1424(a2)
     b9c:	01e787b3          	add	a5,a5,t5
     ba0:	64d781a3          	sb	a3,1603(a5)
     ba4:	59062783          	lw	a5,1424(a2)
     ba8:	01d787b3          	add	a5,a5,t4
     bac:	64d78223          	sb	a3,1604(a5)
     bb0:	59062783          	lw	a5,1424(a2)
     bb4:	011787b3          	add	a5,a5,a7
     bb8:	64d782a3          	sb	a3,1605(a5)
     bbc:	59062783          	lw	a5,1424(a2)
     bc0:	00a787b3          	add	a5,a5,a0
     bc4:	78d781a3          	sb	a3,1923(a5)
     bc8:	59062783          	lw	a5,1424(a2)
     bcc:	00b787b3          	add	a5,a5,a1
     bd0:	78d78223          	sb	a3,1924(a5)
     bd4:	59062783          	lw	a5,1424(a2)
     bd8:	00e787b3          	add	a5,a5,a4
     bdc:	78d782a3          	sb	a3,1925(a5)
     be0:	04010113          	addi	sp,sp,64
     be4:	00008067          	ret
     be8:	00370693          	addi	a3,a4,3
     bec:	00002637          	lui	a2,0x2
     bf0:	00269713          	slli	a4,a3,0x2
     bf4:	59062583          	lw	a1,1424(a2) # 2590 <vga_buffer>
     bf8:	00d70733          	add	a4,a4,a3
     bfc:	00671713          	slli	a4,a4,0x6
     c00:	00f706b3          	add	a3,a4,a5
     c04:	00d585b3          	add	a1,a1,a3
     c08:	01f00693          	li	a3,31
     c0c:	00d58023          	sb	a3,0(a1)
     c10:	59062583          	lw	a1,1424(a2)
     c14:	00f70533          	add	a0,a4,a5
     c18:	00f70f33          	add	t5,a4,a5
     c1c:	00a585b3          	add	a1,a1,a0
     c20:	00d580a3          	sb	a3,1(a1)
     c24:	59062583          	lw	a1,1424(a2)
     c28:	00f70533          	add	a0,a4,a5
     c2c:	00f70fb3          	add	t6,a4,a5
     c30:	00a585b3          	add	a1,a1,a0
     c34:	00d58123          	sb	a3,2(a1)
     c38:	59062583          	lw	a1,1424(a2)
     c3c:	00f70533          	add	a0,a4,a5
     c40:	00e782b3          	add	t0,a5,a4
     c44:	00a585b3          	add	a1,a1,a0
     c48:	00d581a3          	sb	a3,3(a1)
     c4c:	59062583          	lw	a1,1424(a2)
     c50:	00f70533          	add	a0,a4,a5
     c54:	00078e93          	mv	t4,a5
     c58:	00a585b3          	add	a1,a1,a0
     c5c:	00d58223          	sb	a3,4(a1)
     c60:	59062583          	lw	a1,1424(a2)
     c64:	00f70533          	add	a0,a4,a5
     c68:	00078e13          	mv	t3,a5
     c6c:	00a585b3          	add	a1,a1,a0
     c70:	00d582a3          	sb	a3,5(a1)
     c74:	59062583          	lw	a1,1424(a2)
     c78:	00078313          	mv	t1,a5
     c7c:	00078893          	mv	a7,a5
     c80:	01e585b3          	add	a1,a1,t5
     c84:	00d58323          	sb	a3,6(a1)
     c88:	59062583          	lw	a1,1424(a2)
     c8c:	00078813          	mv	a6,a5
     c90:	00078513          	mv	a0,a5
     c94:	01f585b3          	add	a1,a1,t6
     c98:	00d583a3          	sb	a3,7(a1)
     c9c:	59062f83          	lw	t6,1424(a2)
     ca0:	011705b3          	add	a1,a4,a7
     ca4:	00078f13          	mv	t5,a5
     ca8:	005f8fb3          	add	t6,t6,t0
     cac:	14df8023          	sb	a3,320(t6)
     cb0:	59062f83          	lw	t6,1424(a2)
     cb4:	00f702b3          	add	t0,a4,a5
     cb8:	00e80833          	add	a6,a6,a4
     cbc:	005f8fb3          	add	t6,t6,t0
     cc0:	14df80a3          	sb	a3,321(t6)
     cc4:	59062f83          	lw	t6,1424(a2)
     cc8:	00f702b3          	add	t0,a4,a5
     ccc:	00e787b3          	add	a5,a5,a4
     cd0:	005f8fb3          	add	t6,t6,t0
     cd4:	14df8123          	sb	a3,322(t6)
     cd8:	59062f83          	lw	t6,1424(a2)
     cdc:	01d702b3          	add	t0,a4,t4
     ce0:	00ee8eb3          	add	t4,t4,a4
     ce4:	005f8fb3          	add	t6,t6,t0
     ce8:	14df81a3          	sb	a3,323(t6)
     cec:	59062f83          	lw	t6,1424(a2)
     cf0:	01c702b3          	add	t0,a4,t3
     cf4:	00ee0e33          	add	t3,t3,a4
     cf8:	005f8fb3          	add	t6,t6,t0
     cfc:	14df8223          	sb	a3,324(t6)
     d00:	59062f83          	lw	t6,1424(a2)
     d04:	00e302b3          	add	t0,t1,a4
     d08:	00e30333          	add	t1,t1,a4
     d0c:	005f8fb3          	add	t6,t6,t0
     d10:	14df82a3          	sb	a3,325(t6)
     d14:	59062f83          	lw	t6,1424(a2)
     d18:	011702b3          	add	t0,a4,a7
     d1c:	00e888b3          	add	a7,a7,a4
     d20:	005f8fb3          	add	t6,t6,t0
     d24:	14df8323          	sb	a3,326(t6)
     d28:	59062f83          	lw	t6,1424(a2)
     d2c:	00a70533          	add	a0,a4,a0
     d30:	01e70733          	add	a4,a4,t5
     d34:	00bf85b3          	add	a1,t6,a1
     d38:	14d583a3          	sb	a3,327(a1)
     d3c:	59062583          	lw	a1,1424(a2)
     d40:	00f587b3          	add	a5,a1,a5
     d44:	28d78023          	sb	a3,640(a5)
     d48:	59062783          	lw	a5,1424(a2)
     d4c:	01d787b3          	add	a5,a5,t4
     d50:	28d780a3          	sb	a3,641(a5)
     d54:	59062783          	lw	a5,1424(a2)
     d58:	01c787b3          	add	a5,a5,t3
     d5c:	28d78123          	sb	a3,642(a5)
     d60:	59062783          	lw	a5,1424(a2)
     d64:	006787b3          	add	a5,a5,t1
     d68:	28d781a3          	sb	a3,643(a5)
     d6c:	59062783          	lw	a5,1424(a2)
     d70:	011787b3          	add	a5,a5,a7
     d74:	28d78223          	sb	a3,644(a5)
     d78:	59062783          	lw	a5,1424(a2)
     d7c:	010787b3          	add	a5,a5,a6
     d80:	28d782a3          	sb	a3,645(a5)
     d84:	59062783          	lw	a5,1424(a2)
     d88:	00a787b3          	add	a5,a5,a0
     d8c:	28d78323          	sb	a3,646(a5)
     d90:	59062783          	lw	a5,1424(a2)
     d94:	00e787b3          	add	a5,a5,a4
     d98:	28d783a3          	sb	a3,647(a5)
     d9c:	04010113          	addi	sp,sp,64
     da0:	00008067          	ret
     da4:	00370693          	addi	a3,a4,3
     da8:	00002637          	lui	a2,0x2
     dac:	00269593          	slli	a1,a3,0x2
     db0:	59062803          	lw	a6,1424(a2) # 2590 <vga_buffer>
     db4:	00d585b3          	add	a1,a1,a3
     db8:	00659593          	slli	a1,a1,0x6
     dbc:	00f586b3          	add	a3,a1,a5
     dc0:	02812e23          	sw	s0,60(sp)
     dc4:	02912c23          	sw	s1,56(sp)
     dc8:	00d80833          	add	a6,a6,a3
     dcc:	01f00693          	li	a3,31
     dd0:	00d801a3          	sb	a3,3(a6)
     dd4:	59062803          	lw	a6,1424(a2)
     dd8:	00b788b3          	add	a7,a5,a1
     ddc:	00b78fb3          	add	t6,a5,a1
     de0:	01180833          	add	a6,a6,a7
     de4:	00d80223          	sb	a3,4(a6)
     de8:	59062803          	lw	a6,1424(a2)
     dec:	00f588b3          	add	a7,a1,a5
     df0:	00b782b3          	add	t0,a5,a1
     df4:	01180833          	add	a6,a6,a7
     df8:	00d802a3          	sb	a3,5(a6)
     dfc:	59062803          	lw	a6,1424(a2)
     e00:	00f588b3          	add	a7,a1,a5
     e04:	00b783b3          	add	t2,a5,a1
     e08:	01180833          	add	a6,a6,a7
     e0c:	00d80323          	sb	a3,6(a6)
     e10:	59062803          	lw	a6,1424(a2)
     e14:	00f588b3          	add	a7,a1,a5
     e18:	00078513          	mv	a0,a5
     e1c:	01180833          	add	a6,a6,a7
     e20:	00d803a3          	sb	a3,7(a6)
     e24:	59062803          	lw	a6,1424(a2)
     e28:	00f588b3          	add	a7,a1,a5
     e2c:	00f58f33          	add	t5,a1,a5
     e30:	01180833          	add	a6,a6,a7
     e34:	00d80423          	sb	a3,8(a6)
     e38:	59062883          	lw	a7,1424(a2)
     e3c:	00b78833          	add	a6,a5,a1
     e40:	00f58eb3          	add	t4,a1,a5
     e44:	01f888b3          	add	a7,a7,t6
     e48:	14d881a3          	sb	a3,323(a7)
     e4c:	59062883          	lw	a7,1424(a2)
     e50:	00b78fb3          	add	t6,a5,a1
     e54:	00078313          	mv	t1,a5
     e58:	005888b3          	add	a7,a7,t0
     e5c:	14d88223          	sb	a3,324(a7)
     e60:	59062883          	lw	a7,1424(a2)
     e64:	00870293          	addi	t0,a4,8
     e68:	00a58433          	add	s0,a1,a0
     e6c:	01f88733          	add	a4,a7,t6
     e70:	14d702a3          	sb	a3,325(a4)
     e74:	59062703          	lw	a4,1424(a2)
     e78:	00b78fb3          	add	t6,a5,a1
     e7c:	00a588b3          	add	a7,a1,a0
     e80:	00770733          	add	a4,a4,t2
     e84:	14d70323          	sb	a3,326(a4)
     e88:	59062703          	lw	a4,1424(a2)
     e8c:	00f583b3          	add	t2,a1,a5
     e90:	00b504b3          	add	s1,a0,a1
     e94:	01f70733          	add	a4,a4,t6
     e98:	14d703a3          	sb	a3,327(a4)
     e9c:	59062703          	lw	a4,1424(a2)
     ea0:	00b78fb3          	add	t6,a5,a1
     ea4:	00f587b3          	add	a5,a1,a5
     ea8:	01070733          	add	a4,a4,a6
     eac:	14d70423          	sb	a3,328(a4)
     eb0:	59062703          	lw	a4,1424(a2)
     eb4:	00a58833          	add	a6,a1,a0
     eb8:	00770733          	add	a4,a4,t2
     ebc:	28d701a3          	sb	a3,643(a4)
     ec0:	59062703          	lw	a4,1424(a2)
     ec4:	01f70733          	add	a4,a4,t6
     ec8:	28d70223          	sb	a3,644(a4)
     ecc:	59062703          	lw	a4,1424(a2)
     ed0:	01170733          	add	a4,a4,a7
     ed4:	28d702a3          	sb	a3,645(a4)
     ed8:	59062703          	lw	a4,1424(a2)
     edc:	01e70733          	add	a4,a4,t5
     ee0:	28d70323          	sb	a3,646(a4)
     ee4:	59062703          	lw	a4,1424(a2)
     ee8:	00a58f33          	add	t5,a1,a0
     eec:	01d70733          	add	a4,a4,t4
     ef0:	28d703a3          	sb	a3,647(a4)
     ef4:	59062703          	lw	a4,1424(a2)
     ef8:	00b50eb3          	add	t4,a0,a1
     efc:	00a585b3          	add	a1,a1,a0
     f00:	00f707b3          	add	a5,a4,a5
     f04:	28d78423          	sb	a3,648(a5)
     f08:	59062783          	lw	a5,1424(a2)
     f0c:	007787b3          	add	a5,a5,t2
     f10:	28d781a3          	sb	a3,643(a5)
     f14:	59062783          	lw	a5,1424(a2)
     f18:	01f787b3          	add	a5,a5,t6
     f1c:	28d78223          	sb	a3,644(a5)
     f20:	59062703          	lw	a4,1424(a2)
     f24:	00229793          	slli	a5,t0,0x2
     f28:	005787b3          	add	a5,a5,t0
     f2c:	01170733          	add	a4,a4,a7
     f30:	28d702a3          	sb	a3,645(a4)
     f34:	59062703          	lw	a4,1424(a2)
     f38:	00679793          	slli	a5,a5,0x6
     f3c:	00a78533          	add	a0,a5,a0
     f40:	00870733          	add	a4,a4,s0
     f44:	3cd701a3          	sb	a3,963(a4)
     f48:	59062883          	lw	a7,1424(a2)
     f4c:	00f30733          	add	a4,t1,a5
     f50:	006787b3          	add	a5,a5,t1
     f54:	009888b3          	add	a7,a7,s1
     f58:	3cd88223          	sb	a3,964(a7)
     f5c:	59062883          	lw	a7,1424(a2)
     f60:	01088833          	add	a6,a7,a6
     f64:	3cd802a3          	sb	a3,965(a6)
     f68:	59062803          	lw	a6,1424(a2)
     f6c:	01e80833          	add	a6,a6,t5
     f70:	50d801a3          	sb	a3,1283(a6)
     f74:	59062803          	lw	a6,1424(a2)
     f78:	01d80833          	add	a6,a6,t4
     f7c:	50d80223          	sb	a3,1284(a6)
     f80:	59062803          	lw	a6,1424(a2)
     f84:	00b805b3          	add	a1,a6,a1
     f88:	50d582a3          	sb	a3,1285(a1)
     f8c:	59062583          	lw	a1,1424(a2)
     f90:	00a585b3          	add	a1,a1,a0
     f94:	00d581a3          	sb	a3,3(a1)
     f98:	59062583          	lw	a1,1424(a2)
     f9c:	00e58733          	add	a4,a1,a4
     fa0:	00d70223          	sb	a3,4(a4)
     fa4:	59062703          	lw	a4,1424(a2)
     fa8:	00f707b3          	add	a5,a4,a5
     fac:	00d782a3          	sb	a3,5(a5)
     fb0:	03c12403          	lw	s0,60(sp)
     fb4:	03812483          	lw	s1,56(sp)
     fb8:	04010113          	addi	sp,sp,64
     fbc:	00008067          	ret
     fc0:	00370693          	addi	a3,a4,3
     fc4:	00002637          	lui	a2,0x2
     fc8:	00269593          	slli	a1,a3,0x2
     fcc:	59062503          	lw	a0,1424(a2) # 2590 <vga_buffer>
     fd0:	00d585b3          	add	a1,a1,a3
     fd4:	00659593          	slli	a1,a1,0x6
     fd8:	00b786b3          	add	a3,a5,a1
     fdc:	02812e23          	sw	s0,60(sp)
     fe0:	02912c23          	sw	s1,56(sp)
     fe4:	00d50533          	add	a0,a0,a3
     fe8:	01f00693          	li	a3,31
     fec:	00d50023          	sb	a3,0(a0)
     ff0:	59062503          	lw	a0,1424(a2)
     ff4:	00b78833          	add	a6,a5,a1
     ff8:	00b788b3          	add	a7,a5,a1
     ffc:	01050533          	add	a0,a0,a6
    1000:	00d500a3          	sb	a3,1(a0)
    1004:	59062503          	lw	a0,1424(a2)
    1008:	00b78833          	add	a6,a5,a1
    100c:	00b78fb3          	add	t6,a5,a1
    1010:	01050533          	add	a0,a0,a6
    1014:	00d50123          	sb	a3,2(a0)
    1018:	59062803          	lw	a6,1424(a2)
    101c:	00b782b3          	add	t0,a5,a1
    1020:	00b783b3          	add	t2,a5,a1
    1024:	01180833          	add	a6,a6,a7
    1028:	00d801a3          	sb	a3,3(a6)
    102c:	59062803          	lw	a6,1424(a2)
    1030:	00b788b3          	add	a7,a5,a1
    1034:	00078513          	mv	a0,a5
    1038:	01180833          	add	a6,a6,a7
    103c:	00d80223          	sb	a3,4(a6)
    1040:	59062803          	lw	a6,1424(a2)
    1044:	00b788b3          	add	a7,a5,a1
    1048:	00078313          	mv	t1,a5
    104c:	01180833          	add	a6,a6,a7
    1050:	00d802a3          	sb	a3,5(a6)
    1054:	59062883          	lw	a7,1424(a2)
    1058:	00b78833          	add	a6,a5,a1
    105c:	00078f13          	mv	t5,a5
    1060:	01f888b3          	add	a7,a7,t6
    1064:	14d88023          	sb	a3,320(a7)
    1068:	59062883          	lw	a7,1424(a2)
    106c:	00b78fb3          	add	t6,a5,a1
    1070:	00078e93          	mv	t4,a5
    1074:	01f888b3          	add	a7,a7,t6
    1078:	14d880a3          	sb	a3,321(a7)
    107c:	59062883          	lw	a7,1424(a2)
    1080:	00870f93          	addi	t6,a4,8
    1084:	01e58f33          	add	t5,a1,t5
    1088:	00588733          	add	a4,a7,t0
    108c:	14d70123          	sb	a3,322(a4)
    1090:	59062703          	lw	a4,1424(a2)
    1094:	00b782b3          	add	t0,a5,a1
    1098:	00b787b3          	add	a5,a5,a1
    109c:	00770733          	add	a4,a4,t2
    10a0:	14d701a3          	sb	a3,323(a4)
    10a4:	59062703          	lw	a4,1424(a2)
    10a8:	01d58eb3          	add	t4,a1,t4
    10ac:	00a583b3          	add	t2,a1,a0
    10b0:	00570733          	add	a4,a4,t0
    10b4:	14d70223          	sb	a3,324(a4)
    10b8:	59062703          	lw	a4,1424(a2)
    10bc:	00a582b3          	add	t0,a1,a0
    10c0:	00a588b3          	add	a7,a1,a0
    10c4:	01070733          	add	a4,a4,a6
    10c8:	14d702a3          	sb	a3,325(a4)
    10cc:	59062703          	lw	a4,1424(a2)
    10d0:	00b50433          	add	s0,a0,a1
    10d4:	00b504b3          	add	s1,a0,a1
    10d8:	00f707b3          	add	a5,a4,a5
    10dc:	28d78023          	sb	a3,640(a5)
    10e0:	59062783          	lw	a5,1424(a2)
    10e4:	00b50833          	add	a6,a0,a1
    10e8:	01e787b3          	add	a5,a5,t5
    10ec:	28d780a3          	sb	a3,641(a5)
    10f0:	59062703          	lw	a4,1424(a2)
    10f4:	00b50f33          	add	t5,a0,a1
    10f8:	00b507b3          	add	a5,a0,a1
    10fc:	01d70733          	add	a4,a4,t4
    1100:	28d70123          	sb	a3,642(a4)
    1104:	59062703          	lw	a4,1424(a2)
    1108:	00b50eb3          	add	t4,a0,a1
    110c:	00770733          	add	a4,a4,t2
    1110:	28d701a3          	sb	a3,643(a4)
    1114:	59062703          	lw	a4,1424(a2)
    1118:	00570733          	add	a4,a4,t0
    111c:	28d70223          	sb	a3,644(a4)
    1120:	59062703          	lw	a4,1424(a2)
    1124:	01170733          	add	a4,a4,a7
    1128:	28d702a3          	sb	a3,645(a4)
    112c:	59062583          	lw	a1,1424(a2)
    1130:	002f9713          	slli	a4,t6,0x2
    1134:	01f70733          	add	a4,a4,t6
    1138:	007585b3          	add	a1,a1,t2
    113c:	28d581a3          	sb	a3,643(a1)
    1140:	59062583          	lw	a1,1424(a2)
    1144:	00671713          	slli	a4,a4,0x6
    1148:	00a70533          	add	a0,a4,a0
    114c:	005585b3          	add	a1,a1,t0
    1150:	28d58223          	sb	a3,644(a1)
    1154:	59062583          	lw	a1,1424(a2)
    1158:	011585b3          	add	a1,a1,a7
    115c:	28d582a3          	sb	a3,645(a1)
    1160:	59062583          	lw	a1,1424(a2)
    1164:	008585b3          	add	a1,a1,s0
    1168:	3cd581a3          	sb	a3,963(a1)
    116c:	59062883          	lw	a7,1424(a2)
    1170:	006705b3          	add	a1,a4,t1
    1174:	00670733          	add	a4,a4,t1
    1178:	009888b3          	add	a7,a7,s1
    117c:	3cd88223          	sb	a3,964(a7)
    1180:	59062883          	lw	a7,1424(a2)
    1184:	01088833          	add	a6,a7,a6
    1188:	3cd802a3          	sb	a3,965(a6)
    118c:	59062803          	lw	a6,1424(a2)
    1190:	01e80833          	add	a6,a6,t5
    1194:	50d801a3          	sb	a3,1283(a6)
    1198:	59062803          	lw	a6,1424(a2)
    119c:	01d80833          	add	a6,a6,t4
    11a0:	50d80223          	sb	a3,1284(a6)
    11a4:	59062803          	lw	a6,1424(a2)
    11a8:	00f807b3          	add	a5,a6,a5
    11ac:	50d782a3          	sb	a3,1285(a5)
    11b0:	59062783          	lw	a5,1424(a2)
    11b4:	00a787b3          	add	a5,a5,a0
    11b8:	00d781a3          	sb	a3,3(a5)
    11bc:	59062783          	lw	a5,1424(a2)
    11c0:	00b787b3          	add	a5,a5,a1
    11c4:	00d78223          	sb	a3,4(a5)
    11c8:	59062783          	lw	a5,1424(a2)
    11cc:	00e787b3          	add	a5,a5,a4
    11d0:	00d782a3          	sb	a3,5(a5)
    11d4:	03c12403          	lw	s0,60(sp)
    11d8:	03812483          	lw	s1,56(sp)
    11dc:	04010113          	addi	sp,sp,64
    11e0:	00008067          	ret
    11e4:	00008067          	ret

000011e8 <fill_display>:
    11e8:	00013837          	lui	a6,0x13
    11ec:	00050613          	mv	a2,a0
    11f0:	d4080813          	addi	a6,a6,-704 # 12d40 <__global_pointer+0xffb0>
    11f4:	14000693          	li	a3,320
    11f8:	00000513          	li	a0,0
    11fc:	000025b7          	lui	a1,0x2
    1200:	00050793          	mv	a5,a0
    1204:	5905a703          	lw	a4,1424(a1) # 2590 <vga_buffer>
    1208:	00f70733          	add	a4,a4,a5
    120c:	00c70023          	sb	a2,0(a4)
    1210:	00178793          	addi	a5,a5,1
    1214:	fed798e3          	bne	a5,a3,1204 <fill_display+0x1c>
    1218:	14078693          	addi	a3,a5,320
    121c:	14050513          	addi	a0,a0,320
    1220:	ff0690e3          	bne	a3,a6,1200 <fill_display+0x18>
    1224:	00008067          	ret

00001228 <main>:
    1228:	ff010113          	addi	sp,sp,-16
    122c:	00112623          	sw	ra,12(sp)
    1230:	fd9fe0ef          	jal	208 <vga_init>
    1234:	f45fe0ef          	jal	178 <set_gamemap>
    1238:	0000006f          	j	1238 <main+0x10>

Disassembly of section .data:

0000123c <welcome_msg>:
    123c:	3d3d                	.insn	2, 0x3d3d
    123e:	3d3d                	.insn	2, 0x3d3d
    1240:	3d3d                	.insn	2, 0x3d3d
    1242:	3d3d                	.insn	2, 0x3d3d
    1244:	3d3d                	.insn	2, 0x3d3d
    1246:	3d3d                	.insn	2, 0x3d3d
    1248:	3d3d                	.insn	2, 0x3d3d
    124a:	3d3d                	.insn	2, 0x3d3d
    124c:	3d3d                	.insn	2, 0x3d3d
    124e:	3d3d                	.insn	2, 0x3d3d
    1250:	3d3d                	.insn	2, 0x3d3d
    1252:	3d3d                	.insn	2, 0x3d3d
    1254:	3d3d                	.insn	2, 0x3d3d
    1256:	3d3d                	.insn	2, 0x3d3d
    1258:	3d3d                	.insn	2, 0x3d3d
    125a:	3d3d                	.insn	2, 0x3d3d
    125c:	3d3d                	.insn	2, 0x3d3d
    125e:	3d3d                	.insn	2, 0x3d3d
    1260:	3d3d                	.insn	2, 0x3d3d
    1262:	3d3d                	.insn	2, 0x3d3d
    1264:	3d3d                	.insn	2, 0x3d3d
    1266:	3d3d                	.insn	2, 0x3d3d
    1268:	3d3d                	.insn	2, 0x3d3d
    126a:	3d3d                	.insn	2, 0x3d3d
    126c:	3d0a                	.insn	2, 0x3d0a
    126e:	3d3d                	.insn	2, 0x3d3d
    1270:	3d3d                	.insn	2, 0x3d3d
    1272:	5220                	.insn	2, 0x5220
    1274:	5349                	.insn	2, 0x5349
    1276:	20562d43          	.insn	4, 0x20562d43
    127a:	6f42                	.insn	2, 0x6f42
    127c:	552d746f          	jal	s0,d87ce <__global_pointer+0xd5a3e>
    1280:	2070                	.insn	2, 0x2070
    1282:	7250                	.insn	2, 0x7250
    1284:	7365636f          	jal	t1,579ba <__global_pointer+0x54c2a>
    1288:	6f4e2073          	csrs	0x6f4,t3
    128c:	6f432077          	.insn	4, 0x6f432077
    1290:	706d                	.insn	2, 0x706d
    1292:	656c                	.insn	2, 0x656c
    1294:	6574                	.insn	2, 0x6574
    1296:	3d20                	.insn	2, 0x3d20
    1298:	3d3d                	.insn	2, 0x3d3d
    129a:	3d3d                	.insn	2, 0x3d3d
    129c:	0a3d                	.insn	2, 0x0a3d
    129e:	3d3d                	.insn	2, 0x3d3d
    12a0:	3d3d                	.insn	2, 0x3d3d
    12a2:	3d3d                	.insn	2, 0x3d3d
    12a4:	3d3d                	.insn	2, 0x3d3d
    12a6:	3d3d                	.insn	2, 0x3d3d
    12a8:	3d3d                	.insn	2, 0x3d3d
    12aa:	3d3d                	.insn	2, 0x3d3d
    12ac:	3d3d                	.insn	2, 0x3d3d
    12ae:	3d3d                	.insn	2, 0x3d3d
    12b0:	3d3d                	.insn	2, 0x3d3d
    12b2:	3d3d                	.insn	2, 0x3d3d
    12b4:	3d3d                	.insn	2, 0x3d3d
    12b6:	3d3d                	.insn	2, 0x3d3d
    12b8:	3d3d                	.insn	2, 0x3d3d
    12ba:	3d3d                	.insn	2, 0x3d3d
    12bc:	3d3d                	.insn	2, 0x3d3d
    12be:	3d3d                	.insn	2, 0x3d3d
    12c0:	3d3d                	.insn	2, 0x3d3d
    12c2:	3d3d                	.insn	2, 0x3d3d
    12c4:	3d3d                	.insn	2, 0x3d3d
    12c6:	3d3d                	.insn	2, 0x3d3d
    12c8:	3d3d                	.insn	2, 0x3d3d
    12ca:	3d3d                	.insn	2, 0x3d3d
    12cc:	3d3d                	.insn	2, 0x3d3d
    12ce:	000a                	.insn	2, 0x000a

000012d0 <map>:
	...
    1388:	00000003          	lb	zero,0(zero) # 0 <_isr_handler>
    138c:	0002                	.insn	2, 0x0002
    138e:	0000                	.insn	2, 0x0000
    1390:	0002                	.insn	2, 0x0002
    1392:	0000                	.insn	2, 0x0000
    1394:	0002                	.insn	2, 0x0002
    1396:	0000                	.insn	2, 0x0000
    1398:	0002                	.insn	2, 0x0002
    139a:	0000                	.insn	2, 0x0000
    139c:	0002                	.insn	2, 0x0002
    139e:	0000                	.insn	2, 0x0000
    13a0:	0002                	.insn	2, 0x0002
    13a2:	0000                	.insn	2, 0x0000
    13a4:	0002                	.insn	2, 0x0002
    13a6:	0000                	.insn	2, 0x0000
    13a8:	0002                	.insn	2, 0x0002
    13aa:	0000                	.insn	2, 0x0000
    13ac:	0002                	.insn	2, 0x0002
    13ae:	0000                	.insn	2, 0x0000
    13b0:	0002                	.insn	2, 0x0002
    13b2:	0000                	.insn	2, 0x0000
    13b4:	0002                	.insn	2, 0x0002
    13b6:	0000                	.insn	2, 0x0000
    13b8:	0002                	.insn	2, 0x0002
    13ba:	0000                	.insn	2, 0x0000
    13bc:	0004                	.insn	2, 0x0004
    13be:	0000                	.insn	2, 0x0000
    13c0:	00000003          	lb	zero,0(zero) # 0 <_isr_handler>
    13c4:	0002                	.insn	2, 0x0002
    13c6:	0000                	.insn	2, 0x0000
    13c8:	0002                	.insn	2, 0x0002
    13ca:	0000                	.insn	2, 0x0000
    13cc:	0002                	.insn	2, 0x0002
    13ce:	0000                	.insn	2, 0x0000
    13d0:	0002                	.insn	2, 0x0002
    13d2:	0000                	.insn	2, 0x0000
    13d4:	0002                	.insn	2, 0x0002
    13d6:	0000                	.insn	2, 0x0000
    13d8:	0002                	.insn	2, 0x0002
    13da:	0000                	.insn	2, 0x0000
    13dc:	0002                	.insn	2, 0x0002
    13de:	0000                	.insn	2, 0x0000
    13e0:	0002                	.insn	2, 0x0002
    13e2:	0000                	.insn	2, 0x0000
    13e4:	0002                	.insn	2, 0x0002
    13e6:	0000                	.insn	2, 0x0000
    13e8:	0002                	.insn	2, 0x0002
    13ea:	0000                	.insn	2, 0x0000
    13ec:	0002                	.insn	2, 0x0002
    13ee:	0000                	.insn	2, 0x0000
    13f0:	0002                	.insn	2, 0x0002
    13f2:	0000                	.insn	2, 0x0000
    13f4:	0004                	.insn	2, 0x0004
	...
    1426:	0000                	.insn	2, 0x0000
    1428:	0001                	.insn	2, 0x0001
	...
    145a:	0000                	.insn	2, 0x0000
    145c:	0001                	.insn	2, 0x0001
    145e:	0000                	.insn	2, 0x0000
    1460:	0001                	.insn	2, 0x0001
	...
    1492:	0000                	.insn	2, 0x0000
    1494:	0001                	.insn	2, 0x0001
	...
    14c6:	0000                	.insn	2, 0x0000
    14c8:	0001                	.insn	2, 0x0001
    14ca:	0000                	.insn	2, 0x0000
    14cc:	0000                	.insn	2, 0x0000
    14ce:	0000                	.insn	2, 0x0000
    14d0:	00000003          	lb	zero,0(zero) # 0 <_isr_handler>
    14d4:	0002                	.insn	2, 0x0002
    14d6:	0000                	.insn	2, 0x0000
    14d8:	0002                	.insn	2, 0x0002
    14da:	0000                	.insn	2, 0x0000
    14dc:	0004                	.insn	2, 0x0004
    14de:	0000                	.insn	2, 0x0000
    14e0:	0000                	.insn	2, 0x0000
    14e2:	0000                	.insn	2, 0x0000
    14e4:	00000003          	lb	zero,0(zero) # 0 <_isr_handler>
    14e8:	0002                	.insn	2, 0x0002
    14ea:	0000                	.insn	2, 0x0000
    14ec:	0002                	.insn	2, 0x0002
    14ee:	0000                	.insn	2, 0x0000
    14f0:	0002                	.insn	2, 0x0002
    14f2:	0000                	.insn	2, 0x0000
    14f4:	0004                	.insn	2, 0x0004
    14f6:	0000                	.insn	2, 0x0000
    14f8:	0000                	.insn	2, 0x0000
    14fa:	0000                	.insn	2, 0x0000
    14fc:	0001                	.insn	2, 0x0001
    14fe:	0000                	.insn	2, 0x0000
    1500:	0001                	.insn	2, 0x0001
    1502:	0000                	.insn	2, 0x0000
    1504:	0000                	.insn	2, 0x0000
    1506:	0000                	.insn	2, 0x0000
    1508:	00000003          	lb	zero,0(zero) # 0 <_isr_handler>
    150c:	0002                	.insn	2, 0x0002
    150e:	0000                	.insn	2, 0x0000
    1510:	0002                	.insn	2, 0x0002
    1512:	0000                	.insn	2, 0x0000
    1514:	0002                	.insn	2, 0x0002
    1516:	0000                	.insn	2, 0x0000
    1518:	0004                	.insn	2, 0x0004
    151a:	0000                	.insn	2, 0x0000
    151c:	0000                	.insn	2, 0x0000
    151e:	0000                	.insn	2, 0x0000
    1520:	00000003          	lb	zero,0(zero) # 0 <_isr_handler>
    1524:	0002                	.insn	2, 0x0002
    1526:	0000                	.insn	2, 0x0000
    1528:	0002                	.insn	2, 0x0002
    152a:	0000                	.insn	2, 0x0000
    152c:	0004                	.insn	2, 0x0004
    152e:	0000                	.insn	2, 0x0000
    1530:	0000                	.insn	2, 0x0000
    1532:	0000                	.insn	2, 0x0000
    1534:	0001                	.insn	2, 0x0001
	...
    1566:	0000                	.insn	2, 0x0000
    1568:	0001                	.insn	2, 0x0001
    156a:	0000                	.insn	2, 0x0000
    156c:	0000                	.insn	2, 0x0000
    156e:	0000                	.insn	2, 0x0000
    1570:	0005                	.insn	2, 0x0005
    1572:	0000                	.insn	2, 0x0000
    1574:	0002                	.insn	2, 0x0002
    1576:	0000                	.insn	2, 0x0000
    1578:	0002                	.insn	2, 0x0002
    157a:	0000                	.insn	2, 0x0000
    157c:	0006                	.insn	2, 0x0006
    157e:	0000                	.insn	2, 0x0000
    1580:	0000                	.insn	2, 0x0000
    1582:	0000                	.insn	2, 0x0000
    1584:	0005                	.insn	2, 0x0005
    1586:	0000                	.insn	2, 0x0000
    1588:	0002                	.insn	2, 0x0002
    158a:	0000                	.insn	2, 0x0000
    158c:	0002                	.insn	2, 0x0002
    158e:	0000                	.insn	2, 0x0000
    1590:	0002                	.insn	2, 0x0002
    1592:	0000                	.insn	2, 0x0000
    1594:	0006                	.insn	2, 0x0006
    1596:	0000                	.insn	2, 0x0000
    1598:	0000                	.insn	2, 0x0000
    159a:	0000                	.insn	2, 0x0000
    159c:	0005                	.insn	2, 0x0005
    159e:	0000                	.insn	2, 0x0000
    15a0:	0006                	.insn	2, 0x0006
    15a2:	0000                	.insn	2, 0x0000
    15a4:	0000                	.insn	2, 0x0000
    15a6:	0000                	.insn	2, 0x0000
    15a8:	0005                	.insn	2, 0x0005
    15aa:	0000                	.insn	2, 0x0000
    15ac:	0002                	.insn	2, 0x0002
    15ae:	0000                	.insn	2, 0x0000
    15b0:	0002                	.insn	2, 0x0002
    15b2:	0000                	.insn	2, 0x0000
    15b4:	0002                	.insn	2, 0x0002
    15b6:	0000                	.insn	2, 0x0000
    15b8:	0006                	.insn	2, 0x0006
    15ba:	0000                	.insn	2, 0x0000
    15bc:	0000                	.insn	2, 0x0000
    15be:	0000                	.insn	2, 0x0000
    15c0:	0005                	.insn	2, 0x0005
    15c2:	0000                	.insn	2, 0x0000
    15c4:	0002                	.insn	2, 0x0002
    15c6:	0000                	.insn	2, 0x0000
    15c8:	0002                	.insn	2, 0x0002
    15ca:	0000                	.insn	2, 0x0000
    15cc:	0006                	.insn	2, 0x0006
    15ce:	0000                	.insn	2, 0x0000
    15d0:	0000                	.insn	2, 0x0000
    15d2:	0000                	.insn	2, 0x0000
    15d4:	0001                	.insn	2, 0x0001
	...
    1606:	0000                	.insn	2, 0x0000
    1608:	0001                	.insn	2, 0x0001
	...
    1672:	0000                	.insn	2, 0x0000
    1674:	0001                	.insn	2, 0x0001
	...
    16a6:	0000                	.insn	2, 0x0000
    16a8:	0001                	.insn	2, 0x0001
    16aa:	0000                	.insn	2, 0x0000
    16ac:	0000                	.insn	2, 0x0000
    16ae:	0000                	.insn	2, 0x0000
    16b0:	00000003          	lb	zero,0(zero) # 0 <_isr_handler>
    16b4:	0002                	.insn	2, 0x0002
    16b6:	0000                	.insn	2, 0x0000
    16b8:	0002                	.insn	2, 0x0002
    16ba:	0000                	.insn	2, 0x0000
    16bc:	0004                	.insn	2, 0x0004
	...
    16ce:	0000                	.insn	2, 0x0000
    16d0:	00000003          	lb	zero,0(zero) # 0 <_isr_handler>
    16d4:	0002                	.insn	2, 0x0002
    16d6:	0000                	.insn	2, 0x0000
    16d8:	0002                	.insn	2, 0x0002
    16da:	0000                	.insn	2, 0x0000
    16dc:	0002                	.insn	2, 0x0002
    16de:	0000                	.insn	2, 0x0000
    16e0:	0002                	.insn	2, 0x0002
    16e2:	0000                	.insn	2, 0x0000
    16e4:	0002                	.insn	2, 0x0002
    16e6:	0000                	.insn	2, 0x0000
    16e8:	0002                	.insn	2, 0x0002
    16ea:	0000                	.insn	2, 0x0000
    16ec:	0004                	.insn	2, 0x0004
    16ee:	0000                	.insn	2, 0x0000
    16f0:	0000                	.insn	2, 0x0000
    16f2:	0000                	.insn	2, 0x0000
    16f4:	00000003          	lb	zero,0(zero) # 0 <_isr_handler>
    16f8:	0004                	.insn	2, 0x0004
    16fa:	0000                	.insn	2, 0x0000
    16fc:	0000                	.insn	2, 0x0000
    16fe:	0000                	.insn	2, 0x0000
    1700:	00000003          	lb	zero,0(zero) # 0 <_isr_handler>
    1704:	0002                	.insn	2, 0x0002
    1706:	0000                	.insn	2, 0x0000
    1708:	0002                	.insn	2, 0x0002
    170a:	0000                	.insn	2, 0x0000
    170c:	0004                	.insn	2, 0x0004
    170e:	0000                	.insn	2, 0x0000
    1710:	0000                	.insn	2, 0x0000
    1712:	0000                	.insn	2, 0x0000
    1714:	0001                	.insn	2, 0x0001
	...
    1746:	0000                	.insn	2, 0x0000
    1748:	0001                	.insn	2, 0x0001
    174a:	0000                	.insn	2, 0x0000
    174c:	0000                	.insn	2, 0x0000
    174e:	0000                	.insn	2, 0x0000
    1750:	0001                	.insn	2, 0x0001
	...
    175a:	0000                	.insn	2, 0x0000
    175c:	0001                	.insn	2, 0x0001
    175e:	0000                	.insn	2, 0x0000
    1760:	0000                	.insn	2, 0x0000
    1762:	0000                	.insn	2, 0x0000
    1764:	00000003          	lb	zero,0(zero) # 0 <_isr_handler>
    1768:	0004                	.insn	2, 0x0004
    176a:	0000                	.insn	2, 0x0000
    176c:	0000                	.insn	2, 0x0000
    176e:	0000                	.insn	2, 0x0000
    1770:	0005                	.insn	2, 0x0005
    1772:	0000                	.insn	2, 0x0000
    1774:	0002                	.insn	2, 0x0002
    1776:	0000                	.insn	2, 0x0000
    1778:	0002                	.insn	2, 0x0002
    177a:	0000                	.insn	2, 0x0000
    177c:	0004                	.insn	2, 0x0004
    177e:	0000                	.insn	2, 0x0000
    1780:	00000003          	lb	zero,0(zero) # 0 <_isr_handler>
    1784:	0002                	.insn	2, 0x0002
    1786:	0000                	.insn	2, 0x0000
    1788:	0002                	.insn	2, 0x0002
    178a:	0000                	.insn	2, 0x0000
    178c:	0006                	.insn	2, 0x0006
    178e:	0000                	.insn	2, 0x0000
    1790:	0000                	.insn	2, 0x0000
    1792:	0000                	.insn	2, 0x0000
    1794:	0001                	.insn	2, 0x0001
    1796:	0000                	.insn	2, 0x0000
    1798:	0001                	.insn	2, 0x0001
    179a:	0000                	.insn	2, 0x0000
    179c:	0000                	.insn	2, 0x0000
    179e:	0000                	.insn	2, 0x0000
    17a0:	0001                	.insn	2, 0x0001
	...
    17aa:	0000                	.insn	2, 0x0000
    17ac:	0001                	.insn	2, 0x0001
    17ae:	0000                	.insn	2, 0x0000
    17b0:	0000                	.insn	2, 0x0000
    17b2:	0000                	.insn	2, 0x0000
    17b4:	0001                	.insn	2, 0x0001
	...
    17e6:	0000                	.insn	2, 0x0000
    17e8:	0001                	.insn	2, 0x0001
    17ea:	0000                	.insn	2, 0x0000
    17ec:	0000                	.insn	2, 0x0000
    17ee:	0000                	.insn	2, 0x0000
    17f0:	0005                	.insn	2, 0x0005
    17f2:	0000                	.insn	2, 0x0000
    17f4:	0002                	.insn	2, 0x0002
    17f6:	0000                	.insn	2, 0x0000
    17f8:	0002                	.insn	2, 0x0002
    17fa:	0000                	.insn	2, 0x0000
    17fc:	0006                	.insn	2, 0x0006
    17fe:	0000                	.insn	2, 0x0000
    1800:	0000                	.insn	2, 0x0000
    1802:	0000                	.insn	2, 0x0000
    1804:	0001                	.insn	2, 0x0001
    1806:	0000                	.insn	2, 0x0000
    1808:	0001                	.insn	2, 0x0001
	...
    181a:	0000                	.insn	2, 0x0000
    181c:	0001                	.insn	2, 0x0001
    181e:	0000                	.insn	2, 0x0000
    1820:	0001                	.insn	2, 0x0001
	...
    1832:	0000                	.insn	2, 0x0000
    1834:	0001                	.insn	2, 0x0001
    1836:	0000                	.insn	2, 0x0000
    1838:	0001                	.insn	2, 0x0001
    183a:	0000                	.insn	2, 0x0000
    183c:	0000                	.insn	2, 0x0000
    183e:	0000                	.insn	2, 0x0000
    1840:	0005                	.insn	2, 0x0005
    1842:	0000                	.insn	2, 0x0000
    1844:	0002                	.insn	2, 0x0002
    1846:	0000                	.insn	2, 0x0000
    1848:	0002                	.insn	2, 0x0002
    184a:	0000                	.insn	2, 0x0000
    184c:	0006                	.insn	2, 0x0006
    184e:	0000                	.insn	2, 0x0000
    1850:	0000                	.insn	2, 0x0000
    1852:	0000                	.insn	2, 0x0000
    1854:	0001                	.insn	2, 0x0001
	...
    1886:	0000                	.insn	2, 0x0000
    1888:	0001                	.insn	2, 0x0001
	...
    18a2:	0000                	.insn	2, 0x0000
    18a4:	0001                	.insn	2, 0x0001
    18a6:	0000                	.insn	2, 0x0000
    18a8:	0001                	.insn	2, 0x0001
	...
    18ba:	0000                	.insn	2, 0x0000
    18bc:	0001                	.insn	2, 0x0001
    18be:	0000                	.insn	2, 0x0000
    18c0:	0001                	.insn	2, 0x0001
    18c2:	0000                	.insn	2, 0x0000
    18c4:	0000                	.insn	2, 0x0000
    18c6:	0000                	.insn	2, 0x0000
    18c8:	00000003          	lb	zero,0(zero) # 0 <_isr_handler>
    18cc:	0002                	.insn	2, 0x0002
    18ce:	0000                	.insn	2, 0x0000
    18d0:	0002                	.insn	2, 0x0002
    18d2:	0000                	.insn	2, 0x0000
    18d4:	0006                	.insn	2, 0x0006
    18d6:	0000                	.insn	2, 0x0000
    18d8:	0001                	.insn	2, 0x0001
	...
    18f2:	0000                	.insn	2, 0x0000
    18f4:	0001                	.insn	2, 0x0001
	...
    1926:	0000                	.insn	2, 0x0000
    1928:	0005                	.insn	2, 0x0005
    192a:	0000                	.insn	2, 0x0000
    192c:	0002                	.insn	2, 0x0002
    192e:	0000                	.insn	2, 0x0000
    1930:	0002                	.insn	2, 0x0002
    1932:	0000                	.insn	2, 0x0000
    1934:	0002                	.insn	2, 0x0002
    1936:	0000                	.insn	2, 0x0000
    1938:	0002                	.insn	2, 0x0002
    193a:	0000                	.insn	2, 0x0000
    193c:	0004                	.insn	2, 0x0004
    193e:	0000                	.insn	2, 0x0000
    1940:	0000                	.insn	2, 0x0000
    1942:	0000                	.insn	2, 0x0000
    1944:	0001                	.insn	2, 0x0001
    1946:	0000                	.insn	2, 0x0000
    1948:	0005                	.insn	2, 0x0005
    194a:	0000                	.insn	2, 0x0000
    194c:	0002                	.insn	2, 0x0002
    194e:	0000                	.insn	2, 0x0000
    1950:	0002                	.insn	2, 0x0002
    1952:	0000                	.insn	2, 0x0000
    1954:	0004                	.insn	2, 0x0004
    1956:	0000                	.insn	2, 0x0000
    1958:	0000                	.insn	2, 0x0000
    195a:	0000                	.insn	2, 0x0000
    195c:	0005                	.insn	2, 0x0005
    195e:	0000                	.insn	2, 0x0000
    1960:	0006                	.insn	2, 0x0006
    1962:	0000                	.insn	2, 0x0000
    1964:	0000                	.insn	2, 0x0000
    1966:	0000                	.insn	2, 0x0000
    1968:	0005                	.insn	2, 0x0005
    196a:	0000                	.insn	2, 0x0000
    196c:	0002                	.insn	2, 0x0002
    196e:	0000                	.insn	2, 0x0000
    1970:	0002                	.insn	2, 0x0002
    1972:	0000                	.insn	2, 0x0000
    1974:	0004                	.insn	2, 0x0004
    1976:	0000                	.insn	2, 0x0000
    1978:	0001                	.insn	2, 0x0001
    197a:	0000                	.insn	2, 0x0000
    197c:	0000                	.insn	2, 0x0000
    197e:	0000                	.insn	2, 0x0000
    1980:	00000003          	lb	zero,0(zero) # 0 <_isr_handler>
    1984:	0002                	.insn	2, 0x0002
    1986:	0000                	.insn	2, 0x0000
    1988:	0002                	.insn	2, 0x0002
    198a:	0000                	.insn	2, 0x0000
    198c:	0002                	.insn	2, 0x0002
    198e:	0000                	.insn	2, 0x0000
    1990:	0002                	.insn	2, 0x0002
    1992:	0000                	.insn	2, 0x0000
    1994:	0006                	.insn	2, 0x0006
	...
    19da:	0000                	.insn	2, 0x0000
    19dc:	0001                	.insn	2, 0x0001
    19de:	0000                	.insn	2, 0x0000
    19e0:	0000                	.insn	2, 0x0000
    19e2:	0000                	.insn	2, 0x0000
    19e4:	0001                	.insn	2, 0x0001
    19e6:	0000                	.insn	2, 0x0000
    19e8:	00000003          	lb	zero,0(zero) # 0 <_isr_handler>
    19ec:	0002                	.insn	2, 0x0002
    19ee:	0000                	.insn	2, 0x0000
    19f0:	0002                	.insn	2, 0x0002
    19f2:	0000                	.insn	2, 0x0000
    19f4:	0006                	.insn	2, 0x0006
	...
    1a12:	0000                	.insn	2, 0x0000
    1a14:	0001                	.insn	2, 0x0001
    1a16:	0000                	.insn	2, 0x0000
    1a18:	0001                	.insn	2, 0x0001
    1a1a:	0000                	.insn	2, 0x0000
    1a1c:	0000                	.insn	2, 0x0000
    1a1e:	0000                	.insn	2, 0x0000
    1a20:	0001                	.insn	2, 0x0001
	...
    1a7a:	0000                	.insn	2, 0x0000
    1a7c:	0001                	.insn	2, 0x0001
    1a7e:	0000                	.insn	2, 0x0000
    1a80:	0000                	.insn	2, 0x0000
    1a82:	0000                	.insn	2, 0x0000
    1a84:	0001                	.insn	2, 0x0001
    1a86:	0000                	.insn	2, 0x0000
    1a88:	0001                	.insn	2, 0x0001
	...
    1ab2:	0000                	.insn	2, 0x0000
    1ab4:	0001                	.insn	2, 0x0001
    1ab6:	0000                	.insn	2, 0x0000
    1ab8:	0001                	.insn	2, 0x0001
    1aba:	0000                	.insn	2, 0x0000
    1abc:	0000                	.insn	2, 0x0000
    1abe:	0000                	.insn	2, 0x0000
    1ac0:	0001                	.insn	2, 0x0001
	...
    1b06:	0000                	.insn	2, 0x0000
    1b08:	0002                	.insn	2, 0x0002
    1b0a:	0000                	.insn	2, 0x0000
    1b0c:	0002                	.insn	2, 0x0002
    1b0e:	0000                	.insn	2, 0x0000
    1b10:	0002                	.insn	2, 0x0002
    1b12:	0000                	.insn	2, 0x0000
    1b14:	0002                	.insn	2, 0x0002
    1b16:	0000                	.insn	2, 0x0000
    1b18:	0002                	.insn	2, 0x0002
    1b1a:	0000                	.insn	2, 0x0000
    1b1c:	0006                	.insn	2, 0x0006
    1b1e:	0000                	.insn	2, 0x0000
    1b20:	0000                	.insn	2, 0x0000
    1b22:	0000                	.insn	2, 0x0000
    1b24:	0005                	.insn	2, 0x0005
    1b26:	0000                	.insn	2, 0x0000
    1b28:	0006                	.insn	2, 0x0006
    1b2a:	0000                	.insn	2, 0x0000
    1b2c:	0000                	.insn	2, 0x0000
    1b2e:	0000                	.insn	2, 0x0000
    1b30:	00000003          	lb	zero,0(zero) # 0 <_isr_handler>
    1b34:	0002                	.insn	2, 0x0002
    1b36:	0000                	.insn	2, 0x0000
    1b38:	0002                	.insn	2, 0x0002
    1b3a:	0000                	.insn	2, 0x0000
    1b3c:	0002                	.insn	2, 0x0002
    1b3e:	0000                	.insn	2, 0x0000
    1b40:	0002                	.insn	2, 0x0002
    1b42:	0000                	.insn	2, 0x0000
    1b44:	0002                	.insn	2, 0x0002
    1b46:	0000                	.insn	2, 0x0000
    1b48:	0002                	.insn	2, 0x0002
    1b4a:	0000                	.insn	2, 0x0000
    1b4c:	0004                	.insn	2, 0x0004
    1b4e:	0000                	.insn	2, 0x0000
    1b50:	0000                	.insn	2, 0x0000
    1b52:	0000                	.insn	2, 0x0000
    1b54:	0005                	.insn	2, 0x0005
    1b56:	0000                	.insn	2, 0x0000
    1b58:	0006                	.insn	2, 0x0006
    1b5a:	0000                	.insn	2, 0x0000
    1b5c:	0000                	.insn	2, 0x0000
    1b5e:	0000                	.insn	2, 0x0000
    1b60:	0005                	.insn	2, 0x0005
    1b62:	0000                	.insn	2, 0x0000
    1b64:	0002                	.insn	2, 0x0002
    1b66:	0000                	.insn	2, 0x0000
    1b68:	0002                	.insn	2, 0x0002
    1b6a:	0000                	.insn	2, 0x0000
    1b6c:	0002                	.insn	2, 0x0002
    1b6e:	0000                	.insn	2, 0x0000
    1b70:	0002                	.insn	2, 0x0002
    1b72:	0000                	.insn	2, 0x0000
    1b74:	0002                	.insn	2, 0x0002
	...
    1bce:	0000                	.insn	2, 0x0000
    1bd0:	0001                	.insn	2, 0x0001
	...
    1bea:	0000                	.insn	2, 0x0000
    1bec:	0001                	.insn	2, 0x0001
	...
    1c46:	0000                	.insn	2, 0x0000
    1c48:	0002                	.insn	2, 0x0002
    1c4a:	0000                	.insn	2, 0x0000
    1c4c:	0002                	.insn	2, 0x0002
    1c4e:	0000                	.insn	2, 0x0000
    1c50:	0002                	.insn	2, 0x0002
    1c52:	0000                	.insn	2, 0x0000
    1c54:	0002                	.insn	2, 0x0002
    1c56:	0000                	.insn	2, 0x0000
    1c58:	0002                	.insn	2, 0x0002
    1c5a:	0000                	.insn	2, 0x0000
    1c5c:	0004                	.insn	2, 0x0004
    1c5e:	0000                	.insn	2, 0x0000
    1c60:	0000                	.insn	2, 0x0000
    1c62:	0000                	.insn	2, 0x0000
    1c64:	00000003          	lb	zero,0(zero) # 0 <_isr_handler>
    1c68:	0004                	.insn	2, 0x0004
    1c6a:	0000                	.insn	2, 0x0000
    1c6c:	0000                	.insn	2, 0x0000
    1c6e:	0000                	.insn	2, 0x0000
    1c70:	0005                	.insn	2, 0x0005
    1c72:	0000                	.insn	2, 0x0000
    1c74:	0002                	.insn	2, 0x0002
    1c76:	0000                	.insn	2, 0x0000
    1c78:	0002                	.insn	2, 0x0002
    1c7a:	0000                	.insn	2, 0x0000
    1c7c:	0002                	.insn	2, 0x0002
    1c7e:	0000                	.insn	2, 0x0000
    1c80:	0002                	.insn	2, 0x0002
    1c82:	0000                	.insn	2, 0x0000
    1c84:	0002                	.insn	2, 0x0002
    1c86:	0000                	.insn	2, 0x0000
    1c88:	0002                	.insn	2, 0x0002
    1c8a:	0000                	.insn	2, 0x0000
    1c8c:	0006                	.insn	2, 0x0006
	...
    1c9e:	0000                	.insn	2, 0x0000
    1ca0:	00000003          	lb	zero,0(zero) # 0 <_isr_handler>
    1ca4:	0002                	.insn	2, 0x0002
    1ca6:	0000                	.insn	2, 0x0000
    1ca8:	0002                	.insn	2, 0x0002
    1caa:	0000                	.insn	2, 0x0000
    1cac:	0002                	.insn	2, 0x0002
    1cae:	0000                	.insn	2, 0x0000
    1cb0:	0002                	.insn	2, 0x0002
    1cb2:	0000                	.insn	2, 0x0000
    1cb4:	0002                	.insn	2, 0x0002
	...
    1cfa:	0000                	.insn	2, 0x0000
    1cfc:	0001                	.insn	2, 0x0001
    1cfe:	0000                	.insn	2, 0x0000
    1d00:	0000                	.insn	2, 0x0000
    1d02:	0000                	.insn	2, 0x0000
    1d04:	0001                	.insn	2, 0x0001
    1d06:	0000                	.insn	2, 0x0000
    1d08:	0001                	.insn	2, 0x0001
	...
    1d32:	0000                	.insn	2, 0x0000
    1d34:	00000003          	lb	zero,0(zero) # 0 <_isr_handler>
    1d38:	0004                	.insn	2, 0x0004
    1d3a:	0000                	.insn	2, 0x0000
    1d3c:	0000                	.insn	2, 0x0000
    1d3e:	0000                	.insn	2, 0x0000
    1d40:	0001                	.insn	2, 0x0001
	...
    1d9a:	0000                	.insn	2, 0x0000
    1d9c:	0001                	.insn	2, 0x0001
    1d9e:	0000                	.insn	2, 0x0000
    1da0:	0000                	.insn	2, 0x0000
    1da2:	0000                	.insn	2, 0x0000
    1da4:	0001                	.insn	2, 0x0001
    1da6:	0000                	.insn	2, 0x0000
    1da8:	0001                	.insn	2, 0x0001
    1daa:	0000                	.insn	2, 0x0000
    1dac:	0000                	.insn	2, 0x0000
    1dae:	0000                	.insn	2, 0x0000
    1db0:	00000003          	lb	zero,0(zero) # 0 <_isr_handler>
    1db4:	0002                	.insn	2, 0x0002
    1db6:	0000                	.insn	2, 0x0000
    1db8:	0002                	.insn	2, 0x0002
    1dba:	0000                	.insn	2, 0x0000
    1dbc:	0002                	.insn	2, 0x0002
    1dbe:	0000                	.insn	2, 0x0000
    1dc0:	0002                	.insn	2, 0x0002
    1dc2:	0000                	.insn	2, 0x0000
    1dc4:	0002                	.insn	2, 0x0002
    1dc6:	0000                	.insn	2, 0x0000
    1dc8:	0002                	.insn	2, 0x0002
    1dca:	0000                	.insn	2, 0x0000
    1dcc:	0004                	.insn	2, 0x0004
    1dce:	0000                	.insn	2, 0x0000
    1dd0:	0000                	.insn	2, 0x0000
    1dd2:	0000                	.insn	2, 0x0000
    1dd4:	0001                	.insn	2, 0x0001
    1dd6:	0000                	.insn	2, 0x0000
    1dd8:	0001                	.insn	2, 0x0001
    1dda:	0000                	.insn	2, 0x0000
    1ddc:	0000                	.insn	2, 0x0000
    1dde:	0000                	.insn	2, 0x0000
    1de0:	0001                	.insn	2, 0x0001
	...
    1e26:	0000                	.insn	2, 0x0000
    1e28:	00000003          	lb	zero,0(zero) # 0 <_isr_handler>
    1e2c:	0002                	.insn	2, 0x0002
    1e2e:	0000                	.insn	2, 0x0000
    1e30:	0002                	.insn	2, 0x0002
    1e32:	0000                	.insn	2, 0x0000
    1e34:	0002                	.insn	2, 0x0002
    1e36:	0000                	.insn	2, 0x0000
    1e38:	0002                	.insn	2, 0x0002
    1e3a:	0000                	.insn	2, 0x0000
    1e3c:	0006                	.insn	2, 0x0006
    1e3e:	0000                	.insn	2, 0x0000
    1e40:	0000                	.insn	2, 0x0000
    1e42:	0000                	.insn	2, 0x0000
    1e44:	0005                	.insn	2, 0x0005
    1e46:	0000                	.insn	2, 0x0000
    1e48:	0006                	.insn	2, 0x0006
    1e4a:	0000                	.insn	2, 0x0000
    1e4c:	0000                	.insn	2, 0x0000
    1e4e:	0000                	.insn	2, 0x0000
    1e50:	0005                	.insn	2, 0x0005
    1e52:	0000                	.insn	2, 0x0000
    1e54:	0002                	.insn	2, 0x0002
    1e56:	0000                	.insn	2, 0x0000
    1e58:	0002                	.insn	2, 0x0002
    1e5a:	0000                	.insn	2, 0x0000
    1e5c:	0004                	.insn	2, 0x0004
    1e5e:	0000                	.insn	2, 0x0000
    1e60:	00000003          	lb	zero,0(zero) # 0 <_isr_handler>
    1e64:	0002                	.insn	2, 0x0002
    1e66:	0000                	.insn	2, 0x0000
    1e68:	0002                	.insn	2, 0x0002
    1e6a:	0000                	.insn	2, 0x0000
    1e6c:	0006                	.insn	2, 0x0006
    1e6e:	0000                	.insn	2, 0x0000
    1e70:	0000                	.insn	2, 0x0000
    1e72:	0000                	.insn	2, 0x0000
    1e74:	0005                	.insn	2, 0x0005
    1e76:	0000                	.insn	2, 0x0000
    1e78:	0006                	.insn	2, 0x0006
    1e7a:	0000                	.insn	2, 0x0000
    1e7c:	0000                	.insn	2, 0x0000
    1e7e:	0000                	.insn	2, 0x0000
    1e80:	0005                	.insn	2, 0x0005
    1e82:	0000                	.insn	2, 0x0000
    1e84:	0002                	.insn	2, 0x0002
    1e86:	0000                	.insn	2, 0x0000
    1e88:	0002                	.insn	2, 0x0002
    1e8a:	0000                	.insn	2, 0x0000
    1e8c:	0002                	.insn	2, 0x0002
    1e8e:	0000                	.insn	2, 0x0000
    1e90:	0002                	.insn	2, 0x0002
    1e92:	0000                	.insn	2, 0x0000
    1e94:	0004                	.insn	2, 0x0004
	...
    1ec6:	0000                	.insn	2, 0x0000
    1ec8:	0001                	.insn	2, 0x0001
	...
    1efa:	0000                	.insn	2, 0x0000
    1efc:	0001                	.insn	2, 0x0001
    1efe:	0000                	.insn	2, 0x0000
    1f00:	0001                	.insn	2, 0x0001
	...
    1f32:	0000                	.insn	2, 0x0000
    1f34:	0001                	.insn	2, 0x0001
	...
    1f66:	0000                	.insn	2, 0x0000
    1f68:	0001                	.insn	2, 0x0001
    1f6a:	0000                	.insn	2, 0x0000
    1f6c:	0000                	.insn	2, 0x0000
    1f6e:	0000                	.insn	2, 0x0000
    1f70:	00000003          	lb	zero,0(zero) # 0 <_isr_handler>
    1f74:	0002                	.insn	2, 0x0002
    1f76:	0000                	.insn	2, 0x0000
    1f78:	0002                	.insn	2, 0x0002
    1f7a:	0000                	.insn	2, 0x0000
    1f7c:	0004                	.insn	2, 0x0004
    1f7e:	0000                	.insn	2, 0x0000
    1f80:	0000                	.insn	2, 0x0000
    1f82:	0000                	.insn	2, 0x0000
    1f84:	00000003          	lb	zero,0(zero) # 0 <_isr_handler>
    1f88:	0002                	.insn	2, 0x0002
    1f8a:	0000                	.insn	2, 0x0000
    1f8c:	0002                	.insn	2, 0x0002
    1f8e:	0000                	.insn	2, 0x0000
    1f90:	0002                	.insn	2, 0x0002
    1f92:	0000                	.insn	2, 0x0000
    1f94:	0004                	.insn	2, 0x0004
    1f96:	0000                	.insn	2, 0x0000
    1f98:	0000                	.insn	2, 0x0000
    1f9a:	0000                	.insn	2, 0x0000
    1f9c:	0001                	.insn	2, 0x0001
    1f9e:	0000                	.insn	2, 0x0000
    1fa0:	0001                	.insn	2, 0x0001
    1fa2:	0000                	.insn	2, 0x0000
    1fa4:	0000                	.insn	2, 0x0000
    1fa6:	0000                	.insn	2, 0x0000
    1fa8:	00000003          	lb	zero,0(zero) # 0 <_isr_handler>
    1fac:	0002                	.insn	2, 0x0002
    1fae:	0000                	.insn	2, 0x0000
    1fb0:	0002                	.insn	2, 0x0002
    1fb2:	0000                	.insn	2, 0x0000
    1fb4:	0002                	.insn	2, 0x0002
    1fb6:	0000                	.insn	2, 0x0000
    1fb8:	0004                	.insn	2, 0x0004
    1fba:	0000                	.insn	2, 0x0000
    1fbc:	0000                	.insn	2, 0x0000
    1fbe:	0000                	.insn	2, 0x0000
    1fc0:	00000003          	lb	zero,0(zero) # 0 <_isr_handler>
    1fc4:	0002                	.insn	2, 0x0002
    1fc6:	0000                	.insn	2, 0x0000
    1fc8:	0002                	.insn	2, 0x0002
    1fca:	0000                	.insn	2, 0x0000
    1fcc:	0004                	.insn	2, 0x0004
    1fce:	0000                	.insn	2, 0x0000
    1fd0:	0000                	.insn	2, 0x0000
    1fd2:	0000                	.insn	2, 0x0000
    1fd4:	0001                	.insn	2, 0x0001
	...
    2006:	0000                	.insn	2, 0x0000
    2008:	0001                	.insn	2, 0x0001
    200a:	0000                	.insn	2, 0x0000
    200c:	0000                	.insn	2, 0x0000
    200e:	0000                	.insn	2, 0x0000
    2010:	0005                	.insn	2, 0x0005
    2012:	0000                	.insn	2, 0x0000
    2014:	0002                	.insn	2, 0x0002
    2016:	0000                	.insn	2, 0x0000
    2018:	0004                	.insn	2, 0x0004
    201a:	0000                	.insn	2, 0x0000
    201c:	0001                	.insn	2, 0x0001
    201e:	0000                	.insn	2, 0x0000
    2020:	0000                	.insn	2, 0x0000
    2022:	0000                	.insn	2, 0x0000
    2024:	0005                	.insn	2, 0x0005
    2026:	0000                	.insn	2, 0x0000
    2028:	0002                	.insn	2, 0x0002
    202a:	0000                	.insn	2, 0x0000
    202c:	0002                	.insn	2, 0x0002
    202e:	0000                	.insn	2, 0x0000
    2030:	0002                	.insn	2, 0x0002
    2032:	0000                	.insn	2, 0x0000
    2034:	0006                	.insn	2, 0x0006
    2036:	0000                	.insn	2, 0x0000
    2038:	0000                	.insn	2, 0x0000
    203a:	0000                	.insn	2, 0x0000
    203c:	0005                	.insn	2, 0x0005
    203e:	0000                	.insn	2, 0x0000
    2040:	0006                	.insn	2, 0x0006
    2042:	0000                	.insn	2, 0x0000
    2044:	0000                	.insn	2, 0x0000
    2046:	0000                	.insn	2, 0x0000
    2048:	0005                	.insn	2, 0x0005
    204a:	0000                	.insn	2, 0x0000
    204c:	0002                	.insn	2, 0x0002
    204e:	0000                	.insn	2, 0x0000
    2050:	0002                	.insn	2, 0x0002
    2052:	0000                	.insn	2, 0x0000
    2054:	0002                	.insn	2, 0x0002
    2056:	0000                	.insn	2, 0x0000
    2058:	0006                	.insn	2, 0x0006
    205a:	0000                	.insn	2, 0x0000
    205c:	0000                	.insn	2, 0x0000
    205e:	0000                	.insn	2, 0x0000
    2060:	0001                	.insn	2, 0x0001
    2062:	0000                	.insn	2, 0x0000
    2064:	00000003          	lb	zero,0(zero) # 0 <_isr_handler>
    2068:	0002                	.insn	2, 0x0002
    206a:	0000                	.insn	2, 0x0000
    206c:	0006                	.insn	2, 0x0006
    206e:	0000                	.insn	2, 0x0000
    2070:	0000                	.insn	2, 0x0000
    2072:	0000                	.insn	2, 0x0000
    2074:	0001                	.insn	2, 0x0001
	...
    20a6:	0000                	.insn	2, 0x0000
    20a8:	0001                	.insn	2, 0x0001
	...
    20b6:	0000                	.insn	2, 0x0000
    20b8:	0001                	.insn	2, 0x0001
    20ba:	0000                	.insn	2, 0x0000
    20bc:	0001                	.insn	2, 0x0001
	...
    20fe:	0000                	.insn	2, 0x0000
    2100:	0001                	.insn	2, 0x0001
    2102:	0000                	.insn	2, 0x0000
    2104:	0001                	.insn	2, 0x0001
	...
    2112:	0000                	.insn	2, 0x0000
    2114:	0001                	.insn	2, 0x0001
	...
    2146:	0000                	.insn	2, 0x0000
    2148:	0005                	.insn	2, 0x0005
    214a:	0000                	.insn	2, 0x0000
    214c:	0002                	.insn	2, 0x0002
    214e:	0000                	.insn	2, 0x0000
    2150:	0004                	.insn	2, 0x0004
    2152:	0000                	.insn	2, 0x0000
    2154:	0000                	.insn	2, 0x0000
    2156:	0000                	.insn	2, 0x0000
    2158:	0001                	.insn	2, 0x0001
    215a:	0000                	.insn	2, 0x0000
    215c:	0001                	.insn	2, 0x0001
    215e:	0000                	.insn	2, 0x0000
    2160:	0000                	.insn	2, 0x0000
    2162:	0000                	.insn	2, 0x0000
    2164:	00000003          	lb	zero,0(zero) # 0 <_isr_handler>
    2168:	0004                	.insn	2, 0x0004
    216a:	0000                	.insn	2, 0x0000
    216c:	0000                	.insn	2, 0x0000
    216e:	0000                	.insn	2, 0x0000
    2170:	00000003          	lb	zero,0(zero) # 0 <_isr_handler>
    2174:	0002                	.insn	2, 0x0002
    2176:	0000                	.insn	2, 0x0000
    2178:	0002                	.insn	2, 0x0002
    217a:	0000                	.insn	2, 0x0000
    217c:	0002                	.insn	2, 0x0002
    217e:	0000                	.insn	2, 0x0000
    2180:	0002                	.insn	2, 0x0002
    2182:	0000                	.insn	2, 0x0000
    2184:	0002                	.insn	2, 0x0002
    2186:	0000                	.insn	2, 0x0000
    2188:	0002                	.insn	2, 0x0002
    218a:	0000                	.insn	2, 0x0000
    218c:	0004                	.insn	2, 0x0004
    218e:	0000                	.insn	2, 0x0000
    2190:	0000                	.insn	2, 0x0000
    2192:	0000                	.insn	2, 0x0000
    2194:	00000003          	lb	zero,0(zero) # 0 <_isr_handler>
    2198:	0004                	.insn	2, 0x0004
    219a:	0000                	.insn	2, 0x0000
    219c:	0000                	.insn	2, 0x0000
    219e:	0000                	.insn	2, 0x0000
    21a0:	0001                	.insn	2, 0x0001
    21a2:	0000                	.insn	2, 0x0000
    21a4:	0001                	.insn	2, 0x0001
    21a6:	0000                	.insn	2, 0x0000
    21a8:	0000                	.insn	2, 0x0000
    21aa:	0000                	.insn	2, 0x0000
    21ac:	00000003          	lb	zero,0(zero) # 0 <_isr_handler>
    21b0:	0002                	.insn	2, 0x0002
    21b2:	0000                	.insn	2, 0x0000
    21b4:	0006                	.insn	2, 0x0006
	...
    21e6:	0000                	.insn	2, 0x0000
    21e8:	00000003          	lb	zero,0(zero) # 0 <_isr_handler>
    21ec:	0002                	.insn	2, 0x0002
    21ee:	0000                	.insn	2, 0x0000
    21f0:	0006                	.insn	2, 0x0006
    21f2:	0000                	.insn	2, 0x0000
    21f4:	0000                	.insn	2, 0x0000
    21f6:	0000                	.insn	2, 0x0000
    21f8:	0005                	.insn	2, 0x0005
    21fa:	0000                	.insn	2, 0x0000
    21fc:	0006                	.insn	2, 0x0006
    21fe:	0000                	.insn	2, 0x0000
    2200:	0000                	.insn	2, 0x0000
    2202:	0000                	.insn	2, 0x0000
    2204:	0001                	.insn	2, 0x0001
    2206:	0000                	.insn	2, 0x0000
    2208:	0001                	.insn	2, 0x0001
    220a:	0000                	.insn	2, 0x0000
    220c:	0000                	.insn	2, 0x0000
    220e:	0000                	.insn	2, 0x0000
    2210:	0005                	.insn	2, 0x0005
    2212:	0000                	.insn	2, 0x0000
    2214:	0002                	.insn	2, 0x0002
    2216:	0000                	.insn	2, 0x0000
    2218:	0002                	.insn	2, 0x0002
    221a:	0000                	.insn	2, 0x0000
    221c:	0004                	.insn	2, 0x0004
    221e:	0000                	.insn	2, 0x0000
    2220:	00000003          	lb	zero,0(zero) # 0 <_isr_handler>
    2224:	0002                	.insn	2, 0x0002
    2226:	0000                	.insn	2, 0x0000
    2228:	0002                	.insn	2, 0x0002
    222a:	0000                	.insn	2, 0x0000
    222c:	0006                	.insn	2, 0x0006
    222e:	0000                	.insn	2, 0x0000
    2230:	0000                	.insn	2, 0x0000
    2232:	0000                	.insn	2, 0x0000
    2234:	0001                	.insn	2, 0x0001
    2236:	0000                	.insn	2, 0x0000
    2238:	0001                	.insn	2, 0x0001
    223a:	0000                	.insn	2, 0x0000
    223c:	0000                	.insn	2, 0x0000
    223e:	0000                	.insn	2, 0x0000
    2240:	0005                	.insn	2, 0x0005
    2242:	0000                	.insn	2, 0x0000
    2244:	0006                	.insn	2, 0x0006
    2246:	0000                	.insn	2, 0x0000
    2248:	0000                	.insn	2, 0x0000
    224a:	0000                	.insn	2, 0x0000
    224c:	0005                	.insn	2, 0x0005
    224e:	0000                	.insn	2, 0x0000
    2250:	0002                	.insn	2, 0x0002
    2252:	0000                	.insn	2, 0x0000
    2254:	0004                	.insn	2, 0x0004
	...
    2286:	0000                	.insn	2, 0x0000
    2288:	0001                	.insn	2, 0x0001
	...
    22a2:	0000                	.insn	2, 0x0000
    22a4:	0001                	.insn	2, 0x0001
    22a6:	0000                	.insn	2, 0x0000
    22a8:	0001                	.insn	2, 0x0001
	...
    22ba:	0000                	.insn	2, 0x0000
    22bc:	0001                	.insn	2, 0x0001
    22be:	0000                	.insn	2, 0x0000
    22c0:	0001                	.insn	2, 0x0001
	...
    22d2:	0000                	.insn	2, 0x0000
    22d4:	0001                	.insn	2, 0x0001
    22d6:	0000                	.insn	2, 0x0000
    22d8:	0001                	.insn	2, 0x0001
	...
    22f2:	0000                	.insn	2, 0x0000
    22f4:	0001                	.insn	2, 0x0001
	...
    2326:	0000                	.insn	2, 0x0000
    2328:	0001                	.insn	2, 0x0001
    232a:	0000                	.insn	2, 0x0000
    232c:	0000                	.insn	2, 0x0000
    232e:	0000                	.insn	2, 0x0000
    2330:	00000003          	lb	zero,0(zero) # 0 <_isr_handler>
    2334:	0002                	.insn	2, 0x0002
    2336:	0000                	.insn	2, 0x0000
    2338:	0002                	.insn	2, 0x0002
    233a:	0000                	.insn	2, 0x0000
    233c:	0002                	.insn	2, 0x0002
    233e:	0000                	.insn	2, 0x0000
    2340:	0002                	.insn	2, 0x0002
    2342:	0000                	.insn	2, 0x0000
    2344:	0006                	.insn	2, 0x0006
    2346:	0000                	.insn	2, 0x0000
    2348:	0005                	.insn	2, 0x0005
    234a:	0000                	.insn	2, 0x0000
    234c:	0002                	.insn	2, 0x0002
    234e:	0000                	.insn	2, 0x0000
    2350:	0002                	.insn	2, 0x0002
    2352:	0000                	.insn	2, 0x0000
    2354:	0004                	.insn	2, 0x0004
    2356:	0000                	.insn	2, 0x0000
    2358:	0000                	.insn	2, 0x0000
    235a:	0000                	.insn	2, 0x0000
    235c:	0001                	.insn	2, 0x0001
    235e:	0000                	.insn	2, 0x0000
    2360:	0001                	.insn	2, 0x0001
    2362:	0000                	.insn	2, 0x0000
    2364:	0000                	.insn	2, 0x0000
    2366:	0000                	.insn	2, 0x0000
    2368:	00000003          	lb	zero,0(zero) # 0 <_isr_handler>
    236c:	0002                	.insn	2, 0x0002
    236e:	0000                	.insn	2, 0x0000
    2370:	0002                	.insn	2, 0x0002
    2372:	0000                	.insn	2, 0x0000
    2374:	0006                	.insn	2, 0x0006
    2376:	0000                	.insn	2, 0x0000
    2378:	0005                	.insn	2, 0x0005
    237a:	0000                	.insn	2, 0x0000
    237c:	0002                	.insn	2, 0x0002
    237e:	0000                	.insn	2, 0x0000
    2380:	0002                	.insn	2, 0x0002
    2382:	0000                	.insn	2, 0x0000
    2384:	0002                	.insn	2, 0x0002
    2386:	0000                	.insn	2, 0x0000
    2388:	0002                	.insn	2, 0x0002
    238a:	0000                	.insn	2, 0x0000
    238c:	0004                	.insn	2, 0x0004
    238e:	0000                	.insn	2, 0x0000
    2390:	0000                	.insn	2, 0x0000
    2392:	0000                	.insn	2, 0x0000
    2394:	0001                	.insn	2, 0x0001
	...
    23c6:	0000                	.insn	2, 0x0000
    23c8:	0001                	.insn	2, 0x0001
    23ca:	0000                	.insn	2, 0x0000
    23cc:	0000                	.insn	2, 0x0000
    23ce:	0000                	.insn	2, 0x0000
    23d0:	0005                	.insn	2, 0x0005
    23d2:	0000                	.insn	2, 0x0000
    23d4:	0002                	.insn	2, 0x0002
    23d6:	0000                	.insn	2, 0x0000
    23d8:	0002                	.insn	2, 0x0002
    23da:	0000                	.insn	2, 0x0000
    23dc:	0002                	.insn	2, 0x0002
    23de:	0000                	.insn	2, 0x0000
    23e0:	0002                	.insn	2, 0x0002
    23e2:	0000                	.insn	2, 0x0000
    23e4:	0002                	.insn	2, 0x0002
    23e6:	0000                	.insn	2, 0x0000
    23e8:	0002                	.insn	2, 0x0002
    23ea:	0000                	.insn	2, 0x0000
    23ec:	0002                	.insn	2, 0x0002
    23ee:	0000                	.insn	2, 0x0000
    23f0:	0002                	.insn	2, 0x0002
    23f2:	0000                	.insn	2, 0x0000
    23f4:	0006                	.insn	2, 0x0006
    23f6:	0000                	.insn	2, 0x0000
    23f8:	0000                	.insn	2, 0x0000
    23fa:	0000                	.insn	2, 0x0000
    23fc:	0005                	.insn	2, 0x0005
    23fe:	0000                	.insn	2, 0x0000
    2400:	0006                	.insn	2, 0x0006
    2402:	0000                	.insn	2, 0x0000
    2404:	0000                	.insn	2, 0x0000
    2406:	0000                	.insn	2, 0x0000
    2408:	0005                	.insn	2, 0x0005
    240a:	0000                	.insn	2, 0x0000
    240c:	0002                	.insn	2, 0x0002
    240e:	0000                	.insn	2, 0x0000
    2410:	0002                	.insn	2, 0x0002
    2412:	0000                	.insn	2, 0x0000
    2414:	0002                	.insn	2, 0x0002
    2416:	0000                	.insn	2, 0x0000
    2418:	0002                	.insn	2, 0x0002
    241a:	0000                	.insn	2, 0x0000
    241c:	0002                	.insn	2, 0x0002
    241e:	0000                	.insn	2, 0x0000
    2420:	0002                	.insn	2, 0x0002
    2422:	0000                	.insn	2, 0x0000
    2424:	0002                	.insn	2, 0x0002
    2426:	0000                	.insn	2, 0x0000
    2428:	0002                	.insn	2, 0x0002
    242a:	0000                	.insn	2, 0x0000
    242c:	0006                	.insn	2, 0x0006
    242e:	0000                	.insn	2, 0x0000
    2430:	0000                	.insn	2, 0x0000
    2432:	0000                	.insn	2, 0x0000
    2434:	0001                	.insn	2, 0x0001
	...
    2466:	0000                	.insn	2, 0x0000
    2468:	0001                	.insn	2, 0x0001
	...
    24d2:	0000                	.insn	2, 0x0000
    24d4:	0001                	.insn	2, 0x0001
	...
    2506:	0000                	.insn	2, 0x0000
    2508:	0005                	.insn	2, 0x0005
    250a:	0000                	.insn	2, 0x0000
    250c:	0002                	.insn	2, 0x0002
    250e:	0000                	.insn	2, 0x0000
    2510:	0002                	.insn	2, 0x0002
    2512:	0000                	.insn	2, 0x0000
    2514:	0002                	.insn	2, 0x0002
    2516:	0000                	.insn	2, 0x0000
    2518:	0002                	.insn	2, 0x0002
    251a:	0000                	.insn	2, 0x0000
    251c:	0002                	.insn	2, 0x0002
    251e:	0000                	.insn	2, 0x0000
    2520:	0002                	.insn	2, 0x0002
    2522:	0000                	.insn	2, 0x0000
    2524:	0002                	.insn	2, 0x0002
    2526:	0000                	.insn	2, 0x0000
    2528:	0002                	.insn	2, 0x0002
    252a:	0000                	.insn	2, 0x0000
    252c:	0002                	.insn	2, 0x0002
    252e:	0000                	.insn	2, 0x0000
    2530:	0002                	.insn	2, 0x0002
    2532:	0000                	.insn	2, 0x0000
    2534:	0002                	.insn	2, 0x0002
    2536:	0000                	.insn	2, 0x0000
    2538:	0002                	.insn	2, 0x0002
    253a:	0000                	.insn	2, 0x0000
    253c:	0002                	.insn	2, 0x0002
    253e:	0000                	.insn	2, 0x0000
    2540:	0002                	.insn	2, 0x0002
    2542:	0000                	.insn	2, 0x0000
    2544:	0002                	.insn	2, 0x0002
    2546:	0000                	.insn	2, 0x0000
    2548:	0002                	.insn	2, 0x0002
    254a:	0000                	.insn	2, 0x0000
    254c:	0002                	.insn	2, 0x0002
    254e:	0000                	.insn	2, 0x0000
    2550:	0002                	.insn	2, 0x0002
    2552:	0000                	.insn	2, 0x0000
    2554:	0002                	.insn	2, 0x0002
    2556:	0000                	.insn	2, 0x0000
    2558:	0002                	.insn	2, 0x0002
    255a:	0000                	.insn	2, 0x0000
    255c:	0002                	.insn	2, 0x0002
    255e:	0000                	.insn	2, 0x0000
    2560:	0002                	.insn	2, 0x0002
    2562:	0000                	.insn	2, 0x0000
    2564:	0002                	.insn	2, 0x0002
    2566:	0000                	.insn	2, 0x0000
    2568:	0002                	.insn	2, 0x0002
    256a:	0000                	.insn	2, 0x0000
    256c:	0002                	.insn	2, 0x0002
    256e:	0000                	.insn	2, 0x0000
    2570:	0002                	.insn	2, 0x0002
    2572:	0000                	.insn	2, 0x0000
    2574:	0006                	.insn	2, 0x0006
	...

00002590 <vga_buffer>:
    2590:	0000                	.insn	2, 0x0000
    2592:	0800                	.insn	2, 0x0800

Disassembly of section .rodata:

00002594 <.rodata>:
    2594:	09a8                	.insn	2, 0x09a8
    2596:	0000                	.insn	2, 0x0000
    2598:	0a3c                	.insn	2, 0x0a3c
    259a:	0000                	.insn	2, 0x0000
    259c:	0be8                	.insn	2, 0x0be8
    259e:	0000                	.insn	2, 0x0000
    25a0:	0da4                	.insn	2, 0x0da4
    25a2:	0000                	.insn	2, 0x0000
    25a4:	0fc0                	.insn	2, 0x0fc0
    25a6:	0000                	.insn	2, 0x0000
    25a8:	0298                	.insn	2, 0x0298
    25aa:	0000                	.insn	2, 0x0000
    25ac:	071c                	.insn	2, 0x071c
	...

Disassembly of section .comment:

00000000 <.comment>:
   0:	3a434347          	.insn	4, 0x3a434347
   4:	2820                	.insn	2, 0x2820
   6:	33623167          	.insn	4, 0x33623167
   a:	3630                	.insn	2, 0x3630
   c:	3330                	.insn	2, 0x3330
   e:	6139                	.insn	2, 0x6139
  10:	2029                	.insn	2, 0x2029
  12:	3531                	.insn	2, 0x3531
  14:	312e                	.insn	2, 0x312e
  16:	302e                	.insn	2, 0x302e
	...

Disassembly of section .riscv.attributes:

00000000 <.riscv.attributes>:
   0:	3641                	.insn	2, 0x3641
   2:	0000                	.insn	2, 0x0000
   4:	7200                	.insn	2, 0x7200
   6:	7369                	.insn	2, 0x7369
   8:	01007663          	bgeu	zero,a6,14 <_isr_routine+0xc>
   c:	002c                	.insn	2, 0x002c
   e:	0000                	.insn	2, 0x0000
  10:	1004                	.insn	2, 0x1004
  12:	7205                	.insn	2, 0x7205
  14:	3376                	.insn	2, 0x3376
  16:	6932                	.insn	2, 0x6932
  18:	7032                	.insn	2, 0x7032
  1a:	5f31                	.insn	2, 0x5f31
  1c:	326d                	.insn	2, 0x326d
  1e:	3070                	.insn	2, 0x3070
  20:	7a5f 6369 7273      	.insn	6, 0x727363697a5f
  26:	7032                	.insn	2, 0x7032
  28:	5f30                	.insn	2, 0x5f30
  2a:	6d7a                	.insn	2, 0x6d7a
  2c:	756d                	.insn	2, 0x756d
  2e:	316c                	.insn	2, 0x316c
  30:	3070                	.insn	2, 0x3070
  32:	0800                	.insn	2, 0x0800
  34:	0a01                	.insn	2, 0x0a01
  36:	0b                	.byte	0x0b
