
main.elf:     file format elf32-littleriscv


Disassembly of section .text:

00000000 <_isr_handler>:
       0:	0080006f          	j	8 <_isr_routine>
       4:	13c0006f          	j	140 <_start>

00000008 <_isr_routine>:
       8:	f8010113          	addi	sp,sp,-128
       c:	00112023          	sw	ra,0(sp)
      10:	00312423          	sw	gp,8(sp)
      14:	00412623          	sw	tp,12(sp)
      18:	00512823          	sw	t0,16(sp)
      1c:	00612a23          	sw	t1,20(sp)
      20:	00712c23          	sw	t2,24(sp)
      24:	00812e23          	sw	s0,28(sp)
      28:	02912023          	sw	s1,32(sp)
      2c:	02a12223          	sw	a0,36(sp)
      30:	02b12423          	sw	a1,40(sp)
      34:	02c12623          	sw	a2,44(sp)
      38:	02d12823          	sw	a3,48(sp)
      3c:	02e12a23          	sw	a4,52(sp)
      40:	02f12c23          	sw	a5,56(sp)
      44:	03012e23          	sw	a6,60(sp)
      48:	05112023          	sw	a7,64(sp)
      4c:	05212223          	sw	s2,68(sp)
      50:	05312423          	sw	s3,72(sp)
      54:	05412623          	sw	s4,76(sp)
      58:	05512823          	sw	s5,80(sp)
      5c:	05612a23          	sw	s6,84(sp)
      60:	05712c23          	sw	s7,88(sp)
      64:	05812e23          	sw	s8,92(sp)
      68:	07912023          	sw	s9,96(sp)
      6c:	07a12223          	sw	s10,100(sp)
      70:	07b12423          	sw	s11,104(sp)
      74:	07c12623          	sw	t3,108(sp)
      78:	07d12823          	sw	t4,112(sp)
      7c:	07e12a23          	sw	t5,116(sp)
      80:	07f12c23          	sw	t6,120(sp)
      84:	342022f3          	csrr	t0,mcause
      88:	80000337          	lui	t1,0x80000
      8c:	02536263          	bltu	t1,t0,b0 <external_irq>
      90:	00028833          	add	a6,t0,zero
      94:	00b00313          	li	t1,11
      98:	00628463          	beq	t0,t1,a0 <skip_init_args>
      9c:	34102573          	csrr	a0,mepc

000000a0 <skip_init_args>:
      a0:	341022f3          	csrr	t0,mepc
      a4:	00428293          	addi	t0,t0,4
      a8:	34129073          	csrw	mepc,t0
      ac:	0140006f          	j	c0 <restore>

000000b0 <external_irq>:
      b0:	800002b7          	lui	t0,0x80000
      b4:	fff28293          	addi	t0,t0,-1 # 7fffffff <_stack_end+0x7fefd39b>
      b8:	34202373          	csrr	t1,mcause
      bc:	0062f533          	and	a0,t0,t1

000000c0 <restore>:
      c0:	00012083          	lw	ra,0(sp)
      c4:	00812183          	lw	gp,8(sp)
      c8:	00c12203          	lw	tp,12(sp)
      cc:	01012283          	lw	t0,16(sp)
      d0:	01412303          	lw	t1,20(sp)
      d4:	01812383          	lw	t2,24(sp)
      d8:	01c12403          	lw	s0,28(sp)
      dc:	02012483          	lw	s1,32(sp)
      e0:	02412503          	lw	a0,36(sp)
      e4:	02812583          	lw	a1,40(sp)
      e8:	02c12603          	lw	a2,44(sp)
      ec:	03012683          	lw	a3,48(sp)
      f0:	03412703          	lw	a4,52(sp)
      f4:	03812783          	lw	a5,56(sp)
      f8:	03c12803          	lw	a6,60(sp)
      fc:	04012883          	lw	a7,64(sp)
     100:	04412903          	lw	s2,68(sp)
     104:	04812983          	lw	s3,72(sp)
     108:	04c12a03          	lw	s4,76(sp)
     10c:	05012a83          	lw	s5,80(sp)
     110:	05412b03          	lw	s6,84(sp)
     114:	05812b83          	lw	s7,88(sp)
     118:	05c12c03          	lw	s8,92(sp)
     11c:	06012c83          	lw	s9,96(sp)
     120:	06412d03          	lw	s10,100(sp)
     124:	06812d83          	lw	s11,104(sp)
     128:	06c12e03          	lw	t3,108(sp)
     12c:	07012e83          	lw	t4,112(sp)
     130:	07412f03          	lw	t5,116(sp)
     134:	07812f83          	lw	t6,120(sp)
     138:	08010113          	addi	sp,sp,128
     13c:	30200073          	mret

00000140 <_start>:
     140:	30401073          	csrw	mie,zero
     144:	00103117          	auipc	sp,0x103
     148:	b2010113          	addi	sp,sp,-1248 # 102c64 <_stack_end>
     14c:	00003197          	auipc	gp,0x3
     150:	2b418193          	addi	gp,gp,692 # 3400 <__global_pointer>
     154:	00001517          	auipc	a0,0x1
     158:	75850513          	addi	a0,a0,1880 # 18ac <welcome_msg>
     15c:	00400893          	li	a7,4
     160:	00000073          	ecall
     164:	70c010ef          	jal	1870 <main>

00000168 <loop>:
     168:	0000006f          	j	168 <loop>

0000016c <enable_interrupt>:
     16c:	30486073          	csrsi	mie,16
     170:	3001e073          	csrsi	mstatus,3
     174:	00008067          	ret

00000178 <timer_start>:
     178:	000046b7          	lui	a3,0x4
     17c:	040007b7          	lui	a5,0x4000
     180:	24068693          	addi	a3,a3,576 # 4240 <__global_pointer+0xe40>
     184:	02d7a423          	sw	a3,40(a5) # 4000028 <_stack_end+0x3efd3c4>
     188:	00f00693          	li	a3,15
     18c:	02d7a623          	sw	a3,44(a5)
     190:	00600713          	li	a4,6
     194:	02e7a223          	sw	a4,36(a5)
     198:	00008067          	ret

0000019c <game_init>:
     19c:	ff010113          	addi	sp,sp,-16
     1a0:	000046b7          	lui	a3,0x4
     1a4:	00112623          	sw	ra,12(sp)
     1a8:	040007b7          	lui	a5,0x4000
     1ac:	24068693          	addi	a3,a3,576 # 4240 <__global_pointer+0xe40>
     1b0:	02d7a423          	sw	a3,40(a5) # 4000028 <_stack_end+0x3efd3c4>
     1b4:	00f00693          	li	a3,15
     1b8:	02d7a623          	sw	a3,44(a5)
     1bc:	00600713          	li	a4,6
     1c0:	00003537          	lui	a0,0x3
     1c4:	02e7a223          	sw	a4,36(a5)
     1c8:	c0450513          	addi	a0,a0,-1020 # 2c04 <player>
     1cc:	000037b7          	lui	a5,0x3
     1d0:	c207a223          	sw	zero,-988(a5) # 2c24 <game_state>
     1d4:	1d4000ef          	jal	3a8 <player_init>
     1d8:	00c12083          	lw	ra,12(sp)
     1dc:	01010113          	addi	sp,sp,16
     1e0:	0500006f          	j	230 <set_gamemap>

000001e4 <game_update>:
     1e4:	ff010113          	addi	sp,sp,-16
     1e8:	00812423          	sw	s0,8(sp)
     1ec:	00003437          	lui	s0,0x3
     1f0:	c0440413          	addi	s0,s0,-1020 # 2c04 <player>
     1f4:	01c42783          	lw	a5,28(s0)
     1f8:	00112623          	sw	ra,12(sp)
     1fc:	00f04863          	bgtz	a5,20c <game_update+0x28>
     200:	000037b7          	lui	a5,0x3
     204:	00300713          	li	a4,3
     208:	c2e7a223          	sw	a4,-988(a5) # 2c24 <game_state>
     20c:	00040513          	mv	a0,s0
     210:	534000ef          	jal	744 <player_render>
     214:	00040513          	mv	a0,s0
     218:	610010ef          	jal	1828 <handle_input>
     21c:	00040513          	mv	a0,s0
     220:	00812403          	lw	s0,8(sp)
     224:	00c12083          	lw	ra,12(sp)
     228:	01010113          	addi	sp,sp,16
     22c:	2900006f          	j	4bc <player_update>

00000230 <set_gamemap>:
     230:	fe010113          	addi	sp,sp,-32
     234:	01412423          	sw	s4,8(sp)
     238:	01512223          	sw	s5,4(sp)
     23c:	00002a37          	lui	s4,0x2
     240:	00001ab7          	lui	s5,0x1
     244:	940a0a13          	addi	s4,s4,-1728 # 1940 <map>
     248:	2c0a8a93          	addi	s5,s5,704 # 12c0 <__heap_size+0xac0>
     24c:	01212823          	sw	s2,16(sp)
     250:	01312623          	sw	s3,12(sp)
     254:	00112e23          	sw	ra,28(sp)
     258:	00812c23          	sw	s0,24(sp)
     25c:	00912a23          	sw	s1,20(sp)
     260:	015a0ab3          	add	s5,s4,s5
     264:	00000913          	li	s2,0
     268:	02800993          	li	s3,40
     26c:	000a0493          	mv	s1,s4
     270:	00000413          	li	s0,0
     274:	0004a603          	lw	a2,0(s1)
     278:	00040513          	mv	a0,s0
     27c:	00090593          	mv	a1,s2
     280:	00140413          	addi	s0,s0,1
     284:	558000ef          	jal	7dc <draw_tile>
     288:	00448493          	addi	s1,s1,4
     28c:	ff3414e3          	bne	s0,s3,274 <set_gamemap+0x44>
     290:	0a0a0a13          	addi	s4,s4,160
     294:	00190913          	addi	s2,s2,1
     298:	fd5a1ae3          	bne	s4,s5,26c <set_gamemap+0x3c>
     29c:	01c12083          	lw	ra,28(sp)
     2a0:	01812403          	lw	s0,24(sp)
     2a4:	01412483          	lw	s1,20(sp)
     2a8:	01012903          	lw	s2,16(sp)
     2ac:	00c12983          	lw	s3,12(sp)
     2b0:	00812a03          	lw	s4,8(sp)
     2b4:	00412a83          	lw	s5,4(sp)
     2b8:	02010113          	addi	sp,sp,32
     2bc:	00008067          	ret

000002c0 <redraw_tile>:
     2c0:	ff010113          	addi	sp,sp,-16
     2c4:	00812423          	sw	s0,8(sp)
     2c8:	00912223          	sw	s1,4(sp)
     2cc:	00112623          	sw	ra,12(sp)
     2d0:	00200793          	li	a5,2
     2d4:	00050493          	mv	s1,a0
     2d8:	00058413          	mv	s0,a1
     2dc:	08f60063          	beq	a2,a5,35c <redraw_tile+0x9c>
     2e0:	04c7c663          	blt	a5,a2,32c <redraw_tile+0x6c>
     2e4:	01212023          	sw	s2,0(sp)
     2e8:	08060e63          	beqz	a2,384 <redraw_tile+0xc4>
     2ec:	00100793          	li	a5,1
     2f0:	fff58413          	addi	s0,a1,-1
     2f4:	00750913          	addi	s2,a0,7
     2f8:	00f61e63          	bne	a2,a5,314 <redraw_tile+0x54>
     2fc:	00048513          	mv	a0,s1
     300:	00000613          	li	a2,0
     304:	00040593          	mv	a1,s0
     308:	00148493          	addi	s1,s1,1
     30c:	4ac000ef          	jal	7b8 <set_pixel>
     310:	fe9956e3          	bge	s2,s1,2fc <redraw_tile+0x3c>
     314:	00012903          	lw	s2,0(sp)
     318:	00c12083          	lw	ra,12(sp)
     31c:	00812403          	lw	s0,8(sp)
     320:	00412483          	lw	s1,4(sp)
     324:	01010113          	addi	sp,sp,16
     328:	00008067          	ret
     32c:	00300793          	li	a5,3
     330:	fef614e3          	bne	a2,a5,318 <redraw_tile+0x58>
     334:	01212023          	sw	s2,0(sp)
     338:	fff50493          	addi	s1,a0,-1
     33c:	00758913          	addi	s2,a1,7
     340:	00040593          	mv	a1,s0
     344:	00000613          	li	a2,0
     348:	00048513          	mv	a0,s1
     34c:	00140413          	addi	s0,s0,1
     350:	468000ef          	jal	7b8 <set_pixel>
     354:	fe8956e3          	bge	s2,s0,340 <redraw_tile+0x80>
     358:	fbdff06f          	j	314 <redraw_tile+0x54>
     35c:	01212023          	sw	s2,0(sp)
     360:	00850493          	addi	s1,a0,8
     364:	00758913          	addi	s2,a1,7
     368:	00040593          	mv	a1,s0
     36c:	00000613          	li	a2,0
     370:	00048513          	mv	a0,s1
     374:	00140413          	addi	s0,s0,1
     378:	440000ef          	jal	7b8 <set_pixel>
     37c:	fe8956e3          	bge	s2,s0,368 <redraw_tile+0xa8>
     380:	f95ff06f          	j	314 <redraw_tile+0x54>
     384:	00858413          	addi	s0,a1,8
     388:	00750913          	addi	s2,a0,7
     38c:	00048513          	mv	a0,s1
     390:	00000613          	li	a2,0
     394:	00040593          	mv	a1,s0
     398:	00148493          	addi	s1,s1,1
     39c:	41c000ef          	jal	7b8 <set_pixel>
     3a0:	fe9956e3          	bge	s2,s1,38c <redraw_tile+0xcc>
     3a4:	f71ff06f          	j	314 <redraw_tile+0x54>

000003a8 <player_init>:
     3a8:	fff00793          	li	a5,-1
     3ac:	00c00813          	li	a6,12
     3b0:	00e00593          	li	a1,14
     3b4:	06000613          	li	a2,96
     3b8:	07000693          	li	a3,112
     3bc:	00300713          	li	a4,3
     3c0:	00052c23          	sw	zero,24(a0)
     3c4:	01052423          	sw	a6,8(a0)
     3c8:	00b52623          	sw	a1,12(a0)
     3cc:	00c52023          	sw	a2,0(a0)
     3d0:	00d52223          	sw	a3,4(a0)
     3d4:	00e52e23          	sw	a4,28(a0)
     3d8:	00f52823          	sw	a5,16(a0)
     3dc:	00f52a23          	sw	a5,20(a0)
     3e0:	00008067          	ret

000003e4 <can_move_to>:
     3e4:	01d00793          	li	a5,29
     3e8:	04b7e463          	bltu	a5,a1,430 <can_move_to+0x4c>
     3ec:	02853793          	sltiu	a5,a0,40
     3f0:	00079863          	bnez	a5,400 <can_move_to+0x1c>
     3f4:	ff258713          	addi	a4,a1,-14
     3f8:	00100793          	li	a5,1
     3fc:	02070663          	beqz	a4,428 <can_move_to+0x44>
     400:	00259793          	slli	a5,a1,0x2
     404:	00b787b3          	add	a5,a5,a1
     408:	00379793          	slli	a5,a5,0x3
     40c:	00a787b3          	add	a5,a5,a0
     410:	00002737          	lui	a4,0x2
     414:	00279793          	slli	a5,a5,0x2
     418:	94070713          	addi	a4,a4,-1728 # 1940 <map>
     41c:	00f707b3          	add	a5,a4,a5
     420:	0007a783          	lw	a5,0(a5)
     424:	0017b793          	seqz	a5,a5
     428:	00078513          	mv	a0,a5
     42c:	00008067          	ret
     430:	00000793          	li	a5,0
     434:	00078513          	mv	a0,a5
     438:	00008067          	ret

0000043c <player_set_position>:
     43c:	00b52023          	sw	a1,0(a0)
     440:	00c52223          	sw	a2,4(a0)
     444:	00008067          	ret

00000448 <dir_to_movement>:
     448:	00200793          	li	a5,2
     44c:	04f50063          	beq	a0,a5,48c <dir_to_movement+0x44>
     450:	02a7c263          	blt	a5,a0,474 <dir_to_movement+0x2c>
     454:	fff00793          	li	a5,-1
     458:	00050863          	beqz	a0,468 <dir_to_movement+0x20>
     45c:	00f50533          	add	a0,a0,a5
     460:	00153793          	seqz	a5,a0
     464:	00000513          	li	a0,0
     468:	00a5a023          	sw	a0,0(a1)
     46c:	00f62023          	sw	a5,0(a2)
     470:	00008067          	ret
     474:	ffd50513          	addi	a0,a0,-3
     478:	00153513          	seqz	a0,a0
     47c:	00000793          	li	a5,0
     480:	00a5a023          	sw	a0,0(a1)
     484:	00f62023          	sw	a5,0(a2)
     488:	00008067          	ret
     48c:	fff00513          	li	a0,-1
     490:	00000793          	li	a5,0
     494:	00a5a023          	sw	a0,0(a1)
     498:	00f62023          	sw	a5,0(a2)
     49c:	00008067          	ret

000004a0 <player_handle_input>:
     4a0:	fff00793          	li	a5,-1
     4a4:	00f58463          	beq	a1,a5,4ac <player_handle_input+0xc>
     4a8:	00b52a23          	sw	a1,20(a0)
     4ac:	00008067          	ret

000004b0 <is_centered>:
     4b0:	00757513          	andi	a0,a0,7
     4b4:	00153513          	seqz	a0,a0
     4b8:	00008067          	ret

000004bc <player_update>:
     4bc:	01452703          	lw	a4,20(a0)
     4c0:	fff00793          	li	a5,-1
     4c4:	01052683          	lw	a3,16(a0)
     4c8:	02f70063          	beq	a4,a5,4e8 <player_update+0x2c>
     4cc:	00052803          	lw	a6,0(a0)
     4d0:	14d70e63          	beq	a4,a3,62c <player_update+0x170>
     4d4:	00787793          	andi	a5,a6,7
     4d8:	00079863          	bnez	a5,4e8 <player_update+0x2c>
     4dc:	00452583          	lw	a1,4(a0)
     4e0:	0075f793          	andi	a5,a1,7
     4e4:	16078863          	beqz	a5,654 <player_update+0x198>
     4e8:	00300793          	li	a5,3
     4ec:	00068613          	mv	a2,a3
     4f0:	1cd7e863          	bltu	a5,a3,6c0 <player_update+0x204>
     4f4:	00452583          	lw	a1,4(a0)
     4f8:	00052803          	lw	a6,0(a0)
     4fc:	41f5d793          	srai	a5,a1,0x1f
     500:	0077f793          	andi	a5,a5,7
     504:	00b787b3          	add	a5,a5,a1
     508:	4037d793          	srai	a5,a5,0x3
     50c:	000036b7          	lui	a3,0x3
     510:	00261613          	slli	a2,a2,0x2
     514:	c3868693          	addi	a3,a3,-968 # 2c38 <CSWTCH.16>
     518:	00003737          	lui	a4,0x3
     51c:	00c686b3          	add	a3,a3,a2
     520:	c2870713          	addi	a4,a4,-984 # 2c28 <CSWTCH.17>
     524:	00c70733          	add	a4,a4,a2
     528:	0006a683          	lw	a3,0(a3)
     52c:	00072303          	lw	t1,0(a4)
     530:	00100713          	li	a4,1
     534:	010688b3          	add	a7,a3,a6
     538:	006585b3          	add	a1,a1,t1
     53c:	00088e13          	mv	t3,a7
     540:	0ae68063          	beq	a3,a4,5e0 <player_update+0x124>
     544:	41fe5613          	srai	a2,t3,0x1f
     548:	41f85713          	srai	a4,a6,0x1f
     54c:	00767613          	andi	a2,a2,7
     550:	00777713          	andi	a4,a4,7
     554:	01c60633          	add	a2,a2,t3
     558:	01070733          	add	a4,a4,a6
     55c:	40365613          	srai	a2,a2,0x3
     560:	40375713          	srai	a4,a4,0x3
     564:	40c70733          	sub	a4,a4,a2
     568:	00100693          	li	a3,1
     56c:	00173713          	seqz	a4,a4
     570:	06d30c63          	beq	t1,a3,5e8 <player_update+0x12c>
     574:	41f5d693          	srai	a3,a1,0x1f
     578:	0076f693          	andi	a3,a3,7
     57c:	00b686b3          	add	a3,a3,a1
     580:	4036d693          	srai	a3,a3,0x3
     584:	40d787b3          	sub	a5,a5,a3
     588:	0017b793          	seqz	a5,a5
     58c:	00f77733          	and	a4,a4,a5
     590:	06071e63          	bnez	a4,60c <player_update+0x150>
     594:	01d00793          	li	a5,29
     598:	02d7ee63          	bltu	a5,a3,5d4 <player_update+0x118>
     59c:	02863793          	sltiu	a5,a2,40
     5a0:	00079663          	bnez	a5,5ac <player_update+0xf0>
     5a4:	ff268793          	addi	a5,a3,-14
     5a8:	06078263          	beqz	a5,60c <player_update+0x150>
     5ac:	00269793          	slli	a5,a3,0x2
     5b0:	00d787b3          	add	a5,a5,a3
     5b4:	00379793          	slli	a5,a5,0x3
     5b8:	00c787b3          	add	a5,a5,a2
     5bc:	00002737          	lui	a4,0x2
     5c0:	00279793          	slli	a5,a5,0x2
     5c4:	94070713          	addi	a4,a4,-1728 # 1940 <map>
     5c8:	00f707b3          	add	a5,a4,a5
     5cc:	0007a783          	lw	a5,0(a5)
     5d0:	02078e63          	beqz	a5,60c <player_update+0x150>
     5d4:	fff00793          	li	a5,-1
     5d8:	00f52823          	sw	a5,16(a0)
     5dc:	00008067          	ret
     5e0:	00788e13          	addi	t3,a7,7
     5e4:	f61ff06f          	j	544 <player_update+0x88>
     5e8:	00758813          	addi	a6,a1,7
     5ec:	41f85693          	srai	a3,a6,0x1f
     5f0:	0076f693          	andi	a3,a3,7
     5f4:	010686b3          	add	a3,a3,a6
     5f8:	4036d693          	srai	a3,a3,0x3
     5fc:	40d787b3          	sub	a5,a5,a3
     600:	0017b793          	seqz	a5,a5
     604:	00f77733          	and	a4,a4,a5
     608:	f80706e3          	beqz	a4,594 <player_update+0xd8>
     60c:	ff800793          	li	a5,-8
     610:	02f8ca63          	blt	a7,a5,644 <player_update+0x188>
     614:	14000793          	li	a5,320
     618:	0117d463          	bge	a5,a7,620 <player_update+0x164>
     61c:	ff900893          	li	a7,-7
     620:	01152023          	sw	a7,0(a0)
     624:	00b52223          	sw	a1,4(a0)
     628:	00008067          	ret
     62c:	00300793          	li	a5,3
     630:	00452583          	lw	a1,4(a0)
     634:	00070613          	mv	a2,a4
     638:	ece7f2e3          	bgeu	a5,a4,4fc <player_update+0x40>
     63c:	00080893          	mv	a7,a6
     640:	fcdff06f          	j	60c <player_update+0x150>
     644:	13f00893          	li	a7,319
     648:	01152023          	sw	a7,0(a0)
     64c:	00b52223          	sw	a1,4(a0)
     650:	00008067          	ret
     654:	fff80793          	addi	a5,a6,-1
     658:	13e00613          	li	a2,318
     65c:	e8f666e3          	bltu	a2,a5,4e8 <player_update+0x2c>
     660:	41f5d793          	srai	a5,a1,0x1f
     664:	0077f793          	andi	a5,a5,7
     668:	00b787b3          	add	a5,a5,a1
     66c:	00300893          	li	a7,3
     670:	4037d793          	srai	a5,a5,0x3
     674:	00070613          	mv	a2,a4
     678:	40385e13          	srai	t3,a6,0x3
     67c:	04e8ee63          	bltu	a7,a4,6d8 <player_update+0x21c>
     680:	000038b7          	lui	a7,0x3
     684:	00271313          	slli	t1,a4,0x2
     688:	c2888893          	addi	a7,a7,-984 # 2c28 <CSWTCH.17>
     68c:	006888b3          	add	a7,a7,t1
     690:	0008a303          	lw	t1,0(a7)
     694:	01d00e93          	li	t4,29
     698:	00678333          	add	t1,a5,t1
     69c:	e46ee6e3          	bltu	t4,t1,4e8 <player_update+0x2c>
     6a0:	0108a883          	lw	a7,16(a7)
     6a4:	011e0e33          	add	t3,t3,a7
     6a8:	fd8e0893          	addi	a7,t3,-40
     6ac:	06089463          	bnez	a7,714 <player_update+0x258>
     6b0:	ff230893          	addi	a7,t1,-14 # 7ffffff2 <_stack_end+0x7fefd38e>
     6b4:	06089063          	bnez	a7,714 <player_update+0x258>
     6b8:	00e52823          	sw	a4,16(a0)
     6bc:	e51ff06f          	j	50c <player_update+0x50>
     6c0:	fff00793          	li	a5,-1
     6c4:	00f68863          	beq	a3,a5,6d4 <player_update+0x218>
     6c8:	00052883          	lw	a7,0(a0)
     6cc:	00452583          	lw	a1,4(a0)
     6d0:	f3dff06f          	j	60c <player_update+0x150>
     6d4:	00008067          	ret
     6d8:	01d00613          	li	a2,29
     6dc:	e0f666e3          	bltu	a2,a5,4e8 <player_update+0x2c>
     6e0:	00279613          	slli	a2,a5,0x2
     6e4:	00f607b3          	add	a5,a2,a5
     6e8:	00379793          	slli	a5,a5,0x3
     6ec:	01c787b3          	add	a5,a5,t3
     6f0:	00002637          	lui	a2,0x2
     6f4:	00279793          	slli	a5,a5,0x2
     6f8:	94060613          	addi	a2,a2,-1728 # 1940 <map>
     6fc:	00f607b3          	add	a5,a2,a5
     700:	0007a783          	lw	a5,0(a5)
     704:	de0792e3          	bnez	a5,4e8 <player_update+0x2c>
     708:	00e52823          	sw	a4,16(a0)
     70c:	00080893          	mv	a7,a6
     710:	f05ff06f          	j	614 <player_update+0x158>
     714:	00231893          	slli	a7,t1,0x2
     718:	006888b3          	add	a7,a7,t1
     71c:	00389893          	slli	a7,a7,0x3
     720:	01c888b3          	add	a7,a7,t3
     724:	00002337          	lui	t1,0x2
     728:	00289893          	slli	a7,a7,0x2
     72c:	94030313          	addi	t1,t1,-1728 # 1940 <map>
     730:	011308b3          	add	a7,t1,a7
     734:	0008a883          	lw	a7,0(a7)
     738:	da0898e3          	bnez	a7,4e8 <player_update+0x2c>
     73c:	00e52823          	sw	a4,16(a0)
     740:	dcdff06f          	j	50c <player_update+0x50>

00000744 <player_render>:
     744:	ff010113          	addi	sp,sp,-16
     748:	00812423          	sw	s0,8(sp)
     74c:	00452583          	lw	a1,4(a0)
     750:	00050413          	mv	s0,a0
     754:	01052603          	lw	a2,16(a0)
     758:	00052503          	lw	a0,0(a0)
     75c:	00112623          	sw	ra,12(sp)
     760:	b61ff0ef          	jal	2c0 <redraw_tile>
     764:	00442583          	lw	a1,4(s0)
     768:	00042503          	lw	a0,0(s0)
     76c:	00812403          	lw	s0,8(sp)
     770:	00c12083          	lw	ra,12(sp)
     774:	01010113          	addi	sp,sp,16
     778:	7e50006f          	j	175c <draw_player>

0000077c <vga_init>:
     77c:	00013537          	lui	a0,0x13
     780:	d4050513          	addi	a0,a0,-704 # 12d40 <__global_pointer+0xf940>
     784:	14000693          	li	a3,320
     788:	00000593          	li	a1,0
     78c:	00003637          	lui	a2,0x3
     790:	00058793          	mv	a5,a1
     794:	c0062703          	lw	a4,-1024(a2) # 2c00 <vga_buffer>
     798:	00f70733          	add	a4,a4,a5
     79c:	00070023          	sb	zero,0(a4)
     7a0:	00178793          	addi	a5,a5,1
     7a4:	fed798e3          	bne	a5,a3,794 <vga_init+0x18>
     7a8:	14078693          	addi	a3,a5,320
     7ac:	14058593          	addi	a1,a1,320
     7b0:	fea690e3          	bne	a3,a0,790 <vga_init+0x14>
     7b4:	00008067          	ret

000007b8 <set_pixel>:
     7b8:	00259793          	slli	a5,a1,0x2
     7bc:	00003737          	lui	a4,0x3
     7c0:	00b785b3          	add	a1,a5,a1
     7c4:	c0072783          	lw	a5,-1024(a4) # 2c00 <vga_buffer>
     7c8:	00659593          	slli	a1,a1,0x6
     7cc:	00a585b3          	add	a1,a1,a0
     7d0:	00b787b3          	add	a5,a5,a1
     7d4:	00c78023          	sb	a2,0(a5)
     7d8:	00008067          	ret

000007dc <draw_tile>:
     7dc:	00600693          	li	a3,6
     7e0:	76c6ece3          	bltu	a3,a2,1758 <__heap_size+0xf58>
     7e4:	000036b7          	lui	a3,0x3
     7e8:	c4868693          	addi	a3,a3,-952 # 2c48 <CSWTCH.16+0x10>
     7ec:	00261613          	slli	a2,a2,0x2
     7f0:	00d60633          	add	a2,a2,a3
     7f4:	00062683          	lw	a3,0(a2)
     7f8:	fc010113          	addi	sp,sp,-64
     7fc:	00058893          	mv	a7,a1
     800:	00351793          	slli	a5,a0,0x3
     804:	00359713          	slli	a4,a1,0x3
     808:	00068067          	jr	a3
     80c:	00170713          	addi	a4,a4,1
     810:	000036b7          	lui	a3,0x3
     814:	00271613          	slli	a2,a4,0x2
     818:	c006a583          	lw	a1,-1024(a3) # 2c00 <vga_buffer>
     81c:	00e60633          	add	a2,a2,a4
     820:	00661613          	slli	a2,a2,0x6
     824:	00c78733          	add	a4,a5,a2
     828:	02812e23          	sw	s0,60(sp)
     82c:	03212a23          	sw	s2,52(sp)
     830:	03312823          	sw	s3,48(sp)
     834:	03412623          	sw	s4,44(sp)
     838:	03512423          	sw	s5,40(sp)
     83c:	03612223          	sw	s6,36(sp)
     840:	03712023          	sw	s7,32(sp)
     844:	01812e23          	sw	s8,28(sp)
     848:	01912c23          	sw	s9,24(sp)
     84c:	01a12a23          	sw	s10,20(sp)
     850:	01b12823          	sw	s11,16(sp)
     854:	00070913          	mv	s2,a4
     858:	00e585b3          	add	a1,a1,a4
     85c:	01f00713          	li	a4,31
     860:	28e581a3          	sb	a4,643(a1)
     864:	c006a583          	lw	a1,-1024(a3)
     868:	00c78e33          	add	t3,a5,a2
     86c:	000e0993          	mv	s3,t3
     870:	01c585b3          	add	a1,a1,t3
     874:	28e58223          	sb	a4,644(a1)
     878:	c006ae03          	lw	t3,-1024(a3)
     87c:	00c783b3          	add	t2,a5,a2
     880:	00678e93          	addi	t4,a5,6
     884:	007e0e33          	add	t3,t3,t2
     888:	28ee02a3          	sb	a4,645(t3)
     88c:	c006ae03          	lw	t3,-1024(a3)
     890:	000e8d93          	mv	s11,t4
     894:	01d60eb3          	add	t4,a2,t4
     898:	01de0e33          	add	t3,t3,t4
     89c:	28ee0023          	sb	a4,640(t3)
     8a0:	c006ae03          	lw	t3,-1024(a3)
     8a4:	00f60f33          	add	t5,a2,a5
     8a8:	00f60333          	add	t1,a2,a5
     8ac:	01ee0e33          	add	t3,t3,t5
     8b0:	28ee03a3          	sb	a4,647(t3)
     8b4:	c006ae03          	lw	t3,-1024(a3)
     8b8:	00c78b33          	add	s6,a5,a2
     8bc:	00c78bb3          	add	s7,a5,a2
     8c0:	006e0333          	add	t1,t3,t1
     8c4:	28e30423          	sb	a4,648(t1)
     8c8:	00289313          	slli	t1,a7,0x2
     8cc:	011308b3          	add	a7,t1,a7
     8d0:	c006a303          	lw	t1,-1024(a3)
     8d4:	00989893          	slli	a7,a7,0x9
     8d8:	01178e33          	add	t3,a5,a7
     8dc:	01c30333          	add	t1,t1,t3
     8e0:	00e301a3          	sb	a4,3(t1)
     8e4:	c006a303          	lw	t1,-1024(a3)
     8e8:	000e0a13          	mv	s4,t3
     8ec:	01178e33          	add	t3,a5,a7
     8f0:	01c30333          	add	t1,t1,t3
     8f4:	00e30223          	sb	a4,4(t1)
     8f8:	c006a303          	lw	t1,-1024(a3)
     8fc:	011788b3          	add	a7,a5,a7
     900:	00c78c33          	add	s8,a5,a2
     904:	01130333          	add	t1,t1,a7
     908:	00e302a3          	sb	a4,5(t1)
     90c:	c006a303          	lw	t1,-1024(a3)
     910:	00c78cb3          	add	s9,a5,a2
     914:	00c78d33          	add	s10,a5,a2
     918:	01630333          	add	t1,t1,s6
     91c:	00e301a3          	sb	a4,3(t1)
     920:	c006a303          	lw	t1,-1024(a3)
     924:	000e0a93          	mv	s5,t3
     928:	00c78e33          	add	t3,a5,a2
     92c:	01730333          	add	t1,t1,s7
     930:	00e30223          	sb	a4,4(t1)
     934:	c006af03          	lw	t5,-1024(a3)
     938:	3c060313          	addi	t1,a2,960
     93c:	50060613          	addi	a2,a2,1280
     940:	018f0f33          	add	t5,t5,s8
     944:	00ef02a3          	sb	a4,5(t5)
     948:	c006af03          	lw	t5,-1024(a3)
     94c:	006782b3          	add	t0,a5,t1
     950:	00678fb3          	add	t6,a5,t1
     954:	019f0f33          	add	t5,t5,s9
     958:	14ef01a3          	sb	a4,323(t5)
     95c:	c006a403          	lw	s0,-1024(a3)
     960:	00678f33          	add	t5,a5,t1
     964:	00c78833          	add	a6,a5,a2
     968:	01a40433          	add	s0,s0,s10
     96c:	14e40223          	sb	a4,324(s0)
     970:	c006a403          	lw	s0,-1024(a3)
     974:	00c78533          	add	a0,a5,a2
     978:	00c785b3          	add	a1,a5,a2
     97c:	01c40433          	add	s0,s0,t3
     980:	14e402a3          	sb	a4,325(s0)
     984:	006d8433          	add	s0,s11,t1
     988:	00812423          	sw	s0,8(sp)
     98c:	c006a403          	lw	s0,-1024(a3)
     990:	00c78eb3          	add	t4,a5,a2
     994:	01240433          	add	s0,s0,s2
     998:	28e401a3          	sb	a4,643(s0)
     99c:	00cd8433          	add	s0,s11,a2
     9a0:	00812623          	sw	s0,12(sp)
     9a4:	00678433          	add	s0,a5,t1
     9a8:	00040d93          	mv	s11,s0
     9ac:	c006a403          	lw	s0,-1024(a3)
     9b0:	00678333          	add	t1,a5,t1
     9b4:	00c78633          	add	a2,a5,a2
     9b8:	01340433          	add	s0,s0,s3
     9bc:	28e40223          	sb	a4,644(s0)
     9c0:	c006a783          	lw	a5,-1024(a3)
     9c4:	007787b3          	add	a5,a5,t2
     9c8:	28e782a3          	sb	a4,645(a5)
     9cc:	c006a783          	lw	a5,-1024(a3)
     9d0:	005787b3          	add	a5,a5,t0
     9d4:	00e781a3          	sb	a4,3(a5)
     9d8:	c006a783          	lw	a5,-1024(a3)
     9dc:	01f787b3          	add	a5,a5,t6
     9e0:	00e78223          	sb	a4,4(a5)
     9e4:	c006a783          	lw	a5,-1024(a3)
     9e8:	01e787b3          	add	a5,a5,t5
     9ec:	00e782a3          	sb	a4,5(a5)
     9f0:	c006a783          	lw	a5,-1024(a3)
     9f4:	010787b3          	add	a5,a5,a6
     9f8:	00e781a3          	sb	a4,3(a5)
     9fc:	c006a783          	lw	a5,-1024(a3)
     a00:	00a787b3          	add	a5,a5,a0
     a04:	00e78223          	sb	a4,4(a5)
     a08:	c006a783          	lw	a5,-1024(a3)
     a0c:	00b787b3          	add	a5,a5,a1
     a10:	00e782a3          	sb	a4,5(a5)
     a14:	c006a783          	lw	a5,-1024(a3)
     a18:	005787b3          	add	a5,a5,t0
     a1c:	00e781a3          	sb	a4,3(a5)
     a20:	c006a783          	lw	a5,-1024(a3)
     a24:	01f787b3          	add	a5,a5,t6
     a28:	00e78223          	sb	a4,4(a5)
     a2c:	c006a783          	lw	a5,-1024(a3)
     a30:	00812403          	lw	s0,8(sp)
     a34:	01e787b3          	add	a5,a5,t5
     a38:	00e782a3          	sb	a4,5(a5)
     a3c:	c006a783          	lw	a5,-1024(a3)
     a40:	008787b3          	add	a5,a5,s0
     a44:	00e78023          	sb	a4,0(a5)
     a48:	c006a783          	lw	a5,-1024(a3)
     a4c:	01b787b3          	add	a5,a5,s11
     a50:	00e783a3          	sb	a4,7(a5)
     a54:	c006a783          	lw	a5,-1024(a3)
     a58:	006787b3          	add	a5,a5,t1
     a5c:	00e78423          	sb	a4,8(a5)
     a60:	c006a783          	lw	a5,-1024(a3)
     a64:	014787b3          	add	a5,a5,s4
     a68:	00e781a3          	sb	a4,3(a5)
     a6c:	c006a783          	lw	a5,-1024(a3)
     a70:	015787b3          	add	a5,a5,s5
     a74:	00e78223          	sb	a4,4(a5)
     a78:	c006a783          	lw	a5,-1024(a3)
     a7c:	011787b3          	add	a5,a5,a7
     a80:	00e782a3          	sb	a4,5(a5)
     a84:	c006a783          	lw	a5,-1024(a3)
     a88:	016787b3          	add	a5,a5,s6
     a8c:	00e781a3          	sb	a4,3(a5)
     a90:	c006a783          	lw	a5,-1024(a3)
     a94:	017787b3          	add	a5,a5,s7
     a98:	00e78223          	sb	a4,4(a5)
     a9c:	c006a783          	lw	a5,-1024(a3)
     aa0:	018787b3          	add	a5,a5,s8
     aa4:	00e782a3          	sb	a4,5(a5)
     aa8:	c006a783          	lw	a5,-1024(a3)
     aac:	019787b3          	add	a5,a5,s9
     ab0:	14e781a3          	sb	a4,323(a5)
     ab4:	c006a783          	lw	a5,-1024(a3)
     ab8:	01a787b3          	add	a5,a5,s10
     abc:	14e78223          	sb	a4,324(a5)
     ac0:	c006a783          	lw	a5,-1024(a3)
     ac4:	01c787b3          	add	a5,a5,t3
     ac8:	14e782a3          	sb	a4,325(a5)
     acc:	c006a783          	lw	a5,-1024(a3)
     ad0:	012787b3          	add	a5,a5,s2
     ad4:	28e781a3          	sb	a4,643(a5)
     ad8:	c006a783          	lw	a5,-1024(a3)
     adc:	013787b3          	add	a5,a5,s3
     ae0:	28e78223          	sb	a4,644(a5)
     ae4:	c006a783          	lw	a5,-1024(a3)
     ae8:	007787b3          	add	a5,a5,t2
     aec:	28e782a3          	sb	a4,645(a5)
     af0:	c006a783          	lw	a5,-1024(a3)
     af4:	00c12303          	lw	t1,12(sp)
     af8:	005787b3          	add	a5,a5,t0
     afc:	00e781a3          	sb	a4,3(a5)
     b00:	c006a783          	lw	a5,-1024(a3)
     b04:	01f787b3          	add	a5,a5,t6
     b08:	00e78223          	sb	a4,4(a5)
     b0c:	c006a783          	lw	a5,-1024(a3)
     b10:	01e787b3          	add	a5,a5,t5
     b14:	00e782a3          	sb	a4,5(a5)
     b18:	c006a783          	lw	a5,-1024(a3)
     b1c:	010787b3          	add	a5,a5,a6
     b20:	00e781a3          	sb	a4,3(a5)
     b24:	c006a783          	lw	a5,-1024(a3)
     b28:	00a787b3          	add	a5,a5,a0
     b2c:	00e78223          	sb	a4,4(a5)
     b30:	c006a783          	lw	a5,-1024(a3)
     b34:	00b787b3          	add	a5,a5,a1
     b38:	00e782a3          	sb	a4,5(a5)
     b3c:	c006a783          	lw	a5,-1024(a3)
     b40:	010787b3          	add	a5,a5,a6
     b44:	00e781a3          	sb	a4,3(a5)
     b48:	c006a783          	lw	a5,-1024(a3)
     b4c:	00a787b3          	add	a5,a5,a0
     b50:	00e78223          	sb	a4,4(a5)
     b54:	c006a783          	lw	a5,-1024(a3)
     b58:	00b787b3          	add	a5,a5,a1
     b5c:	00e782a3          	sb	a4,5(a5)
     b60:	c006a783          	lw	a5,-1024(a3)
     b64:	006787b3          	add	a5,a5,t1
     b68:	00e78023          	sb	a4,0(a5)
     b6c:	c006a783          	lw	a5,-1024(a3)
     b70:	01d787b3          	add	a5,a5,t4
     b74:	00e783a3          	sb	a4,7(a5)
     b78:	c006a783          	lw	a5,-1024(a3)
     b7c:	00c787b3          	add	a5,a5,a2
     b80:	00e78423          	sb	a4,8(a5)
     b84:	c006a783          	lw	a5,-1024(a3)
     b88:	014787b3          	add	a5,a5,s4
     b8c:	00e781a3          	sb	a4,3(a5)
     b90:	c006a783          	lw	a5,-1024(a3)
     b94:	015787b3          	add	a5,a5,s5
     b98:	00e78223          	sb	a4,4(a5)
     b9c:	c006a783          	lw	a5,-1024(a3)
     ba0:	011787b3          	add	a5,a5,a7
     ba4:	00e782a3          	sb	a4,5(a5)
     ba8:	c006a783          	lw	a5,-1024(a3)
     bac:	016787b3          	add	a5,a5,s6
     bb0:	00e781a3          	sb	a4,3(a5)
     bb4:	c006a783          	lw	a5,-1024(a3)
     bb8:	017787b3          	add	a5,a5,s7
     bbc:	00e78223          	sb	a4,4(a5)
     bc0:	c006a783          	lw	a5,-1024(a3)
     bc4:	018787b3          	add	a5,a5,s8
     bc8:	00e782a3          	sb	a4,5(a5)
     bcc:	c006a783          	lw	a5,-1024(a3)
     bd0:	019787b3          	add	a5,a5,s9
     bd4:	14e781a3          	sb	a4,323(a5)
     bd8:	c006a783          	lw	a5,-1024(a3)
     bdc:	01a787b3          	add	a5,a5,s10
     be0:	14e78223          	sb	a4,324(a5)
     be4:	c006a783          	lw	a5,-1024(a3)
     be8:	01c787b3          	add	a5,a5,t3
     bec:	14e782a3          	sb	a4,325(a5)
     bf0:	c006a783          	lw	a5,-1024(a3)
     bf4:	012787b3          	add	a5,a5,s2
     bf8:	28e781a3          	sb	a4,643(a5)
     bfc:	c006a783          	lw	a5,-1024(a3)
     c00:	013787b3          	add	a5,a5,s3
     c04:	28e78223          	sb	a4,644(a5)
     c08:	c006a783          	lw	a5,-1024(a3)
     c0c:	007787b3          	add	a5,a5,t2
     c10:	28e782a3          	sb	a4,645(a5)
     c14:	c006a783          	lw	a5,-1024(a3)
     c18:	005787b3          	add	a5,a5,t0
     c1c:	00e781a3          	sb	a4,3(a5)
     c20:	c006a783          	lw	a5,-1024(a3)
     c24:	01f787b3          	add	a5,a5,t6
     c28:	00e78223          	sb	a4,4(a5)
     c2c:	c006a783          	lw	a5,-1024(a3)
     c30:	01e787b3          	add	a5,a5,t5
     c34:	00e782a3          	sb	a4,5(a5)
     c38:	c006a783          	lw	a5,-1024(a3)
     c3c:	010787b3          	add	a5,a5,a6
     c40:	00e781a3          	sb	a4,3(a5)
     c44:	c006a783          	lw	a5,-1024(a3)
     c48:	00a787b3          	add	a5,a5,a0
     c4c:	00e78223          	sb	a4,4(a5)
     c50:	c006a783          	lw	a5,-1024(a3)
     c54:	00b787b3          	add	a5,a5,a1
     c58:	00e782a3          	sb	a4,5(a5)
     c5c:	03c12403          	lw	s0,60(sp)
     c60:	03412903          	lw	s2,52(sp)
     c64:	03012983          	lw	s3,48(sp)
     c68:	02c12a03          	lw	s4,44(sp)
     c6c:	02812a83          	lw	s5,40(sp)
     c70:	02412b03          	lw	s6,36(sp)
     c74:	02012b83          	lw	s7,32(sp)
     c78:	01c12c03          	lw	s8,28(sp)
     c7c:	01812c83          	lw	s9,24(sp)
     c80:	01412d03          	lw	s10,20(sp)
     c84:	01012d83          	lw	s11,16(sp)
     c88:	04010113          	addi	sp,sp,64
     c8c:	00008067          	ret
     c90:	00370713          	addi	a4,a4,3
     c94:	000036b7          	lui	a3,0x3
     c98:	00271613          	slli	a2,a4,0x2
     c9c:	c006a583          	lw	a1,-1024(a3) # 2c00 <vga_buffer>
     ca0:	00e60633          	add	a2,a2,a4
     ca4:	00661613          	slli	a2,a2,0x6
     ca8:	00c78733          	add	a4,a5,a2
     cac:	02812e23          	sw	s0,60(sp)
     cb0:	02912c23          	sw	s1,56(sp)
     cb4:	03212a23          	sw	s2,52(sp)
     cb8:	03312823          	sw	s3,48(sp)
     cbc:	03412623          	sw	s4,44(sp)
     cc0:	00e585b3          	add	a1,a1,a4
     cc4:	01f00713          	li	a4,31
     cc8:	00e58023          	sb	a4,0(a1)
     ccc:	c006a583          	lw	a1,-1024(a3)
     cd0:	00c78533          	add	a0,a5,a2
     cd4:	00c783b3          	add	t2,a5,a2
     cd8:	00a585b3          	add	a1,a1,a0
     cdc:	00e580a3          	sb	a4,1(a1)
     ce0:	c006a583          	lw	a1,-1024(a3)
     ce4:	00c78533          	add	a0,a5,a2
     ce8:	00c78833          	add	a6,a5,a2
     cec:	00a585b3          	add	a1,a1,a0
     cf0:	00e58123          	sb	a4,2(a1)
     cf4:	c006a583          	lw	a1,-1024(a3)
     cf8:	00c78533          	add	a0,a5,a2
     cfc:	00050493          	mv	s1,a0
     d00:	00a585b3          	add	a1,a1,a0
     d04:	00e581a3          	sb	a4,3(a1)
     d08:	c006a503          	lw	a0,-1024(a3)
     d0c:	00080913          	mv	s2,a6
     d10:	00c78333          	add	t1,a5,a2
     d14:	00750533          	add	a0,a0,t2
     d18:	00e50223          	sb	a4,4(a0)
     d1c:	c006a503          	lw	a0,-1024(a3)
     d20:	00c78f33          	add	t5,a5,a2
     d24:	00c789b3          	add	s3,a5,a2
     d28:	01050533          	add	a0,a0,a6
     d2c:	00e502a3          	sb	a4,5(a0)
     d30:	c006a803          	lw	a6,-1024(a3)
     d34:	00078293          	mv	t0,a5
     d38:	00078f93          	mv	t6,a5
     d3c:	00680833          	add	a6,a6,t1
     d40:	14e80023          	sb	a4,320(a6)
     d44:	c006a803          	lw	a6,-1024(a3)
     d48:	00c78333          	add	t1,a5,a2
     d4c:	01f60a33          	add	s4,a2,t6
     d50:	01e80833          	add	a6,a6,t5
     d54:	14e800a3          	sb	a4,321(a6)
     d58:	c006a803          	lw	a6,-1024(a3)
     d5c:	00c78f33          	add	t5,a5,a2
     d60:	00078e93          	mv	t4,a5
     d64:	00680833          	add	a6,a6,t1
     d68:	14e80123          	sb	a4,322(a6)
     d6c:	c006a503          	lw	a0,-1024(a3)
     d70:	00c78333          	add	t1,a5,a2
     d74:	00078593          	mv	a1,a5
     d78:	01350533          	add	a0,a0,s3
     d7c:	14e501a3          	sb	a4,323(a0)
     d80:	00560533          	add	a0,a2,t0
     d84:	c006a283          	lw	t0,-1024(a3)
     d88:	00078e13          	mv	t3,a5
     d8c:	00c787b3          	add	a5,a5,a2
     d90:	01e282b3          	add	t0,t0,t5
     d94:	14e28223          	sb	a4,324(t0)
     d98:	01f602b3          	add	t0,a2,t6
     d9c:	c006af83          	lw	t6,-1024(a3)
     da0:	01d60433          	add	s0,a2,t4
     da4:	01d60833          	add	a6,a2,t4
     da8:	006f8fb3          	add	t6,t6,t1
     dac:	14ef82a3          	sb	a4,325(t6)
     db0:	c006af83          	lw	t6,-1024(a3)
     db4:	00ff87b3          	add	a5,t6,a5
     db8:	28e78023          	sb	a4,640(a5)
     dbc:	c006a783          	lw	a5,-1024(a3)
     dc0:	00a787b3          	add	a5,a5,a0
     dc4:	28e780a3          	sb	a4,641(a5)
     dc8:	c006a783          	lw	a5,-1024(a3)
     dcc:	00289513          	slli	a0,a7,0x2
     dd0:	01150533          	add	a0,a0,a7
     dd4:	014787b3          	add	a5,a5,s4
     dd8:	28e78123          	sb	a4,642(a5)
     ddc:	c006a783          	lw	a5,-1024(a3)
     de0:	00951513          	slli	a0,a0,0x9
     de4:	00ae8fb3          	add	t6,t4,a0
     de8:	005787b3          	add	a5,a5,t0
     dec:	28e781a3          	sb	a4,643(a5)
     df0:	c006a783          	lw	a5,-1024(a3)
     df4:	00ae8a33          	add	s4,t4,a0
     df8:	00ae8533          	add	a0,t4,a0
     dfc:	008787b3          	add	a5,a5,s0
     e00:	28e78223          	sb	a4,644(a5)
     e04:	c006a883          	lw	a7,-1024(a3)
     e08:	010888b3          	add	a7,a7,a6
     e0c:	28e882a3          	sb	a4,645(a7)
     e10:	c006a883          	lw	a7,-1024(a3)
     e14:	01f888b3          	add	a7,a7,t6
     e18:	00e881a3          	sb	a4,3(a7)
     e1c:	c006a883          	lw	a7,-1024(a3)
     e20:	014888b3          	add	a7,a7,s4
     e24:	00e88223          	sb	a4,4(a7)
     e28:	c006a883          	lw	a7,-1024(a3)
     e2c:	00ce8a33          	add	s4,t4,a2
     e30:	00ce8eb3          	add	t4,t4,a2
     e34:	00a88533          	add	a0,a7,a0
     e38:	00e502a3          	sb	a4,5(a0)
     e3c:	c006af83          	lw	t6,-1024(a3)
     e40:	00c588b3          	add	a7,a1,a2
     e44:	00c58533          	add	a0,a1,a2
     e48:	014f87b3          	add	a5,t6,s4
     e4c:	d8e781a3          	sb	a4,-637(a5)
     e50:	c006af83          	lw	t6,-1024(a3)
     e54:	00c585b3          	add	a1,a1,a2
     e58:	00ce07b3          	add	a5,t3,a2
     e5c:	011f8633          	add	a2,t6,a7
     e60:	d8e60223          	sb	a4,-636(a2)
     e64:	c006a603          	lw	a2,-1024(a3)
     e68:	00a60633          	add	a2,a2,a0
     e6c:	d8e602a3          	sb	a4,-635(a2)
     e70:	c006a603          	lw	a2,-1024(a3)
     e74:	01d60633          	add	a2,a2,t4
     e78:	ece601a3          	sb	a4,-317(a2)
     e7c:	c006a603          	lw	a2,-1024(a3)
     e80:	00b60633          	add	a2,a2,a1
     e84:	ece60223          	sb	a4,-316(a2)
     e88:	c006a603          	lw	a2,-1024(a3)
     e8c:	00f607b3          	add	a5,a2,a5
     e90:	ece782a3          	sb	a4,-315(a5)
     e94:	c006a783          	lw	a5,-1024(a3)
     e98:	009787b3          	add	a5,a5,s1
     e9c:	00e781a3          	sb	a4,3(a5)
     ea0:	c006a783          	lw	a5,-1024(a3)
     ea4:	007787b3          	add	a5,a5,t2
     ea8:	00e78223          	sb	a4,4(a5)
     eac:	c006a783          	lw	a5,-1024(a3)
     eb0:	012787b3          	add	a5,a5,s2
     eb4:	00e782a3          	sb	a4,5(a5)
     eb8:	c006a783          	lw	a5,-1024(a3)
     ebc:	013787b3          	add	a5,a5,s3
     ec0:	14e781a3          	sb	a4,323(a5)
     ec4:	c006a783          	lw	a5,-1024(a3)
     ec8:	01e787b3          	add	a5,a5,t5
     ecc:	14e78223          	sb	a4,324(a5)
     ed0:	c006a783          	lw	a5,-1024(a3)
     ed4:	006787b3          	add	a5,a5,t1
     ed8:	14e782a3          	sb	a4,325(a5)
     edc:	c006a783          	lw	a5,-1024(a3)
     ee0:	005787b3          	add	a5,a5,t0
     ee4:	28e781a3          	sb	a4,643(a5)
     ee8:	c006a783          	lw	a5,-1024(a3)
     eec:	008787b3          	add	a5,a5,s0
     ef0:	28e78223          	sb	a4,644(a5)
     ef4:	c006a783          	lw	a5,-1024(a3)
     ef8:	010787b3          	add	a5,a5,a6
     efc:	28e782a3          	sb	a4,645(a5)
     f00:	03c12403          	lw	s0,60(sp)
     f04:	03812483          	lw	s1,56(sp)
     f08:	03412903          	lw	s2,52(sp)
     f0c:	03012983          	lw	s3,48(sp)
     f10:	02c12a03          	lw	s4,44(sp)
     f14:	04010113          	addi	sp,sp,64
     f18:	00008067          	ret
     f1c:	00259793          	slli	a5,a1,0x2
     f20:	00b787b3          	add	a5,a5,a1
     f24:	00679793          	slli	a5,a5,0x6
     f28:	00a787b3          	add	a5,a5,a0
     f2c:	14078313          	addi	t1,a5,320
     f30:	00331313          	slli	t1,t1,0x3
     f34:	00379793          	slli	a5,a5,0x3
     f38:	00003737          	lui	a4,0x3
     f3c:	c0072683          	lw	a3,-1024(a4) # 2c00 <vga_buffer>
     f40:	00078593          	mv	a1,a5
     f44:	00f686b3          	add	a3,a3,a5
     f48:	00068023          	sb	zero,0(a3)
     f4c:	c0072683          	lw	a3,-1024(a4)
     f50:	00f686b3          	add	a3,a3,a5
     f54:	000680a3          	sb	zero,1(a3)
     f58:	c0072683          	lw	a3,-1024(a4)
     f5c:	00f686b3          	add	a3,a3,a5
     f60:	00068123          	sb	zero,2(a3)
     f64:	c0072683          	lw	a3,-1024(a4)
     f68:	14078793          	addi	a5,a5,320
     f6c:	00b686b3          	add	a3,a3,a1
     f70:	000681a3          	sb	zero,3(a3)
     f74:	c0072683          	lw	a3,-1024(a4)
     f78:	00b686b3          	add	a3,a3,a1
     f7c:	00068223          	sb	zero,4(a3)
     f80:	c0072683          	lw	a3,-1024(a4)
     f84:	00b686b3          	add	a3,a3,a1
     f88:	000682a3          	sb	zero,5(a3)
     f8c:	c0072683          	lw	a3,-1024(a4)
     f90:	00b686b3          	add	a3,a3,a1
     f94:	00068323          	sb	zero,6(a3)
     f98:	c0072683          	lw	a3,-1024(a4)
     f9c:	00b686b3          	add	a3,a3,a1
     fa0:	000683a3          	sb	zero,7(a3)
     fa4:	f8679ce3          	bne	a5,t1,f3c <__heap_size+0x73c>
     fa8:	04010113          	addi	sp,sp,64
     fac:	00008067          	ret
     fb0:	00003637          	lui	a2,0x3
     fb4:	00259693          	slli	a3,a1,0x2
     fb8:	00b686b3          	add	a3,a3,a1
     fbc:	c0062583          	lw	a1,-1024(a2) # 2c00 <vga_buffer>
     fc0:	00969813          	slli	a6,a3,0x9
     fc4:	010786b3          	add	a3,a5,a6
     fc8:	00d585b3          	add	a1,a1,a3
     fcc:	01f00693          	li	a3,31
     fd0:	00d581a3          	sb	a3,3(a1)
     fd4:	c0062883          	lw	a7,-1024(a2)
     fd8:	01078333          	add	t1,a5,a6
     fdc:	01078833          	add	a6,a5,a6
     fe0:	006888b3          	add	a7,a7,t1
     fe4:	00d88223          	sb	a3,4(a7)
     fe8:	c0062883          	lw	a7,-1024(a2)
     fec:	01088833          	add	a6,a7,a6
     ff0:	00d802a3          	sb	a3,5(a6)
     ff4:	00170813          	addi	a6,a4,1
     ff8:	00281713          	slli	a4,a6,0x2
     ffc:	01070733          	add	a4,a4,a6
    1000:	c0062803          	lw	a6,-1024(a2)
    1004:	00671713          	slli	a4,a4,0x6
    1008:	00e788b3          	add	a7,a5,a4
    100c:	01180833          	add	a6,a6,a7
    1010:	00d801a3          	sb	a3,3(a6)
    1014:	c0062803          	lw	a6,-1024(a2)
    1018:	00e788b3          	add	a7,a5,a4
    101c:	00e78333          	add	t1,a5,a4
    1020:	01180833          	add	a6,a6,a7
    1024:	00d80223          	sb	a3,4(a6)
    1028:	c0062883          	lw	a7,-1024(a2)
    102c:	00e78e33          	add	t3,a5,a4
    1030:	00e78eb3          	add	t4,a5,a4
    1034:	006888b3          	add	a7,a7,t1
    1038:	00d882a3          	sb	a3,5(a7)
    103c:	c0062303          	lw	t1,-1024(a2)
    1040:	00e788b3          	add	a7,a5,a4
    1044:	00e78fb3          	add	t6,a5,a4
    1048:	01c30833          	add	a6,t1,t3
    104c:	14d801a3          	sb	a3,323(a6)
    1050:	c0062303          	lw	t1,-1024(a2)
    1054:	00e78e33          	add	t3,a5,a4
    1058:	00e78833          	add	a6,a5,a4
    105c:	01d30333          	add	t1,t1,t4
    1060:	14d30223          	sb	a3,324(t1)
    1064:	c0062303          	lw	t1,-1024(a2)
    1068:	00e78f33          	add	t5,a5,a4
    106c:	00f70eb3          	add	t4,a4,a5
    1070:	011308b3          	add	a7,t1,a7
    1074:	14d882a3          	sb	a3,325(a7)
    1078:	c0062883          	lw	a7,-1024(a2)
    107c:	00e782b3          	add	t0,a5,a4
    1080:	00e78533          	add	a0,a5,a4
    1084:	01c888b3          	add	a7,a7,t3
    1088:	28d881a3          	sb	a3,643(a7)
    108c:	c0062883          	lw	a7,-1024(a2)
    1090:	00f70e33          	add	t3,a4,a5
    1094:	00f705b3          	add	a1,a4,a5
    1098:	01f888b3          	add	a7,a7,t6
    109c:	28d88223          	sb	a3,644(a7)
    10a0:	c0062303          	lw	t1,-1024(a2)
    10a4:	00f70fb3          	add	t6,a4,a5
    10a8:	00f708b3          	add	a7,a4,a5
    10ac:	01030833          	add	a6,t1,a6
    10b0:	28d802a3          	sb	a3,645(a6)
    10b4:	c0062803          	lw	a6,-1024(a2)
    10b8:	00f70333          	add	t1,a4,a5
    10bc:	01e80833          	add	a6,a6,t5
    10c0:	3cd801a3          	sb	a3,963(a6)
    10c4:	c0062803          	lw	a6,-1024(a2)
    10c8:	00f70f33          	add	t5,a4,a5
    10cc:	01d80833          	add	a6,a6,t4
    10d0:	3cd80223          	sb	a3,964(a6)
    10d4:	c0062803          	lw	a6,-1024(a2)
    10d8:	00f70eb3          	add	t4,a4,a5
    10dc:	00f70733          	add	a4,a4,a5
    10e0:	01c80833          	add	a6,a6,t3
    10e4:	3cd802a3          	sb	a3,965(a6)
    10e8:	c0062803          	lw	a6,-1024(a2)
    10ec:	00580833          	add	a6,a6,t0
    10f0:	50d801a3          	sb	a3,1283(a6)
    10f4:	c0062803          	lw	a6,-1024(a2)
    10f8:	01f807b3          	add	a5,a6,t6
    10fc:	50d78223          	sb	a3,1284(a5)
    1100:	c0062783          	lw	a5,-1024(a2)
    1104:	006787b3          	add	a5,a5,t1
    1108:	50d782a3          	sb	a3,1285(a5)
    110c:	c0062783          	lw	a5,-1024(a2)
    1110:	01e787b3          	add	a5,a5,t5
    1114:	64d781a3          	sb	a3,1603(a5)
    1118:	c0062783          	lw	a5,-1024(a2)
    111c:	01d787b3          	add	a5,a5,t4
    1120:	64d78223          	sb	a3,1604(a5)
    1124:	c0062783          	lw	a5,-1024(a2)
    1128:	011787b3          	add	a5,a5,a7
    112c:	64d782a3          	sb	a3,1605(a5)
    1130:	c0062783          	lw	a5,-1024(a2)
    1134:	00a787b3          	add	a5,a5,a0
    1138:	78d781a3          	sb	a3,1923(a5)
    113c:	c0062783          	lw	a5,-1024(a2)
    1140:	00b787b3          	add	a5,a5,a1
    1144:	78d78223          	sb	a3,1924(a5)
    1148:	c0062783          	lw	a5,-1024(a2)
    114c:	00e787b3          	add	a5,a5,a4
    1150:	78d782a3          	sb	a3,1925(a5)
    1154:	04010113          	addi	sp,sp,64
    1158:	00008067          	ret
    115c:	00370693          	addi	a3,a4,3
    1160:	00003637          	lui	a2,0x3
    1164:	00269713          	slli	a4,a3,0x2
    1168:	c0062583          	lw	a1,-1024(a2) # 2c00 <vga_buffer>
    116c:	00d70733          	add	a4,a4,a3
    1170:	00671713          	slli	a4,a4,0x6
    1174:	00f706b3          	add	a3,a4,a5
    1178:	00d585b3          	add	a1,a1,a3
    117c:	01f00693          	li	a3,31
    1180:	00d58023          	sb	a3,0(a1)
    1184:	c0062583          	lw	a1,-1024(a2)
    1188:	00f70533          	add	a0,a4,a5
    118c:	00f70f33          	add	t5,a4,a5
    1190:	00a585b3          	add	a1,a1,a0
    1194:	00d580a3          	sb	a3,1(a1)
    1198:	c0062583          	lw	a1,-1024(a2)
    119c:	00f70533          	add	a0,a4,a5
    11a0:	00f70fb3          	add	t6,a4,a5
    11a4:	00a585b3          	add	a1,a1,a0
    11a8:	00d58123          	sb	a3,2(a1)
    11ac:	c0062583          	lw	a1,-1024(a2)
    11b0:	00f70533          	add	a0,a4,a5
    11b4:	00e782b3          	add	t0,a5,a4
    11b8:	00a585b3          	add	a1,a1,a0
    11bc:	00d581a3          	sb	a3,3(a1)
    11c0:	c0062583          	lw	a1,-1024(a2)
    11c4:	00f70533          	add	a0,a4,a5
    11c8:	00078e93          	mv	t4,a5
    11cc:	00a585b3          	add	a1,a1,a0
    11d0:	00d58223          	sb	a3,4(a1)
    11d4:	c0062583          	lw	a1,-1024(a2)
    11d8:	00f70533          	add	a0,a4,a5
    11dc:	00078e13          	mv	t3,a5
    11e0:	00a585b3          	add	a1,a1,a0
    11e4:	00d582a3          	sb	a3,5(a1)
    11e8:	c0062583          	lw	a1,-1024(a2)
    11ec:	00078313          	mv	t1,a5
    11f0:	00078893          	mv	a7,a5
    11f4:	01e585b3          	add	a1,a1,t5
    11f8:	00d58323          	sb	a3,6(a1)
    11fc:	c0062583          	lw	a1,-1024(a2)
    1200:	00078813          	mv	a6,a5
    1204:	00078513          	mv	a0,a5
    1208:	01f585b3          	add	a1,a1,t6
    120c:	00d583a3          	sb	a3,7(a1)
    1210:	c0062f83          	lw	t6,-1024(a2)
    1214:	011705b3          	add	a1,a4,a7
    1218:	00078f13          	mv	t5,a5
    121c:	005f8fb3          	add	t6,t6,t0
    1220:	14df8023          	sb	a3,320(t6)
    1224:	c0062f83          	lw	t6,-1024(a2)
    1228:	00f702b3          	add	t0,a4,a5
    122c:	00e80833          	add	a6,a6,a4
    1230:	005f8fb3          	add	t6,t6,t0
    1234:	14df80a3          	sb	a3,321(t6)
    1238:	c0062f83          	lw	t6,-1024(a2)
    123c:	00f702b3          	add	t0,a4,a5
    1240:	00e787b3          	add	a5,a5,a4
    1244:	005f8fb3          	add	t6,t6,t0
    1248:	14df8123          	sb	a3,322(t6)
    124c:	c0062f83          	lw	t6,-1024(a2)
    1250:	01d702b3          	add	t0,a4,t4
    1254:	00ee8eb3          	add	t4,t4,a4
    1258:	005f8fb3          	add	t6,t6,t0
    125c:	14df81a3          	sb	a3,323(t6)
    1260:	c0062f83          	lw	t6,-1024(a2)
    1264:	01c702b3          	add	t0,a4,t3
    1268:	00ee0e33          	add	t3,t3,a4
    126c:	005f8fb3          	add	t6,t6,t0
    1270:	14df8223          	sb	a3,324(t6)
    1274:	c0062f83          	lw	t6,-1024(a2)
    1278:	00e302b3          	add	t0,t1,a4
    127c:	00e30333          	add	t1,t1,a4
    1280:	005f8fb3          	add	t6,t6,t0
    1284:	14df82a3          	sb	a3,325(t6)
    1288:	c0062f83          	lw	t6,-1024(a2)
    128c:	011702b3          	add	t0,a4,a7
    1290:	00e888b3          	add	a7,a7,a4
    1294:	005f8fb3          	add	t6,t6,t0
    1298:	14df8323          	sb	a3,326(t6)
    129c:	c0062f83          	lw	t6,-1024(a2)
    12a0:	00a70533          	add	a0,a4,a0
    12a4:	01e70733          	add	a4,a4,t5
    12a8:	00bf85b3          	add	a1,t6,a1
    12ac:	14d583a3          	sb	a3,327(a1)
    12b0:	c0062583          	lw	a1,-1024(a2)
    12b4:	00f587b3          	add	a5,a1,a5
    12b8:	28d78023          	sb	a3,640(a5)
    12bc:	c0062783          	lw	a5,-1024(a2)
    12c0:	01d787b3          	add	a5,a5,t4
    12c4:	28d780a3          	sb	a3,641(a5)
    12c8:	c0062783          	lw	a5,-1024(a2)
    12cc:	01c787b3          	add	a5,a5,t3
    12d0:	28d78123          	sb	a3,642(a5)
    12d4:	c0062783          	lw	a5,-1024(a2)
    12d8:	006787b3          	add	a5,a5,t1
    12dc:	28d781a3          	sb	a3,643(a5)
    12e0:	c0062783          	lw	a5,-1024(a2)
    12e4:	011787b3          	add	a5,a5,a7
    12e8:	28d78223          	sb	a3,644(a5)
    12ec:	c0062783          	lw	a5,-1024(a2)
    12f0:	010787b3          	add	a5,a5,a6
    12f4:	28d782a3          	sb	a3,645(a5)
    12f8:	c0062783          	lw	a5,-1024(a2)
    12fc:	00a787b3          	add	a5,a5,a0
    1300:	28d78323          	sb	a3,646(a5)
    1304:	c0062783          	lw	a5,-1024(a2)
    1308:	00e787b3          	add	a5,a5,a4
    130c:	28d783a3          	sb	a3,647(a5)
    1310:	04010113          	addi	sp,sp,64
    1314:	00008067          	ret
    1318:	00370693          	addi	a3,a4,3
    131c:	00003637          	lui	a2,0x3
    1320:	00269593          	slli	a1,a3,0x2
    1324:	c0062803          	lw	a6,-1024(a2) # 2c00 <vga_buffer>
    1328:	00d585b3          	add	a1,a1,a3
    132c:	00659593          	slli	a1,a1,0x6
    1330:	00f586b3          	add	a3,a1,a5
    1334:	02812e23          	sw	s0,60(sp)
    1338:	02912c23          	sw	s1,56(sp)
    133c:	00d80833          	add	a6,a6,a3
    1340:	01f00693          	li	a3,31
    1344:	00d801a3          	sb	a3,3(a6)
    1348:	c0062803          	lw	a6,-1024(a2)
    134c:	00b788b3          	add	a7,a5,a1
    1350:	00b78fb3          	add	t6,a5,a1
    1354:	01180833          	add	a6,a6,a7
    1358:	00d80223          	sb	a3,4(a6)
    135c:	c0062803          	lw	a6,-1024(a2)
    1360:	00f588b3          	add	a7,a1,a5
    1364:	00b782b3          	add	t0,a5,a1
    1368:	01180833          	add	a6,a6,a7
    136c:	00d802a3          	sb	a3,5(a6)
    1370:	c0062803          	lw	a6,-1024(a2)
    1374:	00f588b3          	add	a7,a1,a5
    1378:	00b783b3          	add	t2,a5,a1
    137c:	01180833          	add	a6,a6,a7
    1380:	00d80323          	sb	a3,6(a6)
    1384:	c0062803          	lw	a6,-1024(a2)
    1388:	00f588b3          	add	a7,a1,a5
    138c:	00078513          	mv	a0,a5
    1390:	01180833          	add	a6,a6,a7
    1394:	00d803a3          	sb	a3,7(a6)
    1398:	c0062803          	lw	a6,-1024(a2)
    139c:	00f588b3          	add	a7,a1,a5
    13a0:	00f58f33          	add	t5,a1,a5
    13a4:	01180833          	add	a6,a6,a7
    13a8:	00d80423          	sb	a3,8(a6)
    13ac:	c0062883          	lw	a7,-1024(a2)
    13b0:	00b78833          	add	a6,a5,a1
    13b4:	00f58eb3          	add	t4,a1,a5
    13b8:	01f888b3          	add	a7,a7,t6
    13bc:	14d881a3          	sb	a3,323(a7)
    13c0:	c0062883          	lw	a7,-1024(a2)
    13c4:	00b78fb3          	add	t6,a5,a1
    13c8:	00078313          	mv	t1,a5
    13cc:	005888b3          	add	a7,a7,t0
    13d0:	14d88223          	sb	a3,324(a7)
    13d4:	c0062883          	lw	a7,-1024(a2)
    13d8:	00870293          	addi	t0,a4,8
    13dc:	00a58433          	add	s0,a1,a0
    13e0:	01f88733          	add	a4,a7,t6
    13e4:	14d702a3          	sb	a3,325(a4)
    13e8:	c0062703          	lw	a4,-1024(a2)
    13ec:	00b78fb3          	add	t6,a5,a1
    13f0:	00a588b3          	add	a7,a1,a0
    13f4:	00770733          	add	a4,a4,t2
    13f8:	14d70323          	sb	a3,326(a4)
    13fc:	c0062703          	lw	a4,-1024(a2)
    1400:	00f583b3          	add	t2,a1,a5
    1404:	00b504b3          	add	s1,a0,a1
    1408:	01f70733          	add	a4,a4,t6
    140c:	14d703a3          	sb	a3,327(a4)
    1410:	c0062703          	lw	a4,-1024(a2)
    1414:	00b78fb3          	add	t6,a5,a1
    1418:	00f587b3          	add	a5,a1,a5
    141c:	01070733          	add	a4,a4,a6
    1420:	14d70423          	sb	a3,328(a4)
    1424:	c0062703          	lw	a4,-1024(a2)
    1428:	00a58833          	add	a6,a1,a0
    142c:	00770733          	add	a4,a4,t2
    1430:	28d701a3          	sb	a3,643(a4)
    1434:	c0062703          	lw	a4,-1024(a2)
    1438:	01f70733          	add	a4,a4,t6
    143c:	28d70223          	sb	a3,644(a4)
    1440:	c0062703          	lw	a4,-1024(a2)
    1444:	01170733          	add	a4,a4,a7
    1448:	28d702a3          	sb	a3,645(a4)
    144c:	c0062703          	lw	a4,-1024(a2)
    1450:	01e70733          	add	a4,a4,t5
    1454:	28d70323          	sb	a3,646(a4)
    1458:	c0062703          	lw	a4,-1024(a2)
    145c:	00a58f33          	add	t5,a1,a0
    1460:	01d70733          	add	a4,a4,t4
    1464:	28d703a3          	sb	a3,647(a4)
    1468:	c0062703          	lw	a4,-1024(a2)
    146c:	00b50eb3          	add	t4,a0,a1
    1470:	00a585b3          	add	a1,a1,a0
    1474:	00f707b3          	add	a5,a4,a5
    1478:	28d78423          	sb	a3,648(a5)
    147c:	c0062783          	lw	a5,-1024(a2)
    1480:	007787b3          	add	a5,a5,t2
    1484:	28d781a3          	sb	a3,643(a5)
    1488:	c0062783          	lw	a5,-1024(a2)
    148c:	01f787b3          	add	a5,a5,t6
    1490:	28d78223          	sb	a3,644(a5)
    1494:	c0062703          	lw	a4,-1024(a2)
    1498:	00229793          	slli	a5,t0,0x2
    149c:	005787b3          	add	a5,a5,t0
    14a0:	01170733          	add	a4,a4,a7
    14a4:	28d702a3          	sb	a3,645(a4)
    14a8:	c0062703          	lw	a4,-1024(a2)
    14ac:	00679793          	slli	a5,a5,0x6
    14b0:	00a78533          	add	a0,a5,a0
    14b4:	00870733          	add	a4,a4,s0
    14b8:	3cd701a3          	sb	a3,963(a4)
    14bc:	c0062883          	lw	a7,-1024(a2)
    14c0:	00f30733          	add	a4,t1,a5
    14c4:	006787b3          	add	a5,a5,t1
    14c8:	009888b3          	add	a7,a7,s1
    14cc:	3cd88223          	sb	a3,964(a7)
    14d0:	c0062883          	lw	a7,-1024(a2)
    14d4:	01088833          	add	a6,a7,a6
    14d8:	3cd802a3          	sb	a3,965(a6)
    14dc:	c0062803          	lw	a6,-1024(a2)
    14e0:	01e80833          	add	a6,a6,t5
    14e4:	50d801a3          	sb	a3,1283(a6)
    14e8:	c0062803          	lw	a6,-1024(a2)
    14ec:	01d80833          	add	a6,a6,t4
    14f0:	50d80223          	sb	a3,1284(a6)
    14f4:	c0062803          	lw	a6,-1024(a2)
    14f8:	00b805b3          	add	a1,a6,a1
    14fc:	50d582a3          	sb	a3,1285(a1)
    1500:	c0062583          	lw	a1,-1024(a2)
    1504:	00a585b3          	add	a1,a1,a0
    1508:	00d581a3          	sb	a3,3(a1)
    150c:	c0062583          	lw	a1,-1024(a2)
    1510:	00e58733          	add	a4,a1,a4
    1514:	00d70223          	sb	a3,4(a4)
    1518:	c0062703          	lw	a4,-1024(a2)
    151c:	00f707b3          	add	a5,a4,a5
    1520:	00d782a3          	sb	a3,5(a5)
    1524:	03c12403          	lw	s0,60(sp)
    1528:	03812483          	lw	s1,56(sp)
    152c:	04010113          	addi	sp,sp,64
    1530:	00008067          	ret
    1534:	00370693          	addi	a3,a4,3
    1538:	00003637          	lui	a2,0x3
    153c:	00269593          	slli	a1,a3,0x2
    1540:	c0062503          	lw	a0,-1024(a2) # 2c00 <vga_buffer>
    1544:	00d585b3          	add	a1,a1,a3
    1548:	00659593          	slli	a1,a1,0x6
    154c:	00b786b3          	add	a3,a5,a1
    1550:	02812e23          	sw	s0,60(sp)
    1554:	02912c23          	sw	s1,56(sp)
    1558:	00d50533          	add	a0,a0,a3
    155c:	01f00693          	li	a3,31
    1560:	00d50023          	sb	a3,0(a0)
    1564:	c0062503          	lw	a0,-1024(a2)
    1568:	00b78833          	add	a6,a5,a1
    156c:	00b788b3          	add	a7,a5,a1
    1570:	01050533          	add	a0,a0,a6
    1574:	00d500a3          	sb	a3,1(a0)
    1578:	c0062503          	lw	a0,-1024(a2)
    157c:	00b78833          	add	a6,a5,a1
    1580:	00b78fb3          	add	t6,a5,a1
    1584:	01050533          	add	a0,a0,a6
    1588:	00d50123          	sb	a3,2(a0)
    158c:	c0062803          	lw	a6,-1024(a2)
    1590:	00b782b3          	add	t0,a5,a1
    1594:	00b783b3          	add	t2,a5,a1
    1598:	01180833          	add	a6,a6,a7
    159c:	00d801a3          	sb	a3,3(a6)
    15a0:	c0062803          	lw	a6,-1024(a2)
    15a4:	00b788b3          	add	a7,a5,a1
    15a8:	00078513          	mv	a0,a5
    15ac:	01180833          	add	a6,a6,a7
    15b0:	00d80223          	sb	a3,4(a6)
    15b4:	c0062803          	lw	a6,-1024(a2)
    15b8:	00b788b3          	add	a7,a5,a1
    15bc:	00078313          	mv	t1,a5
    15c0:	01180833          	add	a6,a6,a7
    15c4:	00d802a3          	sb	a3,5(a6)
    15c8:	c0062883          	lw	a7,-1024(a2)
    15cc:	00b78833          	add	a6,a5,a1
    15d0:	00078f13          	mv	t5,a5
    15d4:	01f888b3          	add	a7,a7,t6
    15d8:	14d88023          	sb	a3,320(a7)
    15dc:	c0062883          	lw	a7,-1024(a2)
    15e0:	00b78fb3          	add	t6,a5,a1
    15e4:	00078e93          	mv	t4,a5
    15e8:	01f888b3          	add	a7,a7,t6
    15ec:	14d880a3          	sb	a3,321(a7)
    15f0:	c0062883          	lw	a7,-1024(a2)
    15f4:	00870f93          	addi	t6,a4,8
    15f8:	01e58f33          	add	t5,a1,t5
    15fc:	00588733          	add	a4,a7,t0
    1600:	14d70123          	sb	a3,322(a4)
    1604:	c0062703          	lw	a4,-1024(a2)
    1608:	00b782b3          	add	t0,a5,a1
    160c:	00b787b3          	add	a5,a5,a1
    1610:	00770733          	add	a4,a4,t2
    1614:	14d701a3          	sb	a3,323(a4)
    1618:	c0062703          	lw	a4,-1024(a2)
    161c:	01d58eb3          	add	t4,a1,t4
    1620:	00a583b3          	add	t2,a1,a0
    1624:	00570733          	add	a4,a4,t0
    1628:	14d70223          	sb	a3,324(a4)
    162c:	c0062703          	lw	a4,-1024(a2)
    1630:	00a582b3          	add	t0,a1,a0
    1634:	00a588b3          	add	a7,a1,a0
    1638:	01070733          	add	a4,a4,a6
    163c:	14d702a3          	sb	a3,325(a4)
    1640:	c0062703          	lw	a4,-1024(a2)
    1644:	00b50433          	add	s0,a0,a1
    1648:	00b504b3          	add	s1,a0,a1
    164c:	00f707b3          	add	a5,a4,a5
    1650:	28d78023          	sb	a3,640(a5)
    1654:	c0062783          	lw	a5,-1024(a2)
    1658:	00b50833          	add	a6,a0,a1
    165c:	01e787b3          	add	a5,a5,t5
    1660:	28d780a3          	sb	a3,641(a5)
    1664:	c0062703          	lw	a4,-1024(a2)
    1668:	00b50f33          	add	t5,a0,a1
    166c:	00b507b3          	add	a5,a0,a1
    1670:	01d70733          	add	a4,a4,t4
    1674:	28d70123          	sb	a3,642(a4)
    1678:	c0062703          	lw	a4,-1024(a2)
    167c:	00b50eb3          	add	t4,a0,a1
    1680:	00770733          	add	a4,a4,t2
    1684:	28d701a3          	sb	a3,643(a4)
    1688:	c0062703          	lw	a4,-1024(a2)
    168c:	00570733          	add	a4,a4,t0
    1690:	28d70223          	sb	a3,644(a4)
    1694:	c0062703          	lw	a4,-1024(a2)
    1698:	01170733          	add	a4,a4,a7
    169c:	28d702a3          	sb	a3,645(a4)
    16a0:	c0062583          	lw	a1,-1024(a2)
    16a4:	002f9713          	slli	a4,t6,0x2
    16a8:	01f70733          	add	a4,a4,t6
    16ac:	007585b3          	add	a1,a1,t2
    16b0:	28d581a3          	sb	a3,643(a1)
    16b4:	c0062583          	lw	a1,-1024(a2)
    16b8:	00671713          	slli	a4,a4,0x6
    16bc:	00a70533          	add	a0,a4,a0
    16c0:	005585b3          	add	a1,a1,t0
    16c4:	28d58223          	sb	a3,644(a1)
    16c8:	c0062583          	lw	a1,-1024(a2)
    16cc:	011585b3          	add	a1,a1,a7
    16d0:	28d582a3          	sb	a3,645(a1)
    16d4:	c0062583          	lw	a1,-1024(a2)
    16d8:	008585b3          	add	a1,a1,s0
    16dc:	3cd581a3          	sb	a3,963(a1)
    16e0:	c0062883          	lw	a7,-1024(a2)
    16e4:	006705b3          	add	a1,a4,t1
    16e8:	00670733          	add	a4,a4,t1
    16ec:	009888b3          	add	a7,a7,s1
    16f0:	3cd88223          	sb	a3,964(a7)
    16f4:	c0062883          	lw	a7,-1024(a2)
    16f8:	01088833          	add	a6,a7,a6
    16fc:	3cd802a3          	sb	a3,965(a6)
    1700:	c0062803          	lw	a6,-1024(a2)
    1704:	01e80833          	add	a6,a6,t5
    1708:	50d801a3          	sb	a3,1283(a6)
    170c:	c0062803          	lw	a6,-1024(a2)
    1710:	01d80833          	add	a6,a6,t4
    1714:	50d80223          	sb	a3,1284(a6)
    1718:	c0062803          	lw	a6,-1024(a2)
    171c:	00f807b3          	add	a5,a6,a5
    1720:	50d782a3          	sb	a3,1285(a5)
    1724:	c0062783          	lw	a5,-1024(a2)
    1728:	00a787b3          	add	a5,a5,a0
    172c:	00d781a3          	sb	a3,3(a5)
    1730:	c0062783          	lw	a5,-1024(a2)
    1734:	00b787b3          	add	a5,a5,a1
    1738:	00d78223          	sb	a3,4(a5)
    173c:	c0062783          	lw	a5,-1024(a2)
    1740:	00e787b3          	add	a5,a5,a4
    1744:	00d782a3          	sb	a3,5(a5)
    1748:	03c12403          	lw	s0,60(sp)
    174c:	03812483          	lw	s1,56(sp)
    1750:	04010113          	addi	sp,sp,64
    1754:	00008067          	ret
    1758:	00008067          	ret

0000175c <draw_player>:
    175c:	00858713          	addi	a4,a1,8
    1760:	0f000793          	li	a5,240
    1764:	00e7d463          	bge	a5,a4,176c <draw_player+0x10>
    1768:	00078713          	mv	a4,a5
    176c:	06e5d063          	bge	a1,a4,17cc <draw_player+0x70>
    1770:	00850613          	addi	a2,a0,8
    1774:	14000793          	li	a5,320
    1778:	04c7cc63          	blt	a5,a2,17d0 <draw_player+0x74>
    177c:	04c55863          	bge	a0,a2,17cc <draw_player+0x70>
    1780:	00259793          	slli	a5,a1,0x2
    1784:	00271893          	slli	a7,a4,0x2
    1788:	00b787b3          	add	a5,a5,a1
    178c:	00e888b3          	add	a7,a7,a4
    1790:	00679813          	slli	a6,a5,0x6
    1794:	00689893          	slli	a7,a7,0x6
    1798:	00c806b3          	add	a3,a6,a2
    179c:	00c888b3          	add	a7,a7,a2
    17a0:	000035b7          	lui	a1,0x3
    17a4:	ffc00613          	li	a2,-4
    17a8:	010507b3          	add	a5,a0,a6
    17ac:	c005a703          	lw	a4,-1024(a1) # 2c00 <vga_buffer>
    17b0:	00f70733          	add	a4,a4,a5
    17b4:	00c70023          	sb	a2,0(a4)
    17b8:	00178793          	addi	a5,a5,1
    17bc:	fed798e3          	bne	a5,a3,17ac <draw_player+0x50>
    17c0:	14068693          	addi	a3,a3,320
    17c4:	14080813          	addi	a6,a6,320
    17c8:	ff1690e3          	bne	a3,a7,17a8 <draw_player+0x4c>
    17cc:	00008067          	ret
    17d0:	00078613          	mv	a2,a5
    17d4:	fa9ff06f          	j	177c <draw_player+0x20>

000017d8 <fill_display>:
    17d8:	00013837          	lui	a6,0x13
    17dc:	00050613          	mv	a2,a0
    17e0:	d4080813          	addi	a6,a6,-704 # 12d40 <__global_pointer+0xf940>
    17e4:	14000693          	li	a3,320
    17e8:	00000513          	li	a0,0
    17ec:	000035b7          	lui	a1,0x3
    17f0:	00050793          	mv	a5,a0
    17f4:	c005a703          	lw	a4,-1024(a1) # 2c00 <vga_buffer>
    17f8:	00f70733          	add	a4,a4,a5
    17fc:	00c70023          	sb	a2,0(a4)
    1800:	00178793          	addi	a5,a5,1
    1804:	fed798e3          	bne	a5,a3,17f4 <fill_display+0x1c>
    1808:	14078693          	addi	a3,a5,320
    180c:	14050513          	addi	a0,a0,320
    1810:	ff0690e3          	bne	a3,a6,17f0 <fill_display+0x18>
    1814:	00008067          	ret

00001818 <get_sw>:
    1818:	040007b7          	lui	a5,0x4000
    181c:	0107a503          	lw	a0,16(a5) # 4000010 <_stack_end+0x3efd3ac>
    1820:	00757513          	andi	a0,a0,7
    1824:	00008067          	ret

00001828 <handle_input>:
    1828:	040007b7          	lui	a5,0x4000
    182c:	01078793          	addi	a5,a5,16 # 4000010 <_stack_end+0x3efd3ac>
    1830:	0007a783          	lw	a5,0(a5)
    1834:	00200713          	li	a4,2
    1838:	0077f793          	andi	a5,a5,7
    183c:	02e78063          	beq	a5,a4,185c <handle_input+0x34>
    1840:	00f74a63          	blt	a4,a5,1854 <handle_input+0x2c>
    1844:	02078063          	beqz	a5,1864 <handle_input+0x3c>
    1848:	00100793          	li	a5,1
    184c:	00f52a23          	sw	a5,20(a0)
    1850:	00008067          	ret
    1854:	00300713          	li	a4,3
    1858:	00e79a63          	bne	a5,a4,186c <handle_input+0x44>
    185c:	00f52a23          	sw	a5,20(a0)
    1860:	00008067          	ret
    1864:	00052a23          	sw	zero,20(a0)
    1868:	00008067          	ret
    186c:	00008067          	ret

00001870 <main>:
    1870:	ff010113          	addi	sp,sp,-16
    1874:	00812423          	sw	s0,8(sp)
    1878:	04000437          	lui	s0,0x4000
    187c:	00112623          	sw	ra,12(sp)
    1880:	02040413          	addi	s0,s0,32 # 4000020 <_stack_end+0x3efd3bc>
    1884:	ef9fe0ef          	jal	77c <vga_init>
    1888:	915fe0ef          	jal	19c <game_init>
    188c:	00042783          	lw	a5,0(s0)
    1890:	0017f793          	andi	a5,a5,1
    1894:	fe078ce3          	beqz	a5,188c <main+0x1c>
    1898:	00042783          	lw	a5,0(s0)
    189c:	ffe7f793          	andi	a5,a5,-2
    18a0:	00f42023          	sw	a5,0(s0)
    18a4:	941fe0ef          	jal	1e4 <game_update>
    18a8:	fe5ff06f          	j	188c <main+0x1c>

Disassembly of section .data:

000018ac <welcome_msg>:
    18ac:	3d3d                	.insn	2, 0x3d3d
    18ae:	3d3d                	.insn	2, 0x3d3d
    18b0:	3d3d                	.insn	2, 0x3d3d
    18b2:	3d3d                	.insn	2, 0x3d3d
    18b4:	3d3d                	.insn	2, 0x3d3d
    18b6:	3d3d                	.insn	2, 0x3d3d
    18b8:	3d3d                	.insn	2, 0x3d3d
    18ba:	3d3d                	.insn	2, 0x3d3d
    18bc:	3d3d                	.insn	2, 0x3d3d
    18be:	3d3d                	.insn	2, 0x3d3d
    18c0:	3d3d                	.insn	2, 0x3d3d
    18c2:	3d3d                	.insn	2, 0x3d3d
    18c4:	3d3d                	.insn	2, 0x3d3d
    18c6:	3d3d                	.insn	2, 0x3d3d
    18c8:	3d3d                	.insn	2, 0x3d3d
    18ca:	3d3d                	.insn	2, 0x3d3d
    18cc:	3d3d                	.insn	2, 0x3d3d
    18ce:	3d3d                	.insn	2, 0x3d3d
    18d0:	3d3d                	.insn	2, 0x3d3d
    18d2:	3d3d                	.insn	2, 0x3d3d
    18d4:	3d3d                	.insn	2, 0x3d3d
    18d6:	3d3d                	.insn	2, 0x3d3d
    18d8:	3d3d                	.insn	2, 0x3d3d
    18da:	3d3d                	.insn	2, 0x3d3d
    18dc:	3d0a                	.insn	2, 0x3d0a
    18de:	3d3d                	.insn	2, 0x3d3d
    18e0:	3d3d                	.insn	2, 0x3d3d
    18e2:	5220                	.insn	2, 0x5220
    18e4:	5349                	.insn	2, 0x5349
    18e6:	20562d43          	.insn	4, 0x20562d43
    18ea:	6f42                	.insn	2, 0x6f42
    18ec:	552d746f          	jal	s0,d8e3e <__global_pointer+0xd5a3e>
    18f0:	2070                	.insn	2, 0x2070
    18f2:	7250                	.insn	2, 0x7250
    18f4:	7365636f          	jal	t1,5802a <__global_pointer+0x54c2a>
    18f8:	6f4e2073          	csrs	0x6f4,t3
    18fc:	6f432077          	.insn	4, 0x6f432077
    1900:	706d                	.insn	2, 0x706d
    1902:	656c                	.insn	2, 0x656c
    1904:	6574                	.insn	2, 0x6574
    1906:	3d20                	.insn	2, 0x3d20
    1908:	3d3d                	.insn	2, 0x3d3d
    190a:	3d3d                	.insn	2, 0x3d3d
    190c:	0a3d                	.insn	2, 0x0a3d
    190e:	3d3d                	.insn	2, 0x3d3d
    1910:	3d3d                	.insn	2, 0x3d3d
    1912:	3d3d                	.insn	2, 0x3d3d
    1914:	3d3d                	.insn	2, 0x3d3d
    1916:	3d3d                	.insn	2, 0x3d3d
    1918:	3d3d                	.insn	2, 0x3d3d
    191a:	3d3d                	.insn	2, 0x3d3d
    191c:	3d3d                	.insn	2, 0x3d3d
    191e:	3d3d                	.insn	2, 0x3d3d
    1920:	3d3d                	.insn	2, 0x3d3d
    1922:	3d3d                	.insn	2, 0x3d3d
    1924:	3d3d                	.insn	2, 0x3d3d
    1926:	3d3d                	.insn	2, 0x3d3d
    1928:	3d3d                	.insn	2, 0x3d3d
    192a:	3d3d                	.insn	2, 0x3d3d
    192c:	3d3d                	.insn	2, 0x3d3d
    192e:	3d3d                	.insn	2, 0x3d3d
    1930:	3d3d                	.insn	2, 0x3d3d
    1932:	3d3d                	.insn	2, 0x3d3d
    1934:	3d3d                	.insn	2, 0x3d3d
    1936:	3d3d                	.insn	2, 0x3d3d
    1938:	3d3d                	.insn	2, 0x3d3d
    193a:	3d3d                	.insn	2, 0x3d3d
    193c:	3d3d                	.insn	2, 0x3d3d
    193e:	000a                	.insn	2, 0x000a

00001940 <map>:
	...
    19f8:	00000003          	lb	zero,0(zero) # 0 <_isr_handler>
    19fc:	0002                	.insn	2, 0x0002
    19fe:	0000                	.insn	2, 0x0000
    1a00:	0002                	.insn	2, 0x0002
    1a02:	0000                	.insn	2, 0x0000
    1a04:	0002                	.insn	2, 0x0002
    1a06:	0000                	.insn	2, 0x0000
    1a08:	0002                	.insn	2, 0x0002
    1a0a:	0000                	.insn	2, 0x0000
    1a0c:	0002                	.insn	2, 0x0002
    1a0e:	0000                	.insn	2, 0x0000
    1a10:	0002                	.insn	2, 0x0002
    1a12:	0000                	.insn	2, 0x0000
    1a14:	0002                	.insn	2, 0x0002
    1a16:	0000                	.insn	2, 0x0000
    1a18:	0002                	.insn	2, 0x0002
    1a1a:	0000                	.insn	2, 0x0000
    1a1c:	0002                	.insn	2, 0x0002
    1a1e:	0000                	.insn	2, 0x0000
    1a20:	0002                	.insn	2, 0x0002
    1a22:	0000                	.insn	2, 0x0000
    1a24:	0002                	.insn	2, 0x0002
    1a26:	0000                	.insn	2, 0x0000
    1a28:	0002                	.insn	2, 0x0002
    1a2a:	0000                	.insn	2, 0x0000
    1a2c:	0004                	.insn	2, 0x0004
    1a2e:	0000                	.insn	2, 0x0000
    1a30:	00000003          	lb	zero,0(zero) # 0 <_isr_handler>
    1a34:	0002                	.insn	2, 0x0002
    1a36:	0000                	.insn	2, 0x0000
    1a38:	0002                	.insn	2, 0x0002
    1a3a:	0000                	.insn	2, 0x0000
    1a3c:	0002                	.insn	2, 0x0002
    1a3e:	0000                	.insn	2, 0x0000
    1a40:	0002                	.insn	2, 0x0002
    1a42:	0000                	.insn	2, 0x0000
    1a44:	0002                	.insn	2, 0x0002
    1a46:	0000                	.insn	2, 0x0000
    1a48:	0002                	.insn	2, 0x0002
    1a4a:	0000                	.insn	2, 0x0000
    1a4c:	0002                	.insn	2, 0x0002
    1a4e:	0000                	.insn	2, 0x0000
    1a50:	0002                	.insn	2, 0x0002
    1a52:	0000                	.insn	2, 0x0000
    1a54:	0002                	.insn	2, 0x0002
    1a56:	0000                	.insn	2, 0x0000
    1a58:	0002                	.insn	2, 0x0002
    1a5a:	0000                	.insn	2, 0x0000
    1a5c:	0002                	.insn	2, 0x0002
    1a5e:	0000                	.insn	2, 0x0000
    1a60:	0002                	.insn	2, 0x0002
    1a62:	0000                	.insn	2, 0x0000
    1a64:	0004                	.insn	2, 0x0004
	...
    1a96:	0000                	.insn	2, 0x0000
    1a98:	0001                	.insn	2, 0x0001
	...
    1aca:	0000                	.insn	2, 0x0000
    1acc:	0001                	.insn	2, 0x0001
    1ace:	0000                	.insn	2, 0x0000
    1ad0:	0001                	.insn	2, 0x0001
	...
    1b02:	0000                	.insn	2, 0x0000
    1b04:	0001                	.insn	2, 0x0001
	...
    1b36:	0000                	.insn	2, 0x0000
    1b38:	0001                	.insn	2, 0x0001
    1b3a:	0000                	.insn	2, 0x0000
    1b3c:	0000                	.insn	2, 0x0000
    1b3e:	0000                	.insn	2, 0x0000
    1b40:	00000003          	lb	zero,0(zero) # 0 <_isr_handler>
    1b44:	0002                	.insn	2, 0x0002
    1b46:	0000                	.insn	2, 0x0000
    1b48:	0002                	.insn	2, 0x0002
    1b4a:	0000                	.insn	2, 0x0000
    1b4c:	0004                	.insn	2, 0x0004
    1b4e:	0000                	.insn	2, 0x0000
    1b50:	0000                	.insn	2, 0x0000
    1b52:	0000                	.insn	2, 0x0000
    1b54:	00000003          	lb	zero,0(zero) # 0 <_isr_handler>
    1b58:	0002                	.insn	2, 0x0002
    1b5a:	0000                	.insn	2, 0x0000
    1b5c:	0002                	.insn	2, 0x0002
    1b5e:	0000                	.insn	2, 0x0000
    1b60:	0002                	.insn	2, 0x0002
    1b62:	0000                	.insn	2, 0x0000
    1b64:	0004                	.insn	2, 0x0004
    1b66:	0000                	.insn	2, 0x0000
    1b68:	0000                	.insn	2, 0x0000
    1b6a:	0000                	.insn	2, 0x0000
    1b6c:	0001                	.insn	2, 0x0001
    1b6e:	0000                	.insn	2, 0x0000
    1b70:	0001                	.insn	2, 0x0001
    1b72:	0000                	.insn	2, 0x0000
    1b74:	0000                	.insn	2, 0x0000
    1b76:	0000                	.insn	2, 0x0000
    1b78:	00000003          	lb	zero,0(zero) # 0 <_isr_handler>
    1b7c:	0002                	.insn	2, 0x0002
    1b7e:	0000                	.insn	2, 0x0000
    1b80:	0002                	.insn	2, 0x0002
    1b82:	0000                	.insn	2, 0x0000
    1b84:	0002                	.insn	2, 0x0002
    1b86:	0000                	.insn	2, 0x0000
    1b88:	0004                	.insn	2, 0x0004
    1b8a:	0000                	.insn	2, 0x0000
    1b8c:	0000                	.insn	2, 0x0000
    1b8e:	0000                	.insn	2, 0x0000
    1b90:	00000003          	lb	zero,0(zero) # 0 <_isr_handler>
    1b94:	0002                	.insn	2, 0x0002
    1b96:	0000                	.insn	2, 0x0000
    1b98:	0002                	.insn	2, 0x0002
    1b9a:	0000                	.insn	2, 0x0000
    1b9c:	0004                	.insn	2, 0x0004
    1b9e:	0000                	.insn	2, 0x0000
    1ba0:	0000                	.insn	2, 0x0000
    1ba2:	0000                	.insn	2, 0x0000
    1ba4:	0001                	.insn	2, 0x0001
	...
    1bd6:	0000                	.insn	2, 0x0000
    1bd8:	0001                	.insn	2, 0x0001
    1bda:	0000                	.insn	2, 0x0000
    1bdc:	0000                	.insn	2, 0x0000
    1bde:	0000                	.insn	2, 0x0000
    1be0:	0005                	.insn	2, 0x0005
    1be2:	0000                	.insn	2, 0x0000
    1be4:	0002                	.insn	2, 0x0002
    1be6:	0000                	.insn	2, 0x0000
    1be8:	0002                	.insn	2, 0x0002
    1bea:	0000                	.insn	2, 0x0000
    1bec:	0006                	.insn	2, 0x0006
    1bee:	0000                	.insn	2, 0x0000
    1bf0:	0000                	.insn	2, 0x0000
    1bf2:	0000                	.insn	2, 0x0000
    1bf4:	0005                	.insn	2, 0x0005
    1bf6:	0000                	.insn	2, 0x0000
    1bf8:	0002                	.insn	2, 0x0002
    1bfa:	0000                	.insn	2, 0x0000
    1bfc:	0002                	.insn	2, 0x0002
    1bfe:	0000                	.insn	2, 0x0000
    1c00:	0002                	.insn	2, 0x0002
    1c02:	0000                	.insn	2, 0x0000
    1c04:	0006                	.insn	2, 0x0006
    1c06:	0000                	.insn	2, 0x0000
    1c08:	0000                	.insn	2, 0x0000
    1c0a:	0000                	.insn	2, 0x0000
    1c0c:	0005                	.insn	2, 0x0005
    1c0e:	0000                	.insn	2, 0x0000
    1c10:	0006                	.insn	2, 0x0006
    1c12:	0000                	.insn	2, 0x0000
    1c14:	0000                	.insn	2, 0x0000
    1c16:	0000                	.insn	2, 0x0000
    1c18:	0005                	.insn	2, 0x0005
    1c1a:	0000                	.insn	2, 0x0000
    1c1c:	0002                	.insn	2, 0x0002
    1c1e:	0000                	.insn	2, 0x0000
    1c20:	0002                	.insn	2, 0x0002
    1c22:	0000                	.insn	2, 0x0000
    1c24:	0002                	.insn	2, 0x0002
    1c26:	0000                	.insn	2, 0x0000
    1c28:	0006                	.insn	2, 0x0006
    1c2a:	0000                	.insn	2, 0x0000
    1c2c:	0000                	.insn	2, 0x0000
    1c2e:	0000                	.insn	2, 0x0000
    1c30:	0005                	.insn	2, 0x0005
    1c32:	0000                	.insn	2, 0x0000
    1c34:	0002                	.insn	2, 0x0002
    1c36:	0000                	.insn	2, 0x0000
    1c38:	0002                	.insn	2, 0x0002
    1c3a:	0000                	.insn	2, 0x0000
    1c3c:	0006                	.insn	2, 0x0006
    1c3e:	0000                	.insn	2, 0x0000
    1c40:	0000                	.insn	2, 0x0000
    1c42:	0000                	.insn	2, 0x0000
    1c44:	0001                	.insn	2, 0x0001
	...
    1c76:	0000                	.insn	2, 0x0000
    1c78:	0001                	.insn	2, 0x0001
	...
    1ce2:	0000                	.insn	2, 0x0000
    1ce4:	0001                	.insn	2, 0x0001
	...
    1d16:	0000                	.insn	2, 0x0000
    1d18:	0001                	.insn	2, 0x0001
    1d1a:	0000                	.insn	2, 0x0000
    1d1c:	0000                	.insn	2, 0x0000
    1d1e:	0000                	.insn	2, 0x0000
    1d20:	00000003          	lb	zero,0(zero) # 0 <_isr_handler>
    1d24:	0002                	.insn	2, 0x0002
    1d26:	0000                	.insn	2, 0x0000
    1d28:	0002                	.insn	2, 0x0002
    1d2a:	0000                	.insn	2, 0x0000
    1d2c:	0004                	.insn	2, 0x0004
	...
    1d3e:	0000                	.insn	2, 0x0000
    1d40:	00000003          	lb	zero,0(zero) # 0 <_isr_handler>
    1d44:	0002                	.insn	2, 0x0002
    1d46:	0000                	.insn	2, 0x0000
    1d48:	0002                	.insn	2, 0x0002
    1d4a:	0000                	.insn	2, 0x0000
    1d4c:	0002                	.insn	2, 0x0002
    1d4e:	0000                	.insn	2, 0x0000
    1d50:	0002                	.insn	2, 0x0002
    1d52:	0000                	.insn	2, 0x0000
    1d54:	0002                	.insn	2, 0x0002
    1d56:	0000                	.insn	2, 0x0000
    1d58:	0002                	.insn	2, 0x0002
    1d5a:	0000                	.insn	2, 0x0000
    1d5c:	0004                	.insn	2, 0x0004
    1d5e:	0000                	.insn	2, 0x0000
    1d60:	0000                	.insn	2, 0x0000
    1d62:	0000                	.insn	2, 0x0000
    1d64:	00000003          	lb	zero,0(zero) # 0 <_isr_handler>
    1d68:	0004                	.insn	2, 0x0004
    1d6a:	0000                	.insn	2, 0x0000
    1d6c:	0000                	.insn	2, 0x0000
    1d6e:	0000                	.insn	2, 0x0000
    1d70:	00000003          	lb	zero,0(zero) # 0 <_isr_handler>
    1d74:	0002                	.insn	2, 0x0002
    1d76:	0000                	.insn	2, 0x0000
    1d78:	0002                	.insn	2, 0x0002
    1d7a:	0000                	.insn	2, 0x0000
    1d7c:	0004                	.insn	2, 0x0004
    1d7e:	0000                	.insn	2, 0x0000
    1d80:	0000                	.insn	2, 0x0000
    1d82:	0000                	.insn	2, 0x0000
    1d84:	0001                	.insn	2, 0x0001
	...
    1db6:	0000                	.insn	2, 0x0000
    1db8:	0001                	.insn	2, 0x0001
    1dba:	0000                	.insn	2, 0x0000
    1dbc:	0000                	.insn	2, 0x0000
    1dbe:	0000                	.insn	2, 0x0000
    1dc0:	0001                	.insn	2, 0x0001
	...
    1dca:	0000                	.insn	2, 0x0000
    1dcc:	0001                	.insn	2, 0x0001
    1dce:	0000                	.insn	2, 0x0000
    1dd0:	0000                	.insn	2, 0x0000
    1dd2:	0000                	.insn	2, 0x0000
    1dd4:	00000003          	lb	zero,0(zero) # 0 <_isr_handler>
    1dd8:	0004                	.insn	2, 0x0004
    1dda:	0000                	.insn	2, 0x0000
    1ddc:	0000                	.insn	2, 0x0000
    1dde:	0000                	.insn	2, 0x0000
    1de0:	0005                	.insn	2, 0x0005
    1de2:	0000                	.insn	2, 0x0000
    1de4:	0002                	.insn	2, 0x0002
    1de6:	0000                	.insn	2, 0x0000
    1de8:	0002                	.insn	2, 0x0002
    1dea:	0000                	.insn	2, 0x0000
    1dec:	0004                	.insn	2, 0x0004
    1dee:	0000                	.insn	2, 0x0000
    1df0:	00000003          	lb	zero,0(zero) # 0 <_isr_handler>
    1df4:	0002                	.insn	2, 0x0002
    1df6:	0000                	.insn	2, 0x0000
    1df8:	0002                	.insn	2, 0x0002
    1dfa:	0000                	.insn	2, 0x0000
    1dfc:	0006                	.insn	2, 0x0006
    1dfe:	0000                	.insn	2, 0x0000
    1e00:	0000                	.insn	2, 0x0000
    1e02:	0000                	.insn	2, 0x0000
    1e04:	0001                	.insn	2, 0x0001
    1e06:	0000                	.insn	2, 0x0000
    1e08:	0001                	.insn	2, 0x0001
    1e0a:	0000                	.insn	2, 0x0000
    1e0c:	0000                	.insn	2, 0x0000
    1e0e:	0000                	.insn	2, 0x0000
    1e10:	0001                	.insn	2, 0x0001
	...
    1e1a:	0000                	.insn	2, 0x0000
    1e1c:	0001                	.insn	2, 0x0001
    1e1e:	0000                	.insn	2, 0x0000
    1e20:	0000                	.insn	2, 0x0000
    1e22:	0000                	.insn	2, 0x0000
    1e24:	0001                	.insn	2, 0x0001
	...
    1e56:	0000                	.insn	2, 0x0000
    1e58:	0001                	.insn	2, 0x0001
    1e5a:	0000                	.insn	2, 0x0000
    1e5c:	0000                	.insn	2, 0x0000
    1e5e:	0000                	.insn	2, 0x0000
    1e60:	0005                	.insn	2, 0x0005
    1e62:	0000                	.insn	2, 0x0000
    1e64:	0002                	.insn	2, 0x0002
    1e66:	0000                	.insn	2, 0x0000
    1e68:	0002                	.insn	2, 0x0002
    1e6a:	0000                	.insn	2, 0x0000
    1e6c:	0006                	.insn	2, 0x0006
    1e6e:	0000                	.insn	2, 0x0000
    1e70:	0000                	.insn	2, 0x0000
    1e72:	0000                	.insn	2, 0x0000
    1e74:	0001                	.insn	2, 0x0001
    1e76:	0000                	.insn	2, 0x0000
    1e78:	0001                	.insn	2, 0x0001
	...
    1e8a:	0000                	.insn	2, 0x0000
    1e8c:	0001                	.insn	2, 0x0001
    1e8e:	0000                	.insn	2, 0x0000
    1e90:	0001                	.insn	2, 0x0001
	...
    1ea2:	0000                	.insn	2, 0x0000
    1ea4:	0001                	.insn	2, 0x0001
    1ea6:	0000                	.insn	2, 0x0000
    1ea8:	0001                	.insn	2, 0x0001
    1eaa:	0000                	.insn	2, 0x0000
    1eac:	0000                	.insn	2, 0x0000
    1eae:	0000                	.insn	2, 0x0000
    1eb0:	0005                	.insn	2, 0x0005
    1eb2:	0000                	.insn	2, 0x0000
    1eb4:	0002                	.insn	2, 0x0002
    1eb6:	0000                	.insn	2, 0x0000
    1eb8:	0002                	.insn	2, 0x0002
    1eba:	0000                	.insn	2, 0x0000
    1ebc:	0006                	.insn	2, 0x0006
    1ebe:	0000                	.insn	2, 0x0000
    1ec0:	0000                	.insn	2, 0x0000
    1ec2:	0000                	.insn	2, 0x0000
    1ec4:	0001                	.insn	2, 0x0001
	...
    1ef6:	0000                	.insn	2, 0x0000
    1ef8:	0001                	.insn	2, 0x0001
	...
    1f12:	0000                	.insn	2, 0x0000
    1f14:	0001                	.insn	2, 0x0001
    1f16:	0000                	.insn	2, 0x0000
    1f18:	0001                	.insn	2, 0x0001
	...
    1f2a:	0000                	.insn	2, 0x0000
    1f2c:	0001                	.insn	2, 0x0001
    1f2e:	0000                	.insn	2, 0x0000
    1f30:	0001                	.insn	2, 0x0001
    1f32:	0000                	.insn	2, 0x0000
    1f34:	0000                	.insn	2, 0x0000
    1f36:	0000                	.insn	2, 0x0000
    1f38:	00000003          	lb	zero,0(zero) # 0 <_isr_handler>
    1f3c:	0002                	.insn	2, 0x0002
    1f3e:	0000                	.insn	2, 0x0000
    1f40:	0002                	.insn	2, 0x0002
    1f42:	0000                	.insn	2, 0x0000
    1f44:	0006                	.insn	2, 0x0006
    1f46:	0000                	.insn	2, 0x0000
    1f48:	0001                	.insn	2, 0x0001
	...
    1f62:	0000                	.insn	2, 0x0000
    1f64:	0001                	.insn	2, 0x0001
	...
    1f96:	0000                	.insn	2, 0x0000
    1f98:	0005                	.insn	2, 0x0005
    1f9a:	0000                	.insn	2, 0x0000
    1f9c:	0002                	.insn	2, 0x0002
    1f9e:	0000                	.insn	2, 0x0000
    1fa0:	0002                	.insn	2, 0x0002
    1fa2:	0000                	.insn	2, 0x0000
    1fa4:	0002                	.insn	2, 0x0002
    1fa6:	0000                	.insn	2, 0x0000
    1fa8:	0002                	.insn	2, 0x0002
    1faa:	0000                	.insn	2, 0x0000
    1fac:	0004                	.insn	2, 0x0004
    1fae:	0000                	.insn	2, 0x0000
    1fb0:	0000                	.insn	2, 0x0000
    1fb2:	0000                	.insn	2, 0x0000
    1fb4:	0001                	.insn	2, 0x0001
    1fb6:	0000                	.insn	2, 0x0000
    1fb8:	0005                	.insn	2, 0x0005
    1fba:	0000                	.insn	2, 0x0000
    1fbc:	0002                	.insn	2, 0x0002
    1fbe:	0000                	.insn	2, 0x0000
    1fc0:	0002                	.insn	2, 0x0002
    1fc2:	0000                	.insn	2, 0x0000
    1fc4:	0004                	.insn	2, 0x0004
    1fc6:	0000                	.insn	2, 0x0000
    1fc8:	0000                	.insn	2, 0x0000
    1fca:	0000                	.insn	2, 0x0000
    1fcc:	0005                	.insn	2, 0x0005
    1fce:	0000                	.insn	2, 0x0000
    1fd0:	0006                	.insn	2, 0x0006
    1fd2:	0000                	.insn	2, 0x0000
    1fd4:	0000                	.insn	2, 0x0000
    1fd6:	0000                	.insn	2, 0x0000
    1fd8:	0005                	.insn	2, 0x0005
    1fda:	0000                	.insn	2, 0x0000
    1fdc:	0002                	.insn	2, 0x0002
    1fde:	0000                	.insn	2, 0x0000
    1fe0:	0002                	.insn	2, 0x0002
    1fe2:	0000                	.insn	2, 0x0000
    1fe4:	0004                	.insn	2, 0x0004
    1fe6:	0000                	.insn	2, 0x0000
    1fe8:	0001                	.insn	2, 0x0001
    1fea:	0000                	.insn	2, 0x0000
    1fec:	0000                	.insn	2, 0x0000
    1fee:	0000                	.insn	2, 0x0000
    1ff0:	00000003          	lb	zero,0(zero) # 0 <_isr_handler>
    1ff4:	0002                	.insn	2, 0x0002
    1ff6:	0000                	.insn	2, 0x0000
    1ff8:	0002                	.insn	2, 0x0002
    1ffa:	0000                	.insn	2, 0x0000
    1ffc:	0002                	.insn	2, 0x0002
    1ffe:	0000                	.insn	2, 0x0000
    2000:	0002                	.insn	2, 0x0002
    2002:	0000                	.insn	2, 0x0000
    2004:	0006                	.insn	2, 0x0006
	...
    204a:	0000                	.insn	2, 0x0000
    204c:	0001                	.insn	2, 0x0001
    204e:	0000                	.insn	2, 0x0000
    2050:	0000                	.insn	2, 0x0000
    2052:	0000                	.insn	2, 0x0000
    2054:	0001                	.insn	2, 0x0001
    2056:	0000                	.insn	2, 0x0000
    2058:	00000003          	lb	zero,0(zero) # 0 <_isr_handler>
    205c:	0002                	.insn	2, 0x0002
    205e:	0000                	.insn	2, 0x0000
    2060:	0002                	.insn	2, 0x0002
    2062:	0000                	.insn	2, 0x0000
    2064:	0006                	.insn	2, 0x0006
	...
    2082:	0000                	.insn	2, 0x0000
    2084:	0001                	.insn	2, 0x0001
    2086:	0000                	.insn	2, 0x0000
    2088:	0001                	.insn	2, 0x0001
    208a:	0000                	.insn	2, 0x0000
    208c:	0000                	.insn	2, 0x0000
    208e:	0000                	.insn	2, 0x0000
    2090:	0001                	.insn	2, 0x0001
	...
    20ea:	0000                	.insn	2, 0x0000
    20ec:	0001                	.insn	2, 0x0001
    20ee:	0000                	.insn	2, 0x0000
    20f0:	0000                	.insn	2, 0x0000
    20f2:	0000                	.insn	2, 0x0000
    20f4:	0001                	.insn	2, 0x0001
    20f6:	0000                	.insn	2, 0x0000
    20f8:	0001                	.insn	2, 0x0001
	...
    2122:	0000                	.insn	2, 0x0000
    2124:	0001                	.insn	2, 0x0001
    2126:	0000                	.insn	2, 0x0000
    2128:	0001                	.insn	2, 0x0001
    212a:	0000                	.insn	2, 0x0000
    212c:	0000                	.insn	2, 0x0000
    212e:	0000                	.insn	2, 0x0000
    2130:	0001                	.insn	2, 0x0001
	...
    215e:	0000                	.insn	2, 0x0000
    2160:	0002                	.insn	2, 0x0002
    2162:	0000                	.insn	2, 0x0000
    2164:	0002                	.insn	2, 0x0002
    2166:	0000                	.insn	2, 0x0000
    2168:	0002                	.insn	2, 0x0002
    216a:	0000                	.insn	2, 0x0000
    216c:	0002                	.insn	2, 0x0002
    216e:	0000                	.insn	2, 0x0000
    2170:	0002                	.insn	2, 0x0002
    2172:	0000                	.insn	2, 0x0000
    2174:	0002                	.insn	2, 0x0002
    2176:	0000                	.insn	2, 0x0000
    2178:	0002                	.insn	2, 0x0002
    217a:	0000                	.insn	2, 0x0000
    217c:	0002                	.insn	2, 0x0002
    217e:	0000                	.insn	2, 0x0000
    2180:	0002                	.insn	2, 0x0002
    2182:	0000                	.insn	2, 0x0000
    2184:	0002                	.insn	2, 0x0002
    2186:	0000                	.insn	2, 0x0000
    2188:	0002                	.insn	2, 0x0002
    218a:	0000                	.insn	2, 0x0000
    218c:	0006                	.insn	2, 0x0006
    218e:	0000                	.insn	2, 0x0000
    2190:	0000                	.insn	2, 0x0000
    2192:	0000                	.insn	2, 0x0000
    2194:	0005                	.insn	2, 0x0005
    2196:	0000                	.insn	2, 0x0000
    2198:	0006                	.insn	2, 0x0006
    219a:	0000                	.insn	2, 0x0000
    219c:	0000                	.insn	2, 0x0000
    219e:	0000                	.insn	2, 0x0000
    21a0:	00000003          	lb	zero,0(zero) # 0 <_isr_handler>
    21a4:	0002                	.insn	2, 0x0002
    21a6:	0000                	.insn	2, 0x0000
    21a8:	0002                	.insn	2, 0x0002
    21aa:	0000                	.insn	2, 0x0000
    21ac:	0002                	.insn	2, 0x0002
    21ae:	0000                	.insn	2, 0x0000
    21b0:	0002                	.insn	2, 0x0002
    21b2:	0000                	.insn	2, 0x0000
    21b4:	0002                	.insn	2, 0x0002
    21b6:	0000                	.insn	2, 0x0000
    21b8:	0002                	.insn	2, 0x0002
    21ba:	0000                	.insn	2, 0x0000
    21bc:	0004                	.insn	2, 0x0004
    21be:	0000                	.insn	2, 0x0000
    21c0:	0000                	.insn	2, 0x0000
    21c2:	0000                	.insn	2, 0x0000
    21c4:	0005                	.insn	2, 0x0005
    21c6:	0000                	.insn	2, 0x0000
    21c8:	0006                	.insn	2, 0x0006
    21ca:	0000                	.insn	2, 0x0000
    21cc:	0000                	.insn	2, 0x0000
    21ce:	0000                	.insn	2, 0x0000
    21d0:	0005                	.insn	2, 0x0005
    21d2:	0000                	.insn	2, 0x0000
    21d4:	0002                	.insn	2, 0x0002
    21d6:	0000                	.insn	2, 0x0000
    21d8:	0002                	.insn	2, 0x0002
    21da:	0000                	.insn	2, 0x0000
    21dc:	0002                	.insn	2, 0x0002
    21de:	0000                	.insn	2, 0x0000
    21e0:	0002                	.insn	2, 0x0002
    21e2:	0000                	.insn	2, 0x0000
    21e4:	0002                	.insn	2, 0x0002
    21e6:	0000                	.insn	2, 0x0000
    21e8:	0002                	.insn	2, 0x0002
    21ea:	0000                	.insn	2, 0x0000
    21ec:	0002                	.insn	2, 0x0002
    21ee:	0000                	.insn	2, 0x0000
    21f0:	0002                	.insn	2, 0x0002
    21f2:	0000                	.insn	2, 0x0000
    21f4:	0002                	.insn	2, 0x0002
    21f6:	0000                	.insn	2, 0x0000
    21f8:	0002                	.insn	2, 0x0002
    21fa:	0000                	.insn	2, 0x0000
    21fc:	0002                	.insn	2, 0x0002
	...
    223e:	0000                	.insn	2, 0x0000
    2240:	0001                	.insn	2, 0x0001
	...
    225a:	0000                	.insn	2, 0x0000
    225c:	0001                	.insn	2, 0x0001
	...
    229e:	0000                	.insn	2, 0x0000
    22a0:	0002                	.insn	2, 0x0002
    22a2:	0000                	.insn	2, 0x0000
    22a4:	0002                	.insn	2, 0x0002
    22a6:	0000                	.insn	2, 0x0000
    22a8:	0002                	.insn	2, 0x0002
    22aa:	0000                	.insn	2, 0x0000
    22ac:	0002                	.insn	2, 0x0002
    22ae:	0000                	.insn	2, 0x0000
    22b0:	0002                	.insn	2, 0x0002
    22b2:	0000                	.insn	2, 0x0000
    22b4:	0002                	.insn	2, 0x0002
    22b6:	0000                	.insn	2, 0x0000
    22b8:	0002                	.insn	2, 0x0002
    22ba:	0000                	.insn	2, 0x0000
    22bc:	0002                	.insn	2, 0x0002
    22be:	0000                	.insn	2, 0x0000
    22c0:	0002                	.insn	2, 0x0002
    22c2:	0000                	.insn	2, 0x0000
    22c4:	0002                	.insn	2, 0x0002
    22c6:	0000                	.insn	2, 0x0000
    22c8:	0002                	.insn	2, 0x0002
    22ca:	0000                	.insn	2, 0x0000
    22cc:	0004                	.insn	2, 0x0004
    22ce:	0000                	.insn	2, 0x0000
    22d0:	0000                	.insn	2, 0x0000
    22d2:	0000                	.insn	2, 0x0000
    22d4:	00000003          	lb	zero,0(zero) # 0 <_isr_handler>
    22d8:	0004                	.insn	2, 0x0004
    22da:	0000                	.insn	2, 0x0000
    22dc:	0000                	.insn	2, 0x0000
    22de:	0000                	.insn	2, 0x0000
    22e0:	0005                	.insn	2, 0x0005
    22e2:	0000                	.insn	2, 0x0000
    22e4:	0002                	.insn	2, 0x0002
    22e6:	0000                	.insn	2, 0x0000
    22e8:	0002                	.insn	2, 0x0002
    22ea:	0000                	.insn	2, 0x0000
    22ec:	0002                	.insn	2, 0x0002
    22ee:	0000                	.insn	2, 0x0000
    22f0:	0002                	.insn	2, 0x0002
    22f2:	0000                	.insn	2, 0x0000
    22f4:	0002                	.insn	2, 0x0002
    22f6:	0000                	.insn	2, 0x0000
    22f8:	0002                	.insn	2, 0x0002
    22fa:	0000                	.insn	2, 0x0000
    22fc:	0006                	.insn	2, 0x0006
    22fe:	0000                	.insn	2, 0x0000
    2300:	0000                	.insn	2, 0x0000
    2302:	0000                	.insn	2, 0x0000
    2304:	00000003          	lb	zero,0(zero) # 0 <_isr_handler>
    2308:	0004                	.insn	2, 0x0004
    230a:	0000                	.insn	2, 0x0000
    230c:	0000                	.insn	2, 0x0000
    230e:	0000                	.insn	2, 0x0000
    2310:	00000003          	lb	zero,0(zero) # 0 <_isr_handler>
    2314:	0002                	.insn	2, 0x0002
    2316:	0000                	.insn	2, 0x0000
    2318:	0002                	.insn	2, 0x0002
    231a:	0000                	.insn	2, 0x0000
    231c:	0002                	.insn	2, 0x0002
    231e:	0000                	.insn	2, 0x0000
    2320:	0002                	.insn	2, 0x0002
    2322:	0000                	.insn	2, 0x0000
    2324:	0002                	.insn	2, 0x0002
    2326:	0000                	.insn	2, 0x0000
    2328:	0002                	.insn	2, 0x0002
    232a:	0000                	.insn	2, 0x0000
    232c:	0002                	.insn	2, 0x0002
    232e:	0000                	.insn	2, 0x0000
    2330:	0002                	.insn	2, 0x0002
    2332:	0000                	.insn	2, 0x0000
    2334:	0002                	.insn	2, 0x0002
    2336:	0000                	.insn	2, 0x0000
    2338:	0002                	.insn	2, 0x0002
    233a:	0000                	.insn	2, 0x0000
    233c:	0002                	.insn	2, 0x0002
	...
    236a:	0000                	.insn	2, 0x0000
    236c:	0001                	.insn	2, 0x0001
    236e:	0000                	.insn	2, 0x0000
    2370:	0000                	.insn	2, 0x0000
    2372:	0000                	.insn	2, 0x0000
    2374:	0001                	.insn	2, 0x0001
    2376:	0000                	.insn	2, 0x0000
    2378:	0001                	.insn	2, 0x0001
	...
    23a2:	0000                	.insn	2, 0x0000
    23a4:	0001                	.insn	2, 0x0001
    23a6:	0000                	.insn	2, 0x0000
    23a8:	0001                	.insn	2, 0x0001
    23aa:	0000                	.insn	2, 0x0000
    23ac:	0000                	.insn	2, 0x0000
    23ae:	0000                	.insn	2, 0x0000
    23b0:	0001                	.insn	2, 0x0001
	...
    240a:	0000                	.insn	2, 0x0000
    240c:	0001                	.insn	2, 0x0001
    240e:	0000                	.insn	2, 0x0000
    2410:	0000                	.insn	2, 0x0000
    2412:	0000                	.insn	2, 0x0000
    2414:	0001                	.insn	2, 0x0001
    2416:	0000                	.insn	2, 0x0000
    2418:	0001                	.insn	2, 0x0001
    241a:	0000                	.insn	2, 0x0000
    241c:	0000                	.insn	2, 0x0000
    241e:	0000                	.insn	2, 0x0000
    2420:	00000003          	lb	zero,0(zero) # 0 <_isr_handler>
    2424:	0002                	.insn	2, 0x0002
    2426:	0000                	.insn	2, 0x0000
    2428:	0002                	.insn	2, 0x0002
    242a:	0000                	.insn	2, 0x0000
    242c:	0002                	.insn	2, 0x0002
    242e:	0000                	.insn	2, 0x0000
    2430:	0002                	.insn	2, 0x0002
    2432:	0000                	.insn	2, 0x0000
    2434:	0002                	.insn	2, 0x0002
    2436:	0000                	.insn	2, 0x0000
    2438:	0002                	.insn	2, 0x0002
    243a:	0000                	.insn	2, 0x0000
    243c:	0004                	.insn	2, 0x0004
    243e:	0000                	.insn	2, 0x0000
    2440:	0000                	.insn	2, 0x0000
    2442:	0000                	.insn	2, 0x0000
    2444:	0001                	.insn	2, 0x0001
    2446:	0000                	.insn	2, 0x0000
    2448:	0001                	.insn	2, 0x0001
    244a:	0000                	.insn	2, 0x0000
    244c:	0000                	.insn	2, 0x0000
    244e:	0000                	.insn	2, 0x0000
    2450:	0001                	.insn	2, 0x0001
	...
    2496:	0000                	.insn	2, 0x0000
    2498:	00000003          	lb	zero,0(zero) # 0 <_isr_handler>
    249c:	0002                	.insn	2, 0x0002
    249e:	0000                	.insn	2, 0x0000
    24a0:	0002                	.insn	2, 0x0002
    24a2:	0000                	.insn	2, 0x0000
    24a4:	0002                	.insn	2, 0x0002
    24a6:	0000                	.insn	2, 0x0000
    24a8:	0002                	.insn	2, 0x0002
    24aa:	0000                	.insn	2, 0x0000
    24ac:	0006                	.insn	2, 0x0006
    24ae:	0000                	.insn	2, 0x0000
    24b0:	0000                	.insn	2, 0x0000
    24b2:	0000                	.insn	2, 0x0000
    24b4:	0005                	.insn	2, 0x0005
    24b6:	0000                	.insn	2, 0x0000
    24b8:	0006                	.insn	2, 0x0006
    24ba:	0000                	.insn	2, 0x0000
    24bc:	0000                	.insn	2, 0x0000
    24be:	0000                	.insn	2, 0x0000
    24c0:	0005                	.insn	2, 0x0005
    24c2:	0000                	.insn	2, 0x0000
    24c4:	0002                	.insn	2, 0x0002
    24c6:	0000                	.insn	2, 0x0000
    24c8:	0002                	.insn	2, 0x0002
    24ca:	0000                	.insn	2, 0x0000
    24cc:	0004                	.insn	2, 0x0004
    24ce:	0000                	.insn	2, 0x0000
    24d0:	00000003          	lb	zero,0(zero) # 0 <_isr_handler>
    24d4:	0002                	.insn	2, 0x0002
    24d6:	0000                	.insn	2, 0x0000
    24d8:	0002                	.insn	2, 0x0002
    24da:	0000                	.insn	2, 0x0000
    24dc:	0006                	.insn	2, 0x0006
    24de:	0000                	.insn	2, 0x0000
    24e0:	0000                	.insn	2, 0x0000
    24e2:	0000                	.insn	2, 0x0000
    24e4:	0005                	.insn	2, 0x0005
    24e6:	0000                	.insn	2, 0x0000
    24e8:	0006                	.insn	2, 0x0006
    24ea:	0000                	.insn	2, 0x0000
    24ec:	0000                	.insn	2, 0x0000
    24ee:	0000                	.insn	2, 0x0000
    24f0:	0005                	.insn	2, 0x0005
    24f2:	0000                	.insn	2, 0x0000
    24f4:	0002                	.insn	2, 0x0002
    24f6:	0000                	.insn	2, 0x0000
    24f8:	0002                	.insn	2, 0x0002
    24fa:	0000                	.insn	2, 0x0000
    24fc:	0002                	.insn	2, 0x0002
    24fe:	0000                	.insn	2, 0x0000
    2500:	0002                	.insn	2, 0x0002
    2502:	0000                	.insn	2, 0x0000
    2504:	0004                	.insn	2, 0x0004
	...
    2536:	0000                	.insn	2, 0x0000
    2538:	0001                	.insn	2, 0x0001
	...
    256a:	0000                	.insn	2, 0x0000
    256c:	0001                	.insn	2, 0x0001
    256e:	0000                	.insn	2, 0x0000
    2570:	0001                	.insn	2, 0x0001
	...
    25a2:	0000                	.insn	2, 0x0000
    25a4:	0001                	.insn	2, 0x0001
	...
    25d6:	0000                	.insn	2, 0x0000
    25d8:	0001                	.insn	2, 0x0001
    25da:	0000                	.insn	2, 0x0000
    25dc:	0000                	.insn	2, 0x0000
    25de:	0000                	.insn	2, 0x0000
    25e0:	00000003          	lb	zero,0(zero) # 0 <_isr_handler>
    25e4:	0002                	.insn	2, 0x0002
    25e6:	0000                	.insn	2, 0x0000
    25e8:	0002                	.insn	2, 0x0002
    25ea:	0000                	.insn	2, 0x0000
    25ec:	0004                	.insn	2, 0x0004
    25ee:	0000                	.insn	2, 0x0000
    25f0:	0000                	.insn	2, 0x0000
    25f2:	0000                	.insn	2, 0x0000
    25f4:	00000003          	lb	zero,0(zero) # 0 <_isr_handler>
    25f8:	0002                	.insn	2, 0x0002
    25fa:	0000                	.insn	2, 0x0000
    25fc:	0002                	.insn	2, 0x0002
    25fe:	0000                	.insn	2, 0x0000
    2600:	0002                	.insn	2, 0x0002
    2602:	0000                	.insn	2, 0x0000
    2604:	0004                	.insn	2, 0x0004
    2606:	0000                	.insn	2, 0x0000
    2608:	0000                	.insn	2, 0x0000
    260a:	0000                	.insn	2, 0x0000
    260c:	0001                	.insn	2, 0x0001
    260e:	0000                	.insn	2, 0x0000
    2610:	0001                	.insn	2, 0x0001
    2612:	0000                	.insn	2, 0x0000
    2614:	0000                	.insn	2, 0x0000
    2616:	0000                	.insn	2, 0x0000
    2618:	00000003          	lb	zero,0(zero) # 0 <_isr_handler>
    261c:	0002                	.insn	2, 0x0002
    261e:	0000                	.insn	2, 0x0000
    2620:	0002                	.insn	2, 0x0002
    2622:	0000                	.insn	2, 0x0000
    2624:	0002                	.insn	2, 0x0002
    2626:	0000                	.insn	2, 0x0000
    2628:	0004                	.insn	2, 0x0004
    262a:	0000                	.insn	2, 0x0000
    262c:	0000                	.insn	2, 0x0000
    262e:	0000                	.insn	2, 0x0000
    2630:	00000003          	lb	zero,0(zero) # 0 <_isr_handler>
    2634:	0002                	.insn	2, 0x0002
    2636:	0000                	.insn	2, 0x0000
    2638:	0002                	.insn	2, 0x0002
    263a:	0000                	.insn	2, 0x0000
    263c:	0004                	.insn	2, 0x0004
    263e:	0000                	.insn	2, 0x0000
    2640:	0000                	.insn	2, 0x0000
    2642:	0000                	.insn	2, 0x0000
    2644:	0001                	.insn	2, 0x0001
	...
    2676:	0000                	.insn	2, 0x0000
    2678:	0001                	.insn	2, 0x0001
    267a:	0000                	.insn	2, 0x0000
    267c:	0000                	.insn	2, 0x0000
    267e:	0000                	.insn	2, 0x0000
    2680:	0005                	.insn	2, 0x0005
    2682:	0000                	.insn	2, 0x0000
    2684:	0002                	.insn	2, 0x0002
    2686:	0000                	.insn	2, 0x0000
    2688:	0004                	.insn	2, 0x0004
    268a:	0000                	.insn	2, 0x0000
    268c:	0001                	.insn	2, 0x0001
    268e:	0000                	.insn	2, 0x0000
    2690:	0000                	.insn	2, 0x0000
    2692:	0000                	.insn	2, 0x0000
    2694:	0005                	.insn	2, 0x0005
    2696:	0000                	.insn	2, 0x0000
    2698:	0002                	.insn	2, 0x0002
    269a:	0000                	.insn	2, 0x0000
    269c:	0002                	.insn	2, 0x0002
    269e:	0000                	.insn	2, 0x0000
    26a0:	0002                	.insn	2, 0x0002
    26a2:	0000                	.insn	2, 0x0000
    26a4:	0006                	.insn	2, 0x0006
    26a6:	0000                	.insn	2, 0x0000
    26a8:	0000                	.insn	2, 0x0000
    26aa:	0000                	.insn	2, 0x0000
    26ac:	0005                	.insn	2, 0x0005
    26ae:	0000                	.insn	2, 0x0000
    26b0:	0006                	.insn	2, 0x0006
    26b2:	0000                	.insn	2, 0x0000
    26b4:	0000                	.insn	2, 0x0000
    26b6:	0000                	.insn	2, 0x0000
    26b8:	0005                	.insn	2, 0x0005
    26ba:	0000                	.insn	2, 0x0000
    26bc:	0002                	.insn	2, 0x0002
    26be:	0000                	.insn	2, 0x0000
    26c0:	0002                	.insn	2, 0x0002
    26c2:	0000                	.insn	2, 0x0000
    26c4:	0002                	.insn	2, 0x0002
    26c6:	0000                	.insn	2, 0x0000
    26c8:	0006                	.insn	2, 0x0006
    26ca:	0000                	.insn	2, 0x0000
    26cc:	0000                	.insn	2, 0x0000
    26ce:	0000                	.insn	2, 0x0000
    26d0:	0001                	.insn	2, 0x0001
    26d2:	0000                	.insn	2, 0x0000
    26d4:	00000003          	lb	zero,0(zero) # 0 <_isr_handler>
    26d8:	0002                	.insn	2, 0x0002
    26da:	0000                	.insn	2, 0x0000
    26dc:	0006                	.insn	2, 0x0006
    26de:	0000                	.insn	2, 0x0000
    26e0:	0000                	.insn	2, 0x0000
    26e2:	0000                	.insn	2, 0x0000
    26e4:	0001                	.insn	2, 0x0001
	...
    2716:	0000                	.insn	2, 0x0000
    2718:	0001                	.insn	2, 0x0001
	...
    2726:	0000                	.insn	2, 0x0000
    2728:	0001                	.insn	2, 0x0001
    272a:	0000                	.insn	2, 0x0000
    272c:	0001                	.insn	2, 0x0001
	...
    276e:	0000                	.insn	2, 0x0000
    2770:	0001                	.insn	2, 0x0001
    2772:	0000                	.insn	2, 0x0000
    2774:	0001                	.insn	2, 0x0001
	...
    2782:	0000                	.insn	2, 0x0000
    2784:	0001                	.insn	2, 0x0001
	...
    27b6:	0000                	.insn	2, 0x0000
    27b8:	0005                	.insn	2, 0x0005
    27ba:	0000                	.insn	2, 0x0000
    27bc:	0002                	.insn	2, 0x0002
    27be:	0000                	.insn	2, 0x0000
    27c0:	0004                	.insn	2, 0x0004
    27c2:	0000                	.insn	2, 0x0000
    27c4:	0000                	.insn	2, 0x0000
    27c6:	0000                	.insn	2, 0x0000
    27c8:	0001                	.insn	2, 0x0001
    27ca:	0000                	.insn	2, 0x0000
    27cc:	0001                	.insn	2, 0x0001
    27ce:	0000                	.insn	2, 0x0000
    27d0:	0000                	.insn	2, 0x0000
    27d2:	0000                	.insn	2, 0x0000
    27d4:	00000003          	lb	zero,0(zero) # 0 <_isr_handler>
    27d8:	0004                	.insn	2, 0x0004
    27da:	0000                	.insn	2, 0x0000
    27dc:	0000                	.insn	2, 0x0000
    27de:	0000                	.insn	2, 0x0000
    27e0:	00000003          	lb	zero,0(zero) # 0 <_isr_handler>
    27e4:	0002                	.insn	2, 0x0002
    27e6:	0000                	.insn	2, 0x0000
    27e8:	0002                	.insn	2, 0x0002
    27ea:	0000                	.insn	2, 0x0000
    27ec:	0002                	.insn	2, 0x0002
    27ee:	0000                	.insn	2, 0x0000
    27f0:	0002                	.insn	2, 0x0002
    27f2:	0000                	.insn	2, 0x0000
    27f4:	0002                	.insn	2, 0x0002
    27f6:	0000                	.insn	2, 0x0000
    27f8:	0002                	.insn	2, 0x0002
    27fa:	0000                	.insn	2, 0x0000
    27fc:	0004                	.insn	2, 0x0004
    27fe:	0000                	.insn	2, 0x0000
    2800:	0000                	.insn	2, 0x0000
    2802:	0000                	.insn	2, 0x0000
    2804:	00000003          	lb	zero,0(zero) # 0 <_isr_handler>
    2808:	0004                	.insn	2, 0x0004
    280a:	0000                	.insn	2, 0x0000
    280c:	0000                	.insn	2, 0x0000
    280e:	0000                	.insn	2, 0x0000
    2810:	0001                	.insn	2, 0x0001
    2812:	0000                	.insn	2, 0x0000
    2814:	0001                	.insn	2, 0x0001
    2816:	0000                	.insn	2, 0x0000
    2818:	0000                	.insn	2, 0x0000
    281a:	0000                	.insn	2, 0x0000
    281c:	00000003          	lb	zero,0(zero) # 0 <_isr_handler>
    2820:	0002                	.insn	2, 0x0002
    2822:	0000                	.insn	2, 0x0000
    2824:	0006                	.insn	2, 0x0006
	...
    2856:	0000                	.insn	2, 0x0000
    2858:	00000003          	lb	zero,0(zero) # 0 <_isr_handler>
    285c:	0002                	.insn	2, 0x0002
    285e:	0000                	.insn	2, 0x0000
    2860:	0006                	.insn	2, 0x0006
    2862:	0000                	.insn	2, 0x0000
    2864:	0000                	.insn	2, 0x0000
    2866:	0000                	.insn	2, 0x0000
    2868:	0005                	.insn	2, 0x0005
    286a:	0000                	.insn	2, 0x0000
    286c:	0006                	.insn	2, 0x0006
    286e:	0000                	.insn	2, 0x0000
    2870:	0000                	.insn	2, 0x0000
    2872:	0000                	.insn	2, 0x0000
    2874:	0001                	.insn	2, 0x0001
    2876:	0000                	.insn	2, 0x0000
    2878:	0001                	.insn	2, 0x0001
    287a:	0000                	.insn	2, 0x0000
    287c:	0000                	.insn	2, 0x0000
    287e:	0000                	.insn	2, 0x0000
    2880:	0005                	.insn	2, 0x0005
    2882:	0000                	.insn	2, 0x0000
    2884:	0002                	.insn	2, 0x0002
    2886:	0000                	.insn	2, 0x0000
    2888:	0002                	.insn	2, 0x0002
    288a:	0000                	.insn	2, 0x0000
    288c:	0004                	.insn	2, 0x0004
    288e:	0000                	.insn	2, 0x0000
    2890:	00000003          	lb	zero,0(zero) # 0 <_isr_handler>
    2894:	0002                	.insn	2, 0x0002
    2896:	0000                	.insn	2, 0x0000
    2898:	0002                	.insn	2, 0x0002
    289a:	0000                	.insn	2, 0x0000
    289c:	0006                	.insn	2, 0x0006
    289e:	0000                	.insn	2, 0x0000
    28a0:	0000                	.insn	2, 0x0000
    28a2:	0000                	.insn	2, 0x0000
    28a4:	0001                	.insn	2, 0x0001
    28a6:	0000                	.insn	2, 0x0000
    28a8:	0001                	.insn	2, 0x0001
    28aa:	0000                	.insn	2, 0x0000
    28ac:	0000                	.insn	2, 0x0000
    28ae:	0000                	.insn	2, 0x0000
    28b0:	0005                	.insn	2, 0x0005
    28b2:	0000                	.insn	2, 0x0000
    28b4:	0006                	.insn	2, 0x0006
    28b6:	0000                	.insn	2, 0x0000
    28b8:	0000                	.insn	2, 0x0000
    28ba:	0000                	.insn	2, 0x0000
    28bc:	0005                	.insn	2, 0x0005
    28be:	0000                	.insn	2, 0x0000
    28c0:	0002                	.insn	2, 0x0002
    28c2:	0000                	.insn	2, 0x0000
    28c4:	0004                	.insn	2, 0x0004
	...
    28f6:	0000                	.insn	2, 0x0000
    28f8:	0001                	.insn	2, 0x0001
	...
    2912:	0000                	.insn	2, 0x0000
    2914:	0001                	.insn	2, 0x0001
    2916:	0000                	.insn	2, 0x0000
    2918:	0001                	.insn	2, 0x0001
	...
    292a:	0000                	.insn	2, 0x0000
    292c:	0001                	.insn	2, 0x0001
    292e:	0000                	.insn	2, 0x0000
    2930:	0001                	.insn	2, 0x0001
	...
    2942:	0000                	.insn	2, 0x0000
    2944:	0001                	.insn	2, 0x0001
    2946:	0000                	.insn	2, 0x0000
    2948:	0001                	.insn	2, 0x0001
	...
    2962:	0000                	.insn	2, 0x0000
    2964:	0001                	.insn	2, 0x0001
	...
    2996:	0000                	.insn	2, 0x0000
    2998:	0001                	.insn	2, 0x0001
    299a:	0000                	.insn	2, 0x0000
    299c:	0000                	.insn	2, 0x0000
    299e:	0000                	.insn	2, 0x0000
    29a0:	00000003          	lb	zero,0(zero) # 0 <_isr_handler>
    29a4:	0002                	.insn	2, 0x0002
    29a6:	0000                	.insn	2, 0x0000
    29a8:	0002                	.insn	2, 0x0002
    29aa:	0000                	.insn	2, 0x0000
    29ac:	0002                	.insn	2, 0x0002
    29ae:	0000                	.insn	2, 0x0000
    29b0:	0002                	.insn	2, 0x0002
    29b2:	0000                	.insn	2, 0x0000
    29b4:	0006                	.insn	2, 0x0006
    29b6:	0000                	.insn	2, 0x0000
    29b8:	0005                	.insn	2, 0x0005
    29ba:	0000                	.insn	2, 0x0000
    29bc:	0002                	.insn	2, 0x0002
    29be:	0000                	.insn	2, 0x0000
    29c0:	0002                	.insn	2, 0x0002
    29c2:	0000                	.insn	2, 0x0000
    29c4:	0004                	.insn	2, 0x0004
    29c6:	0000                	.insn	2, 0x0000
    29c8:	0000                	.insn	2, 0x0000
    29ca:	0000                	.insn	2, 0x0000
    29cc:	0001                	.insn	2, 0x0001
    29ce:	0000                	.insn	2, 0x0000
    29d0:	0001                	.insn	2, 0x0001
    29d2:	0000                	.insn	2, 0x0000
    29d4:	0000                	.insn	2, 0x0000
    29d6:	0000                	.insn	2, 0x0000
    29d8:	00000003          	lb	zero,0(zero) # 0 <_isr_handler>
    29dc:	0002                	.insn	2, 0x0002
    29de:	0000                	.insn	2, 0x0000
    29e0:	0002                	.insn	2, 0x0002
    29e2:	0000                	.insn	2, 0x0000
    29e4:	0006                	.insn	2, 0x0006
    29e6:	0000                	.insn	2, 0x0000
    29e8:	0005                	.insn	2, 0x0005
    29ea:	0000                	.insn	2, 0x0000
    29ec:	0002                	.insn	2, 0x0002
    29ee:	0000                	.insn	2, 0x0000
    29f0:	0002                	.insn	2, 0x0002
    29f2:	0000                	.insn	2, 0x0000
    29f4:	0002                	.insn	2, 0x0002
    29f6:	0000                	.insn	2, 0x0000
    29f8:	0002                	.insn	2, 0x0002
    29fa:	0000                	.insn	2, 0x0000
    29fc:	0004                	.insn	2, 0x0004
    29fe:	0000                	.insn	2, 0x0000
    2a00:	0000                	.insn	2, 0x0000
    2a02:	0000                	.insn	2, 0x0000
    2a04:	0001                	.insn	2, 0x0001
	...
    2a36:	0000                	.insn	2, 0x0000
    2a38:	0001                	.insn	2, 0x0001
    2a3a:	0000                	.insn	2, 0x0000
    2a3c:	0000                	.insn	2, 0x0000
    2a3e:	0000                	.insn	2, 0x0000
    2a40:	0005                	.insn	2, 0x0005
    2a42:	0000                	.insn	2, 0x0000
    2a44:	0002                	.insn	2, 0x0002
    2a46:	0000                	.insn	2, 0x0000
    2a48:	0002                	.insn	2, 0x0002
    2a4a:	0000                	.insn	2, 0x0000
    2a4c:	0002                	.insn	2, 0x0002
    2a4e:	0000                	.insn	2, 0x0000
    2a50:	0002                	.insn	2, 0x0002
    2a52:	0000                	.insn	2, 0x0000
    2a54:	0002                	.insn	2, 0x0002
    2a56:	0000                	.insn	2, 0x0000
    2a58:	0002                	.insn	2, 0x0002
    2a5a:	0000                	.insn	2, 0x0000
    2a5c:	0002                	.insn	2, 0x0002
    2a5e:	0000                	.insn	2, 0x0000
    2a60:	0002                	.insn	2, 0x0002
    2a62:	0000                	.insn	2, 0x0000
    2a64:	0006                	.insn	2, 0x0006
    2a66:	0000                	.insn	2, 0x0000
    2a68:	0000                	.insn	2, 0x0000
    2a6a:	0000                	.insn	2, 0x0000
    2a6c:	0005                	.insn	2, 0x0005
    2a6e:	0000                	.insn	2, 0x0000
    2a70:	0006                	.insn	2, 0x0006
    2a72:	0000                	.insn	2, 0x0000
    2a74:	0000                	.insn	2, 0x0000
    2a76:	0000                	.insn	2, 0x0000
    2a78:	0005                	.insn	2, 0x0005
    2a7a:	0000                	.insn	2, 0x0000
    2a7c:	0002                	.insn	2, 0x0002
    2a7e:	0000                	.insn	2, 0x0000
    2a80:	0002                	.insn	2, 0x0002
    2a82:	0000                	.insn	2, 0x0000
    2a84:	0002                	.insn	2, 0x0002
    2a86:	0000                	.insn	2, 0x0000
    2a88:	0002                	.insn	2, 0x0002
    2a8a:	0000                	.insn	2, 0x0000
    2a8c:	0002                	.insn	2, 0x0002
    2a8e:	0000                	.insn	2, 0x0000
    2a90:	0002                	.insn	2, 0x0002
    2a92:	0000                	.insn	2, 0x0000
    2a94:	0002                	.insn	2, 0x0002
    2a96:	0000                	.insn	2, 0x0000
    2a98:	0002                	.insn	2, 0x0002
    2a9a:	0000                	.insn	2, 0x0000
    2a9c:	0006                	.insn	2, 0x0006
    2a9e:	0000                	.insn	2, 0x0000
    2aa0:	0000                	.insn	2, 0x0000
    2aa2:	0000                	.insn	2, 0x0000
    2aa4:	0001                	.insn	2, 0x0001
	...
    2ad6:	0000                	.insn	2, 0x0000
    2ad8:	0001                	.insn	2, 0x0001
	...
    2b42:	0000                	.insn	2, 0x0000
    2b44:	0001                	.insn	2, 0x0001
	...
    2b76:	0000                	.insn	2, 0x0000
    2b78:	0005                	.insn	2, 0x0005
    2b7a:	0000                	.insn	2, 0x0000
    2b7c:	0002                	.insn	2, 0x0002
    2b7e:	0000                	.insn	2, 0x0000
    2b80:	0002                	.insn	2, 0x0002
    2b82:	0000                	.insn	2, 0x0000
    2b84:	0002                	.insn	2, 0x0002
    2b86:	0000                	.insn	2, 0x0000
    2b88:	0002                	.insn	2, 0x0002
    2b8a:	0000                	.insn	2, 0x0000
    2b8c:	0002                	.insn	2, 0x0002
    2b8e:	0000                	.insn	2, 0x0000
    2b90:	0002                	.insn	2, 0x0002
    2b92:	0000                	.insn	2, 0x0000
    2b94:	0002                	.insn	2, 0x0002
    2b96:	0000                	.insn	2, 0x0000
    2b98:	0002                	.insn	2, 0x0002
    2b9a:	0000                	.insn	2, 0x0000
    2b9c:	0002                	.insn	2, 0x0002
    2b9e:	0000                	.insn	2, 0x0000
    2ba0:	0002                	.insn	2, 0x0002
    2ba2:	0000                	.insn	2, 0x0000
    2ba4:	0002                	.insn	2, 0x0002
    2ba6:	0000                	.insn	2, 0x0000
    2ba8:	0002                	.insn	2, 0x0002
    2baa:	0000                	.insn	2, 0x0000
    2bac:	0002                	.insn	2, 0x0002
    2bae:	0000                	.insn	2, 0x0000
    2bb0:	0002                	.insn	2, 0x0002
    2bb2:	0000                	.insn	2, 0x0000
    2bb4:	0002                	.insn	2, 0x0002
    2bb6:	0000                	.insn	2, 0x0000
    2bb8:	0002                	.insn	2, 0x0002
    2bba:	0000                	.insn	2, 0x0000
    2bbc:	0002                	.insn	2, 0x0002
    2bbe:	0000                	.insn	2, 0x0000
    2bc0:	0002                	.insn	2, 0x0002
    2bc2:	0000                	.insn	2, 0x0000
    2bc4:	0002                	.insn	2, 0x0002
    2bc6:	0000                	.insn	2, 0x0000
    2bc8:	0002                	.insn	2, 0x0002
    2bca:	0000                	.insn	2, 0x0000
    2bcc:	0002                	.insn	2, 0x0002
    2bce:	0000                	.insn	2, 0x0000
    2bd0:	0002                	.insn	2, 0x0002
    2bd2:	0000                	.insn	2, 0x0000
    2bd4:	0002                	.insn	2, 0x0002
    2bd6:	0000                	.insn	2, 0x0000
    2bd8:	0002                	.insn	2, 0x0002
    2bda:	0000                	.insn	2, 0x0000
    2bdc:	0002                	.insn	2, 0x0002
    2bde:	0000                	.insn	2, 0x0000
    2be0:	0002                	.insn	2, 0x0002
    2be2:	0000                	.insn	2, 0x0000
    2be4:	0006                	.insn	2, 0x0006
	...

00002c00 <vga_buffer>:
    2c00:	0000                	.insn	2, 0x0000
    2c02:	0800                	.insn	2, 0x0800

Disassembly of section .rodata:

00002c28 <CSWTCH.17>:
    2c28:	ffff                	.insn	2, 0xffff
    2c2a:	ffff                	.insn	2, 0xffff
    2c2c:	0001                	.insn	2, 0x0001
	...

00002c38 <CSWTCH.16>:
	...
    2c40:	ffff                	.insn	2, 0xffff
    2c42:	ffff                	.insn	2, 0xffff
    2c44:	0001                	.insn	2, 0x0001
    2c46:	0000                	.insn	2, 0x0000
    2c48:	0f1c                	.insn	2, 0x0f1c
    2c4a:	0000                	.insn	2, 0x0000
    2c4c:	0fb0                	.insn	2, 0x0fb0
    2c4e:	0000                	.insn	2, 0x0000
    2c50:	115c                	.insn	2, 0x115c
    2c52:	0000                	.insn	2, 0x0000
    2c54:	1318                	.insn	2, 0x1318
    2c56:	0000                	.insn	2, 0x0000
    2c58:	1534                	.insn	2, 0x1534
    2c5a:	0000                	.insn	2, 0x0000
    2c5c:	080c                	.insn	2, 0x080c
    2c5e:	0000                	.insn	2, 0x0000
    2c60:	0c90                	.insn	2, 0x0c90
	...

Disassembly of section .comment:

00000000 <.comment>:
   0:	3a434347          	.insn	4, 0x3a434347
   4:	2820                	.insn	2, 0x2820
   6:	33623167          	.insn	4, 0x33623167
   a:	3630                	.insn	2, 0x3630
   c:	3330                	.insn	2, 0x3330
   e:	6139                	.insn	2, 0x6139
  10:	2029                	.insn	2, 0x2029
  12:	3531                	.insn	2, 0x3531
  14:	312e                	.insn	2, 0x312e
  16:	302e                	.insn	2, 0x302e
	...

Disassembly of section .riscv.attributes:

00000000 <.riscv.attributes>:
   0:	3641                	.insn	2, 0x3641
   2:	0000                	.insn	2, 0x0000
   4:	7200                	.insn	2, 0x7200
   6:	7369                	.insn	2, 0x7369
   8:	01007663          	bgeu	zero,a6,14 <_isr_routine+0xc>
   c:	002c                	.insn	2, 0x002c
   e:	0000                	.insn	2, 0x0000
  10:	1004                	.insn	2, 0x1004
  12:	7205                	.insn	2, 0x7205
  14:	3376                	.insn	2, 0x3376
  16:	6932                	.insn	2, 0x6932
  18:	7032                	.insn	2, 0x7032
  1a:	5f31                	.insn	2, 0x5f31
  1c:	326d                	.insn	2, 0x326d
  1e:	3070                	.insn	2, 0x3070
  20:	7a5f 6369 7273      	.insn	6, 0x727363697a5f
  26:	7032                	.insn	2, 0x7032
  28:	5f30                	.insn	2, 0x5f30
  2a:	6d7a                	.insn	2, 0x6d7a
  2c:	756d                	.insn	2, 0x756d
  2e:	316c                	.insn	2, 0x316c
  30:	3070                	.insn	2, 0x3070
  32:	0800                	.insn	2, 0x0800
  34:	0a01                	.insn	2, 0x0a01
  36:	0b                	.byte	0x0b
